
C:/bno055/bbm/build/BNO055.elf:     file format elf32-littlearm

Sections:
Idx Name          Size      VMA       LMA       File off  Algn
  0 .text         00006830  10000000  10000000  00001000  2**3
                  CONTENTS, ALLOC, LOAD, READONLY, CODE
  1 .rodata       00000e74  10006830  10006830  00007830  2**3
                  CONTENTS, ALLOC, LOAD, READONLY, DATA
  2 .ARM.exidx    00000008  100076a4  100076a4  000086a4  2**2
                  CONTENTS, ALLOC, LOAD, READONLY, DATA
  3 .binary_info  00000020  100076ac  100076ac  000086ac  2**2
                  CONTENTS, ALLOC, LOAD, READONLY, DATA
  4 .ram_vector_table 00000110  20000000  20000000  0000b000  2**2
                  ALLOC
  5 .uninitialized_data 00000000  20000110  20000110  0000a80c  2**0
                  CONTENTS
  6 .data         0000112c  20000110  100076cc  00009110  2**3
                  CONTENTS, ALLOC, LOAD, READONLY, CODE
  7 .tdata        00000000  2000123c  2000123c  0000a80c  2**0
                  CONTENTS, ALLOC, LOAD, DATA, THREAD_LOCAL
  8 .tbss         00000000  2000123c  2000123c  00000000  2**0
                  ALLOC, THREAD_LOCAL
  9 .bss          00000da4  20001240  100087f8  0000b240  2**3
                  ALLOC
 10 .heap         00000800  20001fe4  20001fe4  0000a80c  2**2
                  CONTENTS, READONLY
 11 .scratch_x    00000000  20080000  20080000  0000b00c  2**0
                  CONTENTS
 12 .scratch_y    00000000  20081000  20081000  0000b00c  2**0
                  CONTENTS
 13 .stack_dummy  00000800  20081000  20081000  0000b020  2**5
                  CONTENTS, READONLY
 14 .flash_end    00000014  100087f8  100087f8  0000a7f8  2**2
                  CONTENTS, ALLOC, LOAD, READONLY, DATA
 15 .ARM.attributes 00000034  00000000  00000000  0000b820  2**0
                  CONTENTS, READONLY
 16 .comment      00000049  00000000  00000000  0000b854  2**0
                  CONTENTS, READONLY
 17 .debug_info   0002e701  00000000  00000000  0000b89d  2**0
                  CONTENTS, READONLY, DEBUGGING, OCTETS
 18 .debug_abbrev 00007e2c  00000000  00000000  00039f9e  2**0
                  CONTENTS, READONLY, DEBUGGING, OCTETS
 19 .debug_loc    00019da1  00000000  00000000  00041dca  2**0
                  CONTENTS, READONLY, DEBUGGING, OCTETS
 20 .debug_aranges 000013c0  00000000  00000000  0005bb70  2**3
                  CONTENTS, READONLY, DEBUGGING, OCTETS
 21 .debug_ranges 00004c38  00000000  00000000  0005cf30  2**3
                  CONTENTS, READONLY, DEBUGGING, OCTETS
 22 .debug_line   00018203  00000000  00000000  00061b68  2**0
                  CONTENTS, READONLY, DEBUGGING, OCTETS
 23 .debug_str    00008f20  00000000  00000000  00079d6b  2**0
                  CONTENTS, READONLY, DEBUGGING, OCTETS
 24 .debug_frame  000033b4  00000000  00000000  00082c8c  2**2
                  CONTENTS, READONLY, DEBUGGING, OCTETS

C:/bno055/bbm/build/BNO055.elf:     file format elf32-littlearm


Disassembly of section .text:

10000000 <__VECTOR_TABLE>:
10000000:	20082000 	.word	0x20082000
10000004:	1000015d 	.word	0x1000015d
10000008:	10000113 	.word	0x10000113
1000000c:	10000115 	.word	0x10000115
10000010:	10000111 	.word	0x10000111
10000014:	10000111 	.word	0x10000111
10000018:	10000111 	.word	0x10000111
1000001c:	10000111 	.word	0x10000111
10000020:	10000111 	.word	0x10000111
10000024:	10000111 	.word	0x10000111
10000028:	10000111 	.word	0x10000111
1000002c:	10000117 	.word	0x10000117
10000030:	10000111 	.word	0x10000111
10000034:	10000111 	.word	0x10000111
10000038:	10000119 	.word	0x10000119
1000003c:	1000011b 	.word	0x1000011b
10000040:	1000011d 	.word	0x1000011d
10000044:	1000011d 	.word	0x1000011d
10000048:	1000011d 	.word	0x1000011d
1000004c:	1000011d 	.word	0x1000011d
10000050:	1000011d 	.word	0x1000011d
10000054:	1000011d 	.word	0x1000011d
10000058:	1000011d 	.word	0x1000011d
1000005c:	1000011d 	.word	0x1000011d
10000060:	1000011d 	.word	0x1000011d
10000064:	1000011d 	.word	0x1000011d
10000068:	1000011d 	.word	0x1000011d
1000006c:	1000011d 	.word	0x1000011d
10000070:	1000011d 	.word	0x1000011d
10000074:	1000011d 	.word	0x1000011d
10000078:	1000011d 	.word	0x1000011d
1000007c:	1000011d 	.word	0x1000011d
10000080:	1000011d 	.word	0x1000011d
10000084:	1000011d 	.word	0x1000011d
10000088:	1000011d 	.word	0x1000011d
1000008c:	1000011d 	.word	0x1000011d
10000090:	1000011d 	.word	0x1000011d
10000094:	1000011d 	.word	0x1000011d
10000098:	1000011d 	.word	0x1000011d
1000009c:	1000011d 	.word	0x1000011d
100000a0:	1000011d 	.word	0x1000011d
100000a4:	1000011d 	.word	0x1000011d
100000a8:	1000011d 	.word	0x1000011d
100000ac:	1000011d 	.word	0x1000011d
100000b0:	1000011d 	.word	0x1000011d
100000b4:	1000011d 	.word	0x1000011d
100000b8:	1000011d 	.word	0x1000011d
100000bc:	1000011d 	.word	0x1000011d
100000c0:	1000011d 	.word	0x1000011d
100000c4:	1000011d 	.word	0x1000011d
100000c8:	1000011d 	.word	0x1000011d
100000cc:	1000011d 	.word	0x1000011d
100000d0:	1000011d 	.word	0x1000011d
100000d4:	1000011d 	.word	0x1000011d
100000d8:	1000011d 	.word	0x1000011d
100000dc:	1000011d 	.word	0x1000011d
100000e0:	1000011d 	.word	0x1000011d
100000e4:	1000011d 	.word	0x1000011d
100000e8:	1000011d 	.word	0x1000011d
100000ec:	1000011d 	.word	0x1000011d
100000f0:	1000011d 	.word	0x1000011d
100000f4:	1000011d 	.word	0x1000011d
100000f8:	1000011d 	.word	0x1000011d
100000fc:	1000011d 	.word	0x1000011d
10000100:	1000011d 	.word	0x1000011d
10000104:	1000011d 	.word	0x1000011d
10000108:	1000011d 	.word	0x1000011d
1000010c:	1000011d 	.word	0x1000011d

10000110 <isr_invalid>:
10000110:	be00      	bkpt	0x0000

10000112 <isr_nmi>:
10000112:	be00      	bkpt	0x0000

10000114 <isr_hardfault>:
10000114:	be00      	bkpt	0x0000

10000116 <isr_svcall>:
10000116:	be00      	bkpt	0x0000

10000118 <isr_pendsv>:
10000118:	be00      	bkpt	0x0000

1000011a <isr_systick>:
1000011a:	be00      	bkpt	0x0000

1000011c <__unhandled_user_irq>:
1000011c:	f3ef 8005 	mrs	r0, IPSR
10000120:	3810      	subs	r0, #16

10000122 <unhandled_user_irq_num_in_r0>:
10000122:	be00      	bkpt	0x0000

10000124 <binary_info_header>:
10000124:	7188ebf2 	.word	0x7188ebf2
10000128:	100076ac 	.word	0x100076ac
1000012c:	100076cc 	.word	0x100076cc
10000130:	100001a8 	.word	0x100001a8
10000134:	e71aa390 	.word	0xe71aa390

10000138 <__binary_info_header_end>:
10000138:	ffffded3 	.word	0xffffded3
1000013c:	10210142 	.word	0x10210142
10000140:	000001ff 	.word	0x000001ff
10000144:	000086c0 	.word	0x000086c0
10000148:	ab123579 	.word	0xab123579

1000014c <_entry_point>:
1000014c:	f04f 0000 	mov.w	r0, #0

10000150 <_enter_vtable_in_r0>:
10000150:	4920      	ldr	r1, [pc, #128]	; (100001d4 <data_cpy_table+0x2c>)
10000152:	6008      	str	r0, [r1, #0]
10000154:	c806      	ldmia	r0!, {r1, r2}
10000156:	f381 8808 	msr	MSP, r1
1000015a:	4710      	bx	r2

1000015c <_reset_handler>:
1000015c:	f04f 4050 	mov.w	r0, #3489660928	; 0xd0000000
10000160:	6800      	ldr	r0, [r0, #0]
10000162:	b110      	cbz	r0, 1000016a <hold_non_core0_in_bootrom+0x6>

10000164 <hold_non_core0_in_bootrom>:
10000164:	f04f 0000 	mov.w	r0, #0
10000168:	e7f2      	b.n	10000150 <_enter_vtable_in_r0>
1000016a:	a40f      	add	r4, pc, #60	; (adr r4, 100001a8 <data_cpy_table>)
1000016c:	cc0e      	ldmia	r4!, {r1, r2, r3}
1000016e:	2900      	cmp	r1, #0
10000170:	d002      	beq.n	10000178 <hold_non_core0_in_bootrom+0x14>
10000172:	f000 f815 	bl	100001a0 <data_cpy>
10000176:	e7f9      	b.n	1000016c <hold_non_core0_in_bootrom+0x8>
10000178:	4917      	ldr	r1, [pc, #92]	; (100001d8 <data_cpy_table+0x30>)
1000017a:	4a18      	ldr	r2, [pc, #96]	; (100001dc <data_cpy_table+0x34>)
1000017c:	2000      	movs	r0, #0
1000017e:	e000      	b.n	10000182 <bss_fill_test>

10000180 <bss_fill_loop>:
10000180:	c101      	stmia	r1!, {r0}

10000182 <bss_fill_test>:
10000182:	4291      	cmp	r1, r2
10000184:	d1fc      	bne.n	10000180 <bss_fill_loop>

10000186 <platform_entry>:
10000186:	2000      	movs	r0, #0
10000188:	f380 880a 	msr	MSPLIM, r0
1000018c:	4914      	ldr	r1, [pc, #80]	; (100001e0 <data_cpy_table+0x38>)
1000018e:	4788      	blx	r1
10000190:	4914      	ldr	r1, [pc, #80]	; (100001e4 <data_cpy_table+0x3c>)
10000192:	4788      	blx	r1
10000194:	4914      	ldr	r1, [pc, #80]	; (100001e8 <data_cpy_table+0x40>)
10000196:	4788      	blx	r1
10000198:	be00      	bkpt	0x0000
1000019a:	e7fd      	b.n	10000198 <platform_entry+0x12>

1000019c <data_cpy_loop>:
1000019c:	c901      	ldmia	r1!, {r0}
1000019e:	c201      	stmia	r2!, {r0}

100001a0 <data_cpy>:
100001a0:	429a      	cmp	r2, r3
100001a2:	d3fb      	bcc.n	1000019c <data_cpy_loop>
100001a4:	4770      	bx	lr
100001a6:	bf00      	nop

100001a8 <data_cpy_table>:
100001a8:	100076cc 	.word	0x100076cc
100001ac:	20000110 	.word	0x20000110
100001b0:	2000123c 	.word	0x2000123c
100001b4:	100087f8 	.word	0x100087f8
100001b8:	20080000 	.word	0x20080000
100001bc:	20080000 	.word	0x20080000
100001c0:	100087f8 	.word	0x100087f8
100001c4:	20081000 	.word	0x20081000
100001c8:	20081000 	.word	0x20081000
100001cc:	00000000 	.word	0x00000000
100001d0:	4770      	bx	lr
100001d2:	0000      	.short	0x0000
100001d4:	e000ed08 	.word	0xe000ed08
100001d8:	2000123c 	.word	0x2000123c
100001dc:	20001fe4 	.word	0x20001fe4
100001e0:	100030f9 	.word	0x100030f9
100001e4:	10000351 	.word	0x10000351
100001e8:	100030b9 	.word	0x100030b9

100001ec <_init>:
100001ec:	b5f8      	push	{r3, r4, r5, r6, r7, lr}
100001ee:	bf00      	nop

100001f0 <__do_global_dtors_aux>:
100001f0:	b510      	push	{r4, lr}
100001f2:	4c05      	ldr	r4, [pc, #20]	; (10000208 <__do_global_dtors_aux+0x18>)
100001f4:	7823      	ldrb	r3, [r4, #0]
100001f6:	b933      	cbnz	r3, 10000206 <__do_global_dtors_aux+0x16>
100001f8:	4b04      	ldr	r3, [pc, #16]	; (1000020c <__do_global_dtors_aux+0x1c>)
100001fa:	b113      	cbz	r3, 10000202 <__do_global_dtors_aux+0x12>
100001fc:	4804      	ldr	r0, [pc, #16]	; (10000210 <__do_global_dtors_aux+0x20>)
100001fe:	e000      	b.n	10000202 <__do_global_dtors_aux+0x12>
10000200:	bf00      	nop
10000202:	2301      	movs	r3, #1
10000204:	7023      	strb	r3, [r4, #0]
10000206:	bd10      	pop	{r4, pc}
10000208:	200013c8 	.word	0x200013c8
1000020c:	00000000 	.word	0x00000000
10000210:	10006830 	.word	0x10006830

10000214 <frame_dummy>:
10000214:	b508      	push	{r3, lr}
10000216:	4b03      	ldr	r3, [pc, #12]	; (10000224 <frame_dummy+0x10>)
10000218:	b11b      	cbz	r3, 10000222 <frame_dummy+0xe>
1000021a:	4903      	ldr	r1, [pc, #12]	; (10000228 <frame_dummy+0x14>)
1000021c:	4803      	ldr	r0, [pc, #12]	; (1000022c <frame_dummy+0x18>)
1000021e:	e000      	b.n	10000222 <frame_dummy+0xe>
10000220:	bf00      	nop
10000222:	bd08      	pop	{r3, pc}
10000224:	00000000 	.word	0x00000000
10000228:	200013cc 	.word	0x200013cc
1000022c:	10006830 	.word	0x10006830

10000230 <_Z10accel_initv>:
10000230:	b570      	push	{r4, r5, r6, lr}
10000232:	b084      	sub	sp, #16
10000234:	f44f 707a 	mov.w	r0, #1000	; 0x3e8
10000238:	f001 f940 	bl	100014bc <sleep_ms>
1000023c:	2600      	movs	r6, #0
1000023e:	f88d 600f 	strb.w	r6, [sp, #15]
10000242:	4d41      	ldr	r5, [pc, #260]	; (10000348 <_Z10accel_initv+0x118>)
10000244:	2401      	movs	r4, #1
10000246:	9400      	str	r4, [sp, #0]
10000248:	4623      	mov	r3, r4
1000024a:	f10d 020f 	add.w	r2, sp, #15
1000024e:	2128      	movs	r1, #40	; 0x28
10000250:	4628      	mov	r0, r5
10000252:	f006 f959 	bl	10006508 <i2c_write_blocking>
10000256:	9600      	str	r6, [sp, #0]
10000258:	4623      	mov	r3, r4
1000025a:	aa03      	add	r2, sp, #12
1000025c:	2128      	movs	r1, #40	; 0x28
1000025e:	4628      	mov	r0, r5
10000260:	f006 f95e 	bl	10006520 <i2c_read_blocking>
10000264:	f89d 300c 	ldrb.w	r3, [sp, #12]
10000268:	2ba0      	cmp	r3, #160	; 0xa0
1000026a:	d007      	beq.n	1000027c <_Z10accel_initv+0x4c>
1000026c:	4837      	ldr	r0, [pc, #220]	; (1000034c <_Z10accel_initv+0x11c>)
1000026e:	f003 f889 	bl	10003384 <__wrap_printf>
10000272:	f241 3088 	movw	r0, #5000	; 0x1388
10000276:	f001 f921 	bl	100014bc <sleep_ms>
1000027a:	e7f7      	b.n	1000026c <_Z10accel_initv+0x3c>
1000027c:	263f      	movs	r6, #63	; 0x3f
1000027e:	f88d 6008 	strb.w	r6, [sp, #8]
10000282:	2340      	movs	r3, #64	; 0x40
10000284:	f88d 3009 	strb.w	r3, [sp, #9]
10000288:	4d2f      	ldr	r5, [pc, #188]	; (10000348 <_Z10accel_initv+0x118>)
1000028a:	2401      	movs	r4, #1
1000028c:	9400      	str	r4, [sp, #0]
1000028e:	2302      	movs	r3, #2
10000290:	aa02      	add	r2, sp, #8
10000292:	2128      	movs	r1, #40	; 0x28
10000294:	4628      	mov	r0, r5
10000296:	f006 f937 	bl	10006508 <i2c_write_blocking>
1000029a:	f88d 6008 	strb.w	r6, [sp, #8]
1000029e:	f88d 4009 	strb.w	r4, [sp, #9]
100002a2:	9400      	str	r4, [sp, #0]
100002a4:	2302      	movs	r3, #2
100002a6:	aa02      	add	r2, sp, #8
100002a8:	2128      	movs	r1, #40	; 0x28
100002aa:	4628      	mov	r0, r5
100002ac:	f006 f92c 	bl	10006508 <i2c_write_blocking>
100002b0:	233e      	movs	r3, #62	; 0x3e
100002b2:	f88d 3008 	strb.w	r3, [sp, #8]
100002b6:	2600      	movs	r6, #0
100002b8:	f88d 6009 	strb.w	r6, [sp, #9]
100002bc:	9400      	str	r4, [sp, #0]
100002be:	2302      	movs	r3, #2
100002c0:	aa02      	add	r2, sp, #8
100002c2:	2128      	movs	r1, #40	; 0x28
100002c4:	4628      	mov	r0, r5
100002c6:	f006 f91f 	bl	10006508 <i2c_write_blocking>
100002ca:	2032      	movs	r0, #50	; 0x32
100002cc:	f001 f8f6 	bl	100014bc <sleep_ms>
100002d0:	2341      	movs	r3, #65	; 0x41
100002d2:	f88d 3008 	strb.w	r3, [sp, #8]
100002d6:	2324      	movs	r3, #36	; 0x24
100002d8:	f88d 3009 	strb.w	r3, [sp, #9]
100002dc:	9400      	str	r4, [sp, #0]
100002de:	2302      	movs	r3, #2
100002e0:	aa02      	add	r2, sp, #8
100002e2:	2128      	movs	r1, #40	; 0x28
100002e4:	4628      	mov	r0, r5
100002e6:	f006 f90f 	bl	10006508 <i2c_write_blocking>
100002ea:	2342      	movs	r3, #66	; 0x42
100002ec:	f88d 3008 	strb.w	r3, [sp, #8]
100002f0:	f88d 6009 	strb.w	r6, [sp, #9]
100002f4:	9400      	str	r4, [sp, #0]
100002f6:	2302      	movs	r3, #2
100002f8:	aa02      	add	r2, sp, #8
100002fa:	2128      	movs	r1, #40	; 0x28
100002fc:	4628      	mov	r0, r5
100002fe:	f006 f903 	bl	10006508 <i2c_write_blocking>
10000302:	233b      	movs	r3, #59	; 0x3b
10000304:	f88d 3008 	strb.w	r3, [sp, #8]
10000308:	2308      	movs	r3, #8
1000030a:	f88d 3009 	strb.w	r3, [sp, #9]
1000030e:	9400      	str	r4, [sp, #0]
10000310:	2302      	movs	r3, #2
10000312:	aa02      	add	r2, sp, #8
10000314:	2128      	movs	r1, #40	; 0x28
10000316:	4628      	mov	r0, r5
10000318:	f006 f8f6 	bl	10006508 <i2c_write_blocking>
1000031c:	201e      	movs	r0, #30
1000031e:	f001 f8cd 	bl	100014bc <sleep_ms>
10000322:	233d      	movs	r3, #61	; 0x3d
10000324:	f88d 3008 	strb.w	r3, [sp, #8]
10000328:	230c      	movs	r3, #12
1000032a:	f88d 3009 	strb.w	r3, [sp, #9]
1000032e:	9400      	str	r4, [sp, #0]
10000330:	2302      	movs	r3, #2
10000332:	aa02      	add	r2, sp, #8
10000334:	2128      	movs	r1, #40	; 0x28
10000336:	4628      	mov	r0, r5
10000338:	f006 f8e6 	bl	10006508 <i2c_write_blocking>
1000033c:	2064      	movs	r0, #100	; 0x64
1000033e:	f001 f8bd 	bl	100014bc <sleep_ms>
10000342:	b004      	add	sp, #16
10000344:	bd70      	pop	{r4, r5, r6, pc}
10000346:	bf00      	nop
10000348:	2000122c 	.word	0x2000122c
1000034c:	10006830 	.word	0x10006830

10000350 <main>:
10000350:	e92d 4ff0 	stmdb	sp!, {r4, r5, r6, r7, r8, r9, sl, fp, lr}
10000354:	b097      	sub	sp, #92	; 0x5c
10000356:	f002 ffe3 	bl	10003320 <stdio_init_all>
1000035a:	49d1      	ldr	r1, [pc, #836]	; (100006a0 <main+0x350>)
1000035c:	48d1      	ldr	r0, [pc, #836]	; (100006a4 <main+0x354>)
1000035e:	f006 f89d 	bl	1000649c <i2c_init>
10000362:	2103      	movs	r1, #3
10000364:	2006      	movs	r0, #6
10000366:	f000 f9b1 	bl	100006cc <gpio_set_function>
1000036a:	2103      	movs	r1, #3
1000036c:	2007      	movs	r0, #7
1000036e:	f000 f9ad 	bl	100006cc <gpio_set_function>
10000372:	2200      	movs	r2, #0
10000374:	2101      	movs	r1, #1
10000376:	2006      	movs	r0, #6
10000378:	f000 f9c4 	bl	10000704 <gpio_set_pulls>
1000037c:	2200      	movs	r2, #0
1000037e:	2101      	movs	r1, #1
10000380:	2007      	movs	r0, #7
10000382:	f000 f9bf 	bl	10000704 <gpio_set_pulls>
10000386:	f7ff ff53 	bl	10000230 <_Z10accel_initv>
1000038a:	230e      	movs	r3, #14
1000038c:	f88d 304f 	strb.w	r3, [sp, #79]	; 0x4f
10000390:	2314      	movs	r3, #20
10000392:	f88d 3047 	strb.w	r3, [sp, #71]	; 0x47
10000396:	232e      	movs	r3, #46	; 0x2e
10000398:	f88d 303f 	strb.w	r3, [sp, #63]	; 0x3f
1000039c:	2328      	movs	r3, #40	; 0x28
1000039e:	f88d 3037 	strb.w	r3, [sp, #55]	; 0x37
100003a2:	4dc0      	ldr	r5, [pc, #768]	; (100006a4 <main+0x354>)
100003a4:	2601      	movs	r6, #1
100003a6:	9600      	str	r6, [sp, #0]
100003a8:	4633      	mov	r3, r6
100003aa:	f10d 0237 	add.w	r2, sp, #55	; 0x37
100003ae:	2128      	movs	r1, #40	; 0x28
100003b0:	4628      	mov	r0, r5
100003b2:	f006 f8a9 	bl	10006508 <i2c_write_blocking>
100003b6:	2700      	movs	r7, #0
100003b8:	9700      	str	r7, [sp, #0]
100003ba:	2306      	movs	r3, #6
100003bc:	aa0e      	add	r2, sp, #56	; 0x38
100003be:	2128      	movs	r1, #40	; 0x28
100003c0:	4628      	mov	r0, r5
100003c2:	f006 f8ad 	bl	10006520 <i2c_read_blocking>
100003c6:	f89d 3039 	ldrb.w	r3, [sp, #57]	; 0x39
100003ca:	021b      	lsls	r3, r3, #8
100003cc:	b21b      	sxth	r3, r3
100003ce:	f89d 0038 	ldrb.w	r0, [sp, #56]	; 0x38
100003d2:	f89d 903b 	ldrb.w	r9, [sp, #59]	; 0x3b
100003d6:	ea4f 2909 	mov.w	r9, r9, lsl #8
100003da:	fa0f f989 	sxth.w	r9, r9
100003de:	f89d 203a 	ldrb.w	r2, [sp, #58]	; 0x3a
100003e2:	ea49 0902 	orr.w	r9, r9, r2
100003e6:	f89d 803d 	ldrb.w	r8, [sp, #61]	; 0x3d
100003ea:	ea4f 2808 	mov.w	r8, r8, lsl #8
100003ee:	fa0f f888 	sxth.w	r8, r8
100003f2:	f89d 203c 	ldrb.w	r2, [sp, #60]	; 0x3c
100003f6:	ea48 0802 	orr.w	r8, r8, r2
100003fa:	4318      	orrs	r0, r3
100003fc:	f001 fce4 	bl	10001dc8 <__wrap___aeabi_i2d>
10000400:	2200      	movs	r2, #0
10000402:	4ba9      	ldr	r3, [pc, #676]	; (100006a8 <main+0x358>)
10000404:	f001 fc84 	bl	10001d10 <__wrap___aeabi_ddiv>
10000408:	f001 fcd0 	bl	10001dac <__wrap___aeabi_d2f>
1000040c:	4604      	mov	r4, r0
1000040e:	4648      	mov	r0, r9
10000410:	f001 fcda 	bl	10001dc8 <__wrap___aeabi_i2d>
10000414:	2200      	movs	r2, #0
10000416:	4ba4      	ldr	r3, [pc, #656]	; (100006a8 <main+0x358>)
10000418:	f001 fc7a 	bl	10001d10 <__wrap___aeabi_ddiv>
1000041c:	f001 fcc6 	bl	10001dac <__wrap___aeabi_d2f>
10000420:	9005      	str	r0, [sp, #20]
10000422:	4640      	mov	r0, r8
10000424:	f001 fcd0 	bl	10001dc8 <__wrap___aeabi_i2d>
10000428:	2200      	movs	r2, #0
1000042a:	4b9f      	ldr	r3, [pc, #636]	; (100006a8 <main+0x358>)
1000042c:	f001 fc70 	bl	10001d10 <__wrap___aeabi_ddiv>
10000430:	f001 fcbc 	bl	10001dac <__wrap___aeabi_d2f>
10000434:	4680      	mov	r8, r0
10000436:	9600      	str	r6, [sp, #0]
10000438:	4633      	mov	r3, r6
1000043a:	f10d 023f 	add.w	r2, sp, #63	; 0x3f
1000043e:	2128      	movs	r1, #40	; 0x28
10000440:	4628      	mov	r0, r5
10000442:	f006 f861 	bl	10006508 <i2c_write_blocking>
10000446:	9700      	str	r7, [sp, #0]
10000448:	2306      	movs	r3, #6
1000044a:	aa10      	add	r2, sp, #64	; 0x40
1000044c:	2128      	movs	r1, #40	; 0x28
1000044e:	4628      	mov	r0, r5
10000450:	f006 f866 	bl	10006520 <i2c_read_blocking>
10000454:	f89d 3041 	ldrb.w	r3, [sp, #65]	; 0x41
10000458:	021b      	lsls	r3, r3, #8
1000045a:	b21b      	sxth	r3, r3
1000045c:	f89d 0040 	ldrb.w	r0, [sp, #64]	; 0x40
10000460:	f89d a043 	ldrb.w	sl, [sp, #67]	; 0x43
10000464:	ea4f 2a0a 	mov.w	sl, sl, lsl #8
10000468:	fa0f fa8a 	sxth.w	sl, sl
1000046c:	f89d 2042 	ldrb.w	r2, [sp, #66]	; 0x42
10000470:	ea4a 0a02 	orr.w	sl, sl, r2
10000474:	f89d 9045 	ldrb.w	r9, [sp, #69]	; 0x45
10000478:	ea4f 2909 	mov.w	r9, r9, lsl #8
1000047c:	fa0f f989 	sxth.w	r9, r9
10000480:	f89d 2044 	ldrb.w	r2, [sp, #68]	; 0x44
10000484:	ea49 0902 	orr.w	r9, r9, r2
10000488:	4318      	orrs	r0, r3
1000048a:	f001 fc9d 	bl	10001dc8 <__wrap___aeabi_i2d>
1000048e:	2200      	movs	r2, #0
10000490:	4b85      	ldr	r3, [pc, #532]	; (100006a8 <main+0x358>)
10000492:	f001 fc3d 	bl	10001d10 <__wrap___aeabi_ddiv>
10000496:	f001 fc89 	bl	10001dac <__wrap___aeabi_d2f>
1000049a:	9006      	str	r0, [sp, #24]
1000049c:	4650      	mov	r0, sl
1000049e:	f001 fc93 	bl	10001dc8 <__wrap___aeabi_i2d>
100004a2:	2200      	movs	r2, #0
100004a4:	4b80      	ldr	r3, [pc, #512]	; (100006a8 <main+0x358>)
100004a6:	f001 fc33 	bl	10001d10 <__wrap___aeabi_ddiv>
100004aa:	f001 fc7f 	bl	10001dac <__wrap___aeabi_d2f>
100004ae:	9007      	str	r0, [sp, #28]
100004b0:	4648      	mov	r0, r9
100004b2:	f001 fc89 	bl	10001dc8 <__wrap___aeabi_i2d>
100004b6:	2200      	movs	r2, #0
100004b8:	4b7b      	ldr	r3, [pc, #492]	; (100006a8 <main+0x358>)
100004ba:	f001 fc29 	bl	10001d10 <__wrap___aeabi_ddiv>
100004be:	f001 fc75 	bl	10001dac <__wrap___aeabi_d2f>
100004c2:	9008      	str	r0, [sp, #32]
100004c4:	9600      	str	r6, [sp, #0]
100004c6:	4633      	mov	r3, r6
100004c8:	f10d 024f 	add.w	r2, sp, #79	; 0x4f
100004cc:	2128      	movs	r1, #40	; 0x28
100004ce:	4628      	mov	r0, r5
100004d0:	f006 f81a 	bl	10006508 <i2c_write_blocking>
100004d4:	9700      	str	r7, [sp, #0]
100004d6:	2306      	movs	r3, #6
100004d8:	aa14      	add	r2, sp, #80	; 0x50
100004da:	2128      	movs	r1, #40	; 0x28
100004dc:	4628      	mov	r0, r5
100004de:	f006 f81f 	bl	10006520 <i2c_read_blocking>
100004e2:	f89d 3051 	ldrb.w	r3, [sp, #81]	; 0x51
100004e6:	021b      	lsls	r3, r3, #8
100004e8:	b21b      	sxth	r3, r3
100004ea:	f89d 0050 	ldrb.w	r0, [sp, #80]	; 0x50
100004ee:	f89d a053 	ldrb.w	sl, [sp, #83]	; 0x53
100004f2:	ea4f 2a0a 	mov.w	sl, sl, lsl #8
100004f6:	fa0f fa8a 	sxth.w	sl, sl
100004fa:	f89d 2052 	ldrb.w	r2, [sp, #82]	; 0x52
100004fe:	ea4a 0a02 	orr.w	sl, sl, r2
10000502:	f89d 9055 	ldrb.w	r9, [sp, #85]	; 0x55
10000506:	ea4f 2909 	mov.w	r9, r9, lsl #8
1000050a:	fa0f f989 	sxth.w	r9, r9
1000050e:	f89d 2054 	ldrb.w	r2, [sp, #84]	; 0x54
10000512:	ea49 0902 	orr.w	r9, r9, r2
10000516:	4318      	orrs	r0, r3
10000518:	f001 fc56 	bl	10001dc8 <__wrap___aeabi_i2d>
1000051c:	2200      	movs	r2, #0
1000051e:	4b63      	ldr	r3, [pc, #396]	; (100006ac <main+0x35c>)
10000520:	f001 fbd0 	bl	10001cc4 <__wrap___aeabi_dmul>
10000524:	f001 fc42 	bl	10001dac <__wrap___aeabi_d2f>
10000528:	9009      	str	r0, [sp, #36]	; 0x24
1000052a:	4650      	mov	r0, sl
1000052c:	f001 fc4c 	bl	10001dc8 <__wrap___aeabi_i2d>
10000530:	2200      	movs	r2, #0
10000532:	4b5e      	ldr	r3, [pc, #376]	; (100006ac <main+0x35c>)
10000534:	f001 fbc6 	bl	10001cc4 <__wrap___aeabi_dmul>
10000538:	f001 fc38 	bl	10001dac <__wrap___aeabi_d2f>
1000053c:	4683      	mov	fp, r0
1000053e:	4648      	mov	r0, r9
10000540:	f001 fc42 	bl	10001dc8 <__wrap___aeabi_i2d>
10000544:	2200      	movs	r2, #0
10000546:	4b59      	ldr	r3, [pc, #356]	; (100006ac <main+0x35c>)
10000548:	f001 fbbc 	bl	10001cc4 <__wrap___aeabi_dmul>
1000054c:	f001 fc2e 	bl	10001dac <__wrap___aeabi_d2f>
10000550:	4682      	mov	sl, r0
10000552:	9600      	str	r6, [sp, #0]
10000554:	4633      	mov	r3, r6
10000556:	f10d 0247 	add.w	r2, sp, #71	; 0x47
1000055a:	2128      	movs	r1, #40	; 0x28
1000055c:	4628      	mov	r0, r5
1000055e:	f005 ffd3 	bl	10006508 <i2c_write_blocking>
10000562:	9700      	str	r7, [sp, #0]
10000564:	2306      	movs	r3, #6
10000566:	aa12      	add	r2, sp, #72	; 0x48
10000568:	2128      	movs	r1, #40	; 0x28
1000056a:	4628      	mov	r0, r5
1000056c:	f005 ffd8 	bl	10006520 <i2c_read_blocking>
10000570:	f89d 3049 	ldrb.w	r3, [sp, #73]	; 0x49
10000574:	021b      	lsls	r3, r3, #8
10000576:	b21b      	sxth	r3, r3
10000578:	f89d 0048 	ldrb.w	r0, [sp, #72]	; 0x48
1000057c:	f89d 504b 	ldrb.w	r5, [sp, #75]	; 0x4b
10000580:	022d      	lsls	r5, r5, #8
10000582:	b22d      	sxth	r5, r5
10000584:	f89d 204a 	ldrb.w	r2, [sp, #74]	; 0x4a
10000588:	4315      	orrs	r5, r2
1000058a:	f89d 604d 	ldrb.w	r6, [sp, #77]	; 0x4d
1000058e:	0236      	lsls	r6, r6, #8
10000590:	b236      	sxth	r6, r6
10000592:	f89d 204c 	ldrb.w	r2, [sp, #76]	; 0x4c
10000596:	4316      	orrs	r6, r2
10000598:	4318      	orrs	r0, r3
1000059a:	f001 fc15 	bl	10001dc8 <__wrap___aeabi_i2d>
1000059e:	2200      	movs	r2, #0
100005a0:	4b43      	ldr	r3, [pc, #268]	; (100006b0 <main+0x360>)
100005a2:	f001 fbb5 	bl	10001d10 <__wrap___aeabi_ddiv>
100005a6:	f001 fc01 	bl	10001dac <__wrap___aeabi_d2f>
100005aa:	4607      	mov	r7, r0
100005ac:	4628      	mov	r0, r5
100005ae:	f001 fc0b 	bl	10001dc8 <__wrap___aeabi_i2d>
100005b2:	2200      	movs	r2, #0
100005b4:	4b3e      	ldr	r3, [pc, #248]	; (100006b0 <main+0x360>)
100005b6:	f001 fbab 	bl	10001d10 <__wrap___aeabi_ddiv>
100005ba:	f001 fbf7 	bl	10001dac <__wrap___aeabi_d2f>
100005be:	4605      	mov	r5, r0
100005c0:	4630      	mov	r0, r6
100005c2:	f001 fc01 	bl	10001dc8 <__wrap___aeabi_i2d>
100005c6:	2200      	movs	r2, #0
100005c8:	4b39      	ldr	r3, [pc, #228]	; (100006b0 <main+0x360>)
100005ca:	f001 fba1 	bl	10001d10 <__wrap___aeabi_ddiv>
100005ce:	f001 fbed 	bl	10001dac <__wrap___aeabi_d2f>
100005d2:	4606      	mov	r6, r0
100005d4:	4837      	ldr	r0, [pc, #220]	; (100006b4 <main+0x364>)
100005d6:	f002 fed5 	bl	10003384 <__wrap_printf>
100005da:	4620      	mov	r0, r4
100005dc:	f006 f8ac 	bl	10006738 <____aeabi_f2d_veneer>
100005e0:	e9cd 010a 	strd	r0, r1, [sp, #40]	; 0x28
100005e4:	4c34      	ldr	r4, [pc, #208]	; (100006b8 <main+0x368>)
100005e6:	4640      	mov	r0, r8
100005e8:	f006 f8a6 	bl	10006738 <____aeabi_f2d_veneer>
100005ec:	e9cd 0102 	strd	r0, r1, [sp, #8]
100005f0:	9805      	ldr	r0, [sp, #20]
100005f2:	f006 f8a1 	bl	10006738 <____aeabi_f2d_veneer>
100005f6:	e9cd 0100 	strd	r0, r1, [sp]
100005fa:	e9dd 230a 	ldrd	r2, r3, [sp, #40]	; 0x28
100005fe:	4620      	mov	r0, r4
10000600:	f002 fec0 	bl	10003384 <__wrap_printf>
10000604:	482d      	ldr	r0, [pc, #180]	; (100006bc <main+0x36c>)
10000606:	f002 febd 	bl	10003384 <__wrap_printf>
1000060a:	9806      	ldr	r0, [sp, #24]
1000060c:	f006 f894 	bl	10006738 <____aeabi_f2d_veneer>
10000610:	4680      	mov	r8, r0
10000612:	4689      	mov	r9, r1
10000614:	9808      	ldr	r0, [sp, #32]
10000616:	f006 f88f 	bl	10006738 <____aeabi_f2d_veneer>
1000061a:	e9cd 0102 	strd	r0, r1, [sp, #8]
1000061e:	9807      	ldr	r0, [sp, #28]
10000620:	f006 f88a 	bl	10006738 <____aeabi_f2d_veneer>
10000624:	e9cd 0100 	strd	r0, r1, [sp]
10000628:	4642      	mov	r2, r8
1000062a:	464b      	mov	r3, r9
1000062c:	4620      	mov	r0, r4
1000062e:	f002 fea9 	bl	10003384 <__wrap_printf>
10000632:	4823      	ldr	r0, [pc, #140]	; (100006c0 <main+0x370>)
10000634:	f002 fea6 	bl	10003384 <__wrap_printf>
10000638:	9809      	ldr	r0, [sp, #36]	; 0x24
1000063a:	f006 f87d 	bl	10006738 <____aeabi_f2d_veneer>
1000063e:	4680      	mov	r8, r0
10000640:	4689      	mov	r9, r1
10000642:	4650      	mov	r0, sl
10000644:	f006 f878 	bl	10006738 <____aeabi_f2d_veneer>
10000648:	e9cd 0102 	strd	r0, r1, [sp, #8]
1000064c:	4658      	mov	r0, fp
1000064e:	f006 f873 	bl	10006738 <____aeabi_f2d_veneer>
10000652:	e9cd 0100 	strd	r0, r1, [sp]
10000656:	4642      	mov	r2, r8
10000658:	464b      	mov	r3, r9
1000065a:	4620      	mov	r0, r4
1000065c:	f002 fe92 	bl	10003384 <__wrap_printf>
10000660:	4818      	ldr	r0, [pc, #96]	; (100006c4 <main+0x374>)
10000662:	f002 fe8f 	bl	10003384 <__wrap_printf>
10000666:	4638      	mov	r0, r7
10000668:	f006 f866 	bl	10006738 <____aeabi_f2d_veneer>
1000066c:	4680      	mov	r8, r0
1000066e:	4689      	mov	r9, r1
10000670:	4630      	mov	r0, r6
10000672:	f006 f861 	bl	10006738 <____aeabi_f2d_veneer>
10000676:	e9cd 0102 	strd	r0, r1, [sp, #8]
1000067a:	4628      	mov	r0, r5
1000067c:	f006 f85c 	bl	10006738 <____aeabi_f2d_veneer>
10000680:	e9cd 0100 	strd	r0, r1, [sp]
10000684:	4642      	mov	r2, r8
10000686:	464b      	mov	r3, r9
10000688:	4620      	mov	r0, r4
1000068a:	f002 fe7b 	bl	10003384 <__wrap_printf>
1000068e:	480e      	ldr	r0, [pc, #56]	; (100006c8 <main+0x378>)
10000690:	f002 fe4a 	bl	10003328 <__wrap_puts>
10000694:	f44f 70fa 	mov.w	r0, #500	; 0x1f4
10000698:	f000 ff10 	bl	100014bc <sleep_ms>
1000069c:	e681      	b.n	100003a2 <main+0x52>
1000069e:	bf00      	nop
100006a0:	00061a80 	.word	0x00061a80
100006a4:	2000122c 	.word	0x2000122c
100006a8:	40590000 	.word	0x40590000
100006ac:	3fb00000 	.word	0x3fb00000
100006b0:	408c2000 	.word	0x408c2000
100006b4:	10006858 	.word	0x10006858
100006b8:	10006860 	.word	0x10006860
100006bc:	10006884 	.word	0x10006884
100006c0:	1000688c 	.word	0x1000688c
100006c4:	10006894 	.word	0x10006894
100006c8:	10006880 	.word	0x10006880

100006cc <gpio_set_function>:
100006cc:	4b0c      	ldr	r3, [pc, #48]	; (10000700 <gpio_set_function+0x34>)
100006ce:	eb03 0280 	add.w	r2, r3, r0, lsl #2
100006d2:	f853 3020 	ldr.w	r3, [r3, r0, lsl #2]
100006d6:	f083 0340 	eor.w	r3, r3, #64	; 0x40
100006da:	f003 03c0 	and.w	r3, r3, #192	; 0xc0
100006de:	f502 5c80 	add.w	ip, r2, #4096	; 0x1000
100006e2:	f8cc 3000 	str.w	r3, [ip]
100006e6:	00c0      	lsls	r0, r0, #3
100006e8:	f100 4080 	add.w	r0, r0, #1073741824	; 0x40000000
100006ec:	f500 3020 	add.w	r0, r0, #163840	; 0x28000
100006f0:	6041      	str	r1, [r0, #4]
100006f2:	f502 5240 	add.w	r2, r2, #12288	; 0x3000
100006f6:	f44f 7380 	mov.w	r3, #256	; 0x100
100006fa:	6013      	str	r3, [r2, #0]
100006fc:	4770      	bx	lr
100006fe:	bf00      	nop
10000700:	40038004 	.word	0x40038004

10000704 <gpio_set_pulls>:
10000704:	b410      	push	{r4}
10000706:	4c0c      	ldr	r4, [pc, #48]	; (10000738 <gpio_set_pulls+0x34>)
10000708:	eb04 0c80 	add.w	ip, r4, r0, lsl #2
1000070c:	b179      	cbz	r1, 1000072e <gpio_set_pulls+0x2a>
1000070e:	2308      	movs	r3, #8
10000710:	b17a      	cbz	r2, 10000732 <gpio_set_pulls+0x2e>
10000712:	2204      	movs	r2, #4
10000714:	4313      	orrs	r3, r2
10000716:	f854 2020 	ldr.w	r2, [r4, r0, lsl #2]
1000071a:	4053      	eors	r3, r2
1000071c:	f003 030c 	and.w	r3, r3, #12
10000720:	f50c 5c80 	add.w	ip, ip, #4096	; 0x1000
10000724:	f8cc 3000 	str.w	r3, [ip]
10000728:	f85d 4b04 	ldr.w	r4, [sp], #4
1000072c:	4770      	bx	lr
1000072e:	2300      	movs	r3, #0
10000730:	e7ee      	b.n	10000710 <gpio_set_pulls+0xc>
10000732:	2200      	movs	r2, #0
10000734:	e7ee      	b.n	10000714 <gpio_set_pulls+0x10>
10000736:	bf00      	nop
10000738:	40038004 	.word	0x40038004

1000073c <panic>:
1000073c:	b40f      	push	{r0, r1, r2, r3}
1000073e:	b500      	push	{lr}
10000740:	b083      	sub	sp, #12
10000742:	9c04      	ldr	r4, [sp, #16]
10000744:	4807      	ldr	r0, [pc, #28]	; (10000764 <panic+0x28>)
10000746:	f002 fdef 	bl	10003328 <__wrap_puts>
1000074a:	b13c      	cbz	r4, 1000075c <panic+0x20>
1000074c:	a905      	add	r1, sp, #20
1000074e:	9101      	str	r1, [sp, #4]
10000750:	4620      	mov	r0, r4
10000752:	f002 fdf9 	bl	10003348 <__wrap_vprintf>
10000756:	4804      	ldr	r0, [pc, #16]	; (10000768 <panic+0x2c>)
10000758:	f002 fde6 	bl	10003328 <__wrap_puts>
1000075c:	2001      	movs	r0, #1
1000075e:	f002 fca9 	bl	100030b4 <_exit>
10000762:	bf00      	nop
10000764:	1000689c 	.word	0x1000689c
10000768:	10006880 	.word	0x10006880

1000076c <hw_claim_lock>:
1000076c:	f3ef 8010 	mrs	r0, PRIMASK
10000770:	b672      	cpsid	i
10000772:	4b06      	ldr	r3, [pc, #24]	; (1000078c <hw_claim_lock+0x20>)
10000774:	e8d3 1fcf 	ldaexb	r1, [r3]
10000778:	2201      	movs	r2, #1
1000077a:	2900      	cmp	r1, #0
1000077c:	d1fa      	bne.n	10000774 <hw_claim_lock+0x8>
1000077e:	e8c3 2f41 	strexb	r1, r2, [r3]
10000782:	2900      	cmp	r1, #0
10000784:	d1f6      	bne.n	10000774 <hw_claim_lock+0x8>
10000786:	f3bf 8f5f 	dmb	sy
1000078a:	4770      	bx	lr
1000078c:	200016d3 	.word	0x200016d3

10000790 <hw_claim_unlock>:
10000790:	2300      	movs	r3, #0
10000792:	4a03      	ldr	r2, [pc, #12]	; (100007a0 <hw_claim_unlock+0x10>)
10000794:	e8c2 3f8f 	stlb	r3, [r2]
10000798:	f380 8810 	msr	PRIMASK, r0
1000079c:	4770      	bx	lr
1000079e:	bf00      	nop
100007a0:	200016d3 	.word	0x200016d3

100007a4 <hw_claim_or_assert>:
100007a4:	b570      	push	{r4, r5, r6, lr}
100007a6:	4605      	mov	r5, r0
100007a8:	460c      	mov	r4, r1
100007aa:	4616      	mov	r6, r2
100007ac:	f7ff ffde 	bl	1000076c <hw_claim_lock>
100007b0:	08e2      	lsrs	r2, r4, #3
100007b2:	5ca9      	ldrb	r1, [r5, r2]
100007b4:	f004 0c07 	and.w	ip, r4, #7
100007b8:	2301      	movs	r3, #1
100007ba:	fa03 f30c 	lsl.w	r3, r3, ip
100007be:	4219      	tst	r1, r3
100007c0:	d105      	bne.n	100007ce <hw_claim_or_assert+0x2a>
100007c2:	b2db      	uxtb	r3, r3
100007c4:	430b      	orrs	r3, r1
100007c6:	54ab      	strb	r3, [r5, r2]
100007c8:	f7ff ffe2 	bl	10000790 <hw_claim_unlock>
100007cc:	bd70      	pop	{r4, r5, r6, pc}
100007ce:	4621      	mov	r1, r4
100007d0:	4630      	mov	r0, r6
100007d2:	f7ff ffb3 	bl	1000073c <panic>

100007d6 <hw_claim_unused_from_range>:
100007d6:	b5f8      	push	{r3, r4, r5, r6, r7, lr}
100007d8:	4606      	mov	r6, r0
100007da:	460d      	mov	r5, r1
100007dc:	4614      	mov	r4, r2
100007de:	461f      	mov	r7, r3
100007e0:	f7ff ffc4 	bl	1000076c <hw_claim_lock>
100007e4:	e000      	b.n	100007e8 <hw_claim_unused_from_range+0x12>
100007e6:	3401      	adds	r4, #1
100007e8:	42bc      	cmp	r4, r7
100007ea:	d80e      	bhi.n	1000080a <hw_claim_unused_from_range+0x34>
100007ec:	08e2      	lsrs	r2, r4, #3
100007ee:	eb06 0cd4 	add.w	ip, r6, r4, lsr #3
100007f2:	5cb3      	ldrb	r3, [r6, r2]
100007f4:	f004 0107 	and.w	r1, r4, #7
100007f8:	2201      	movs	r2, #1
100007fa:	408a      	lsls	r2, r1
100007fc:	4213      	tst	r3, r2
100007fe:	d1f2      	bne.n	100007e6 <hw_claim_unused_from_range+0x10>
10000800:	b2d2      	uxtb	r2, r2
10000802:	431a      	orrs	r2, r3
10000804:	f88c 2000 	strb.w	r2, [ip]
10000808:	e001      	b.n	1000080e <hw_claim_unused_from_range+0x38>
1000080a:	f04f 34ff 	mov.w	r4, #4294967295
1000080e:	f7ff ffbf 	bl	10000790 <hw_claim_unlock>
10000812:	2c00      	cmp	r4, #0
10000814:	db01      	blt.n	1000081a <hw_claim_unused_from_range+0x44>
10000816:	4620      	mov	r0, r4
10000818:	bdf8      	pop	{r3, r4, r5, r6, r7, pc}
1000081a:	2d00      	cmp	r5, #0
1000081c:	d0fb      	beq.n	10000816 <hw_claim_unused_from_range+0x40>
1000081e:	9806      	ldr	r0, [sp, #24]
10000820:	f7ff ff8c 	bl	1000073c <panic>

10000824 <next_striped_spin_lock_num>:
10000824:	4a05      	ldr	r2, [pc, #20]	; (1000083c <next_striped_spin_lock_num+0x18>)
10000826:	7810      	ldrb	r0, [r2, #0]
10000828:	1c43      	adds	r3, r0, #1
1000082a:	b2db      	uxtb	r3, r3
1000082c:	7013      	strb	r3, [r2, #0]
1000082e:	2b17      	cmp	r3, #23
10000830:	d902      	bls.n	10000838 <next_striped_spin_lock_num+0x14>
10000832:	4613      	mov	r3, r2
10000834:	2210      	movs	r2, #16
10000836:	701a      	strb	r2, [r3, #0]
10000838:	4770      	bx	lr
1000083a:	bf00      	nop
1000083c:	20001188 	.word	0x20001188

10000840 <spin_lock_claim_unused>:
10000840:	b500      	push	{lr}
10000842:	b083      	sub	sp, #12
10000844:	4601      	mov	r1, r0
10000846:	4b05      	ldr	r3, [pc, #20]	; (1000085c <spin_lock_claim_unused+0x1c>)
10000848:	9300      	str	r3, [sp, #0]
1000084a:	231f      	movs	r3, #31
1000084c:	2218      	movs	r2, #24
1000084e:	4804      	ldr	r0, [pc, #16]	; (10000860 <spin_lock_claim_unused+0x20>)
10000850:	f7ff ffc1 	bl	100007d6 <hw_claim_unused_from_range>
10000854:	b003      	add	sp, #12
10000856:	f85d fb04 	ldr.w	pc, [sp], #4
1000085a:	bf00      	nop
1000085c:	100068ac 	.word	0x100068ac
10000860:	20001b20 	.word	0x20001b20

10000864 <spinlock_set_extexclall>:
10000864:	f04f 22e0 	mov.w	r2, #3758153728	; 0xe000e000
10000868:	6893      	ldr	r3, [r2, #8]
1000086a:	f043 5300 	orr.w	r3, r3, #536870912	; 0x20000000
1000086e:	6093      	str	r3, [r2, #8]
10000870:	4770      	bx	lr
	...

10000874 <spin_locks_reset>:
10000874:	2300      	movs	r3, #0
10000876:	e005      	b.n	10000884 <spin_locks_reset+0x10>
10000878:	4a04      	ldr	r2, [pc, #16]	; (1000088c <spin_locks_reset+0x18>)
1000087a:	441a      	add	r2, r3
1000087c:	2100      	movs	r1, #0
1000087e:	e8c2 1f8f 	stlb	r1, [r2]
10000882:	3301      	adds	r3, #1
10000884:	2b1f      	cmp	r3, #31
10000886:	d9f7      	bls.n	10000878 <spin_locks_reset+0x4>
10000888:	4770      	bx	lr
1000088a:	bf00      	nop
1000088c:	200016c8 	.word	0x200016c8

10000890 <set_raw_irq_handler_and_unlock>:
10000890:	4b06      	ldr	r3, [pc, #24]	; (100008ac <set_raw_irq_handler_and_unlock+0x1c>)
10000892:	689b      	ldr	r3, [r3, #8]
10000894:	3010      	adds	r0, #16
10000896:	f843 1020 	str.w	r1, [r3, r0, lsl #2]
1000089a:	f3bf 8f5f 	dmb	sy
1000089e:	2300      	movs	r3, #0
100008a0:	4903      	ldr	r1, [pc, #12]	; (100008b0 <set_raw_irq_handler_and_unlock+0x20>)
100008a2:	e8c1 3f8f 	stlb	r3, [r1]
100008a6:	f382 8810 	msr	PRIMASK, r2
100008aa:	4770      	bx	lr
100008ac:	e000ed00 	.word	0xe000ed00
100008b0:	200016d1 	.word	0x200016d1

100008b4 <nvic_ipr0>:
100008b4:	4800      	ldr	r0, [pc, #0]	; (100008b8 <nvic_ipr0+0x4>)
100008b6:	4770      	bx	lr
100008b8:	e000e400 	.word	0xe000e400

100008bc <runtime_init_per_core_irq_priorities>:
100008bc:	b508      	push	{r3, lr}
100008be:	f7ff fff9 	bl	100008b4 <nvic_ipr0>
100008c2:	2300      	movs	r3, #0
100008c4:	e004      	b.n	100008d0 <runtime_init_per_core_irq_priorities+0x14>
100008c6:	f04f 3280 	mov.w	r2, #2155905152	; 0x80808080
100008ca:	f840 2b04 	str.w	r2, [r0], #4
100008ce:	3301      	adds	r3, #1
100008d0:	2b0c      	cmp	r3, #12
100008d2:	d9f8      	bls.n	100008c6 <runtime_init_per_core_irq_priorities+0xa>
100008d4:	bd08      	pop	{r3, pc}
	...

100008d8 <make_j_16>:
100008d8:	b508      	push	{r3, lr}
100008da:	1a09      	subs	r1, r1, r0
100008dc:	1f08      	subs	r0, r1, #4
100008de:	f201 71fc 	addw	r1, r1, #2044	; 0x7fc
100008e2:	f640 73fe 	movw	r3, #4094	; 0xffe
100008e6:	4299      	cmp	r1, r3
100008e8:	d807      	bhi.n	100008fa <make_j_16+0x22>
100008ea:	f010 0f01 	tst.w	r0, #1
100008ee:	d104      	bne.n	100008fa <make_j_16+0x22>
100008f0:	f3c0 004a 	ubfx	r0, r0, #1, #11
100008f4:	f440 4060 	orr.w	r0, r0, #57344	; 0xe000
100008f8:	bd08      	pop	{r3, pc}
100008fa:	4b03      	ldr	r3, [pc, #12]	; (10000908 <make_j_16+0x30>)
100008fc:	4a03      	ldr	r2, [pc, #12]	; (1000090c <make_j_16+0x34>)
100008fe:	f240 1101 	movw	r1, #257	; 0x101
10000902:	4803      	ldr	r0, [pc, #12]	; (10000910 <make_j_16+0x38>)
10000904:	f002 fbdc 	bl	100030c0 <__assert_func>
10000908:	100068c8 	.word	0x100068c8
1000090c:	10006ac4 	.word	0x10006ac4
10000910:	100068f8 	.word	0x100068f8

10000914 <irq_is_enabled>:
10000914:	0942      	lsrs	r2, r0, #5
10000916:	4b06      	ldr	r3, [pc, #24]	; (10000930 <irq_is_enabled+0x1c>)
10000918:	f853 2022 	ldr.w	r2, [r3, r2, lsl #2]
1000091c:	f000 001f 	and.w	r0, r0, #31
10000920:	2301      	movs	r3, #1
10000922:	fa03 f000 	lsl.w	r0, r3, r0
10000926:	4202      	tst	r2, r0
10000928:	bf14      	ite	ne
1000092a:	4618      	movne	r0, r3
1000092c:	2000      	moveq	r0, #0
1000092e:	4770      	bx	lr
10000930:	e000e100 	.word	0xe000e100

10000934 <irq_set_mask_n_enabled>:
10000934:	b13a      	cbz	r2, 10000946 <irq_set_mask_n_enabled+0x12>
10000936:	4b06      	ldr	r3, [pc, #24]	; (10000950 <irq_set_mask_n_enabled+0x1c>)
10000938:	f100 0260 	add.w	r2, r0, #96	; 0x60
1000093c:	f843 1022 	str.w	r1, [r3, r2, lsl #2]
10000940:	f843 1020 	str.w	r1, [r3, r0, lsl #2]
10000944:	4770      	bx	lr
10000946:	3020      	adds	r0, #32
10000948:	4b01      	ldr	r3, [pc, #4]	; (10000950 <irq_set_mask_n_enabled+0x1c>)
1000094a:	f843 1020 	str.w	r1, [r3, r0, lsl #2]
1000094e:	4770      	bx	lr
10000950:	e000e100 	.word	0xe000e100

10000954 <irq_set_enabled>:
10000954:	b508      	push	{r3, lr}
10000956:	460a      	mov	r2, r1
10000958:	f000 031f 	and.w	r3, r0, #31
1000095c:	2101      	movs	r1, #1
1000095e:	4099      	lsls	r1, r3
10000960:	0940      	lsrs	r0, r0, #5
10000962:	f7ff ffe7 	bl	10000934 <irq_set_mask_n_enabled>
10000966:	bd08      	pop	{r3, pc}

10000968 <irq_set_pending>:
10000968:	f000 021f 	and.w	r2, r0, #31
1000096c:	0940      	lsrs	r0, r0, #5
1000096e:	2301      	movs	r3, #1
10000970:	4093      	lsls	r3, r2
10000972:	3040      	adds	r0, #64	; 0x40
10000974:	4a01      	ldr	r2, [pc, #4]	; (1000097c <irq_set_pending+0x14>)
10000976:	f842 3020 	str.w	r3, [r2, r0, lsl #2]
1000097a:	4770      	bx	lr
1000097c:	e000e100 	.word	0xe000e100

10000980 <irq_get_vtable_handler>:
10000980:	4b02      	ldr	r3, [pc, #8]	; (1000098c <irq_get_vtable_handler+0xc>)
10000982:	689b      	ldr	r3, [r3, #8]
10000984:	3010      	adds	r0, #16
10000986:	f853 0020 	ldr.w	r0, [r3, r0, lsl #2]
1000098a:	4770      	bx	lr
1000098c:	e000ed00 	.word	0xe000ed00

10000990 <irq_has_shared_handler>:
10000990:	b508      	push	{r3, lr}
10000992:	f7ff fff5 	bl	10000980 <irq_get_vtable_handler>
10000996:	b128      	cbz	r0, 100009a4 <irq_has_shared_handler+0x14>
10000998:	4a04      	ldr	r2, [pc, #16]	; (100009ac <irq_has_shared_handler+0x1c>)
1000099a:	1a83      	subs	r3, r0, r2
1000099c:	2b2f      	cmp	r3, #47	; 0x2f
1000099e:	d803      	bhi.n	100009a8 <irq_has_shared_handler+0x18>
100009a0:	2001      	movs	r0, #1
100009a2:	bd08      	pop	{r3, pc}
100009a4:	2000      	movs	r0, #0
100009a6:	e7fc      	b.n	100009a2 <irq_has_shared_handler+0x12>
100009a8:	2000      	movs	r0, #0
100009aa:	e7fa      	b.n	100009a2 <irq_has_shared_handler+0x12>
100009ac:	2000118c 	.word	0x2000118c

100009b0 <irq_set_exclusive_handler>:
100009b0:	b570      	push	{r4, r5, r6, lr}
100009b2:	4605      	mov	r5, r0
100009b4:	460c      	mov	r4, r1
100009b6:	f3ef 8610 	mrs	r6, PRIMASK
100009ba:	b672      	cpsid	i
100009bc:	4b0f      	ldr	r3, [pc, #60]	; (100009fc <irq_set_exclusive_handler+0x4c>)
100009be:	e8d3 1fcf 	ldaexb	r1, [r3]
100009c2:	2201      	movs	r2, #1
100009c4:	2900      	cmp	r1, #0
100009c6:	d1fa      	bne.n	100009be <irq_set_exclusive_handler+0xe>
100009c8:	e8c3 2f41 	strexb	r1, r2, [r3]
100009cc:	2900      	cmp	r1, #0
100009ce:	d1f6      	bne.n	100009be <irq_set_exclusive_handler+0xe>
100009d0:	f3bf 8f5f 	dmb	sy
100009d4:	f7ff ffd4 	bl	10000980 <irq_get_vtable_handler>
100009d8:	4b09      	ldr	r3, [pc, #36]	; (10000a00 <irq_set_exclusive_handler+0x50>)
100009da:	4298      	cmp	r0, r3
100009dc:	d001      	beq.n	100009e2 <irq_set_exclusive_handler+0x32>
100009de:	42a0      	cmp	r0, r4
100009e0:	d105      	bne.n	100009ee <irq_set_exclusive_handler+0x3e>
100009e2:	4632      	mov	r2, r6
100009e4:	4621      	mov	r1, r4
100009e6:	4628      	mov	r0, r5
100009e8:	f7ff ff52 	bl	10000890 <set_raw_irq_handler_and_unlock>
100009ec:	bd70      	pop	{r4, r5, r6, pc}
100009ee:	4b05      	ldr	r3, [pc, #20]	; (10000a04 <irq_set_exclusive_handler+0x54>)
100009f0:	4a05      	ldr	r2, [pc, #20]	; (10000a08 <irq_set_exclusive_handler+0x58>)
100009f2:	21e1      	movs	r1, #225	; 0xe1
100009f4:	4805      	ldr	r0, [pc, #20]	; (10000a0c <irq_set_exclusive_handler+0x5c>)
100009f6:	f002 fb63 	bl	100030c0 <__assert_func>
100009fa:	bf00      	nop
100009fc:	200016d1 	.word	0x200016d1
10000a00:	1000011d 	.word	0x1000011d
10000a04:	1000692c 	.word	0x1000692c
10000a08:	10006af8 	.word	0x10006af8
10000a0c:	100068f8 	.word	0x100068f8

10000a10 <irq_add_shared_handler>:
10000a10:	e92d 4ff0 	stmdb	sp!, {r4, r5, r6, r7, r8, r9, sl, fp, lr}
10000a14:	b087      	sub	sp, #28
10000a16:	9100      	str	r1, [sp, #0]
10000a18:	4615      	mov	r5, r2
10000a1a:	f3ef 8a10 	mrs	sl, PRIMASK
10000a1e:	b672      	cpsid	i
10000a20:	4b86      	ldr	r3, [pc, #536]	; (10000c3c <irq_add_shared_handler+0x22c>)
10000a22:	e8d3 1fcf 	ldaexb	r1, [r3]
10000a26:	2201      	movs	r2, #1
10000a28:	2900      	cmp	r1, #0
10000a2a:	d1fa      	bne.n	10000a22 <irq_add_shared_handler+0x12>
10000a2c:	e8c3 2f41 	strexb	r1, r2, [r3]
10000a30:	2900      	cmp	r1, #0
10000a32:	d1f6      	bne.n	10000a22 <irq_add_shared_handler+0x12>
10000a34:	f3bf 8f5f 	dmb	sy
10000a38:	4b81      	ldr	r3, [pc, #516]	; (10000c40 <irq_add_shared_handler+0x230>)
10000a3a:	f993 4000 	ldrsb.w	r4, [r3]
10000a3e:	2c00      	cmp	r4, #0
10000a40:	db44      	blt.n	10000acc <irq_add_shared_handler+0xbc>
10000a42:	4680      	mov	r8, r0
10000a44:	eb04 0744 	add.w	r7, r4, r4, lsl #1
10000a48:	4b7e      	ldr	r3, [pc, #504]	; (10000c44 <irq_add_shared_handler+0x234>)
10000a4a:	eb03 0787 	add.w	r7, r3, r7, lsl #2
10000a4e:	f997 1006 	ldrsb.w	r1, [r7, #6]
10000a52:	4a7b      	ldr	r2, [pc, #492]	; (10000c40 <irq_add_shared_handler+0x230>)
10000a54:	7011      	strb	r1, [r2, #0]
10000a56:	4a7c      	ldr	r2, [pc, #496]	; (10000c48 <irq_add_shared_handler+0x238>)
10000a58:	6892      	ldr	r2, [r2, #8]
10000a5a:	f100 0110 	add.w	r1, r0, #16
10000a5e:	f852 9021 	ldr.w	r9, [r2, r1, lsl #2]
10000a62:	eba9 0203 	sub.w	r2, r9, r3
10000a66:	2a2f      	cmp	r2, #47	; 0x2f
10000a68:	d93e      	bls.n	10000ae8 <irq_add_shared_handler+0xd8>
10000a6a:	4b78      	ldr	r3, [pc, #480]	; (10000c4c <irq_add_shared_handler+0x23c>)
10000a6c:	4599      	cmp	r9, r3
10000a6e:	d134      	bne.n	10000ada <irq_add_shared_handler+0xca>
10000a70:	f44f 4321 	mov.w	r3, #41216	; 0xa100
10000a74:	f8ad 300c 	strh.w	r3, [sp, #12]
10000a78:	ea4f 0944 	mov.w	r9, r4, lsl #1
10000a7c:	eb04 0044 	add.w	r0, r4, r4, lsl #1
10000a80:	4e70      	ldr	r6, [pc, #448]	; (10000c44 <irq_add_shared_handler+0x234>)
10000a82:	eb06 0080 	add.w	r0, r6, r0, lsl #2
10000a86:	4972      	ldr	r1, [pc, #456]	; (10000c50 <irq_add_shared_handler+0x240>)
10000a88:	3002      	adds	r0, #2
10000a8a:	f7ff ff25 	bl	100008d8 <make_j_16>
10000a8e:	f8ad 000e 	strh.w	r0, [sp, #14]
10000a92:	f64b 5301 	movw	r3, #48385	; 0xbd01
10000a96:	f8ad 3010 	strh.w	r3, [sp, #16]
10000a9a:	23ff      	movs	r3, #255	; 0xff
10000a9c:	f88d 3012 	strb.w	r3, [sp, #18]
10000aa0:	f88d 5013 	strb.w	r5, [sp, #19]
10000aa4:	9b00      	ldr	r3, [sp, #0]
10000aa6:	9305      	str	r3, [sp, #20]
10000aa8:	444c      	add	r4, r9
10000aaa:	eb06 0484 	add.w	r4, r6, r4, lsl #2
10000aae:	ab06      	add	r3, sp, #24
10000ab0:	e913 0007 	ldmdb	r3, {r0, r1, r2}
10000ab4:	e884 0007 	stmia.w	r4, {r0, r1, r2}
10000ab8:	f047 0901 	orr.w	r9, r7, #1
10000abc:	4652      	mov	r2, sl
10000abe:	4649      	mov	r1, r9
10000ac0:	4640      	mov	r0, r8
10000ac2:	f7ff fee5 	bl	10000890 <set_raw_irq_handler_and_unlock>
10000ac6:	b007      	add	sp, #28
10000ac8:	e8bd 8ff0 	ldmia.w	sp!, {r4, r5, r6, r7, r8, r9, sl, fp, pc}
10000acc:	4b61      	ldr	r3, [pc, #388]	; (10000c54 <irq_add_shared_handler+0x244>)
10000ace:	4a62      	ldr	r2, [pc, #392]	; (10000c58 <irq_add_shared_handler+0x248>)
10000ad0:	f240 116d 	movw	r1, #365	; 0x16d
10000ad4:	4861      	ldr	r0, [pc, #388]	; (10000c5c <irq_add_shared_handler+0x24c>)
10000ad6:	f002 faf3 	bl	100030c0 <__assert_func>
10000ada:	4b61      	ldr	r3, [pc, #388]	; (10000c60 <irq_add_shared_handler+0x250>)
10000adc:	4a5e      	ldr	r2, [pc, #376]	; (10000c58 <irq_add_shared_handler+0x248>)
10000ade:	f44f 71ba 	mov.w	r1, #372	; 0x174
10000ae2:	485e      	ldr	r0, [pc, #376]	; (10000c5c <irq_add_shared_handler+0x24c>)
10000ae4:	f002 faec 	bl	100030c0 <__assert_func>
10000ae8:	f029 0b01 	bic.w	fp, r9, #1
10000aec:	ebab 0303 	sub.w	r3, fp, r3
10000af0:	4a5c      	ldr	r2, [pc, #368]	; (10000c64 <irq_add_shared_handler+0x254>)
10000af2:	fba2 1203 	umull	r1, r2, r2, r3
10000af6:	08d2      	lsrs	r2, r2, #3
10000af8:	eb02 0242 	add.w	r2, r2, r2, lsl #1
10000afc:	ebb3 0f82 	cmp.w	r3, r2, lsl #2
10000b00:	d10f      	bne.n	10000b22 <irq_add_shared_handler+0x112>
10000b02:	465b      	mov	r3, fp
10000b04:	2600      	movs	r6, #0
10000b06:	79da      	ldrb	r2, [r3, #7]
10000b08:	42aa      	cmp	r2, r5
10000b0a:	d912      	bls.n	10000b32 <irq_add_shared_handler+0x122>
10000b0c:	f993 2006 	ldrsb.w	r2, [r3, #6]
10000b10:	2a00      	cmp	r2, #0
10000b12:	db0d      	blt.n	10000b30 <irq_add_shared_handler+0x120>
10000b14:	eb02 0242 	add.w	r2, r2, r2, lsl #1
10000b18:	461e      	mov	r6, r3
10000b1a:	4b4a      	ldr	r3, [pc, #296]	; (10000c44 <irq_add_shared_handler+0x234>)
10000b1c:	eb03 0382 	add.w	r3, r3, r2, lsl #2
10000b20:	e7f1      	b.n	10000b06 <irq_add_shared_handler+0xf6>
10000b22:	4b51      	ldr	r3, [pc, #324]	; (10000c68 <irq_add_shared_handler+0x258>)
10000b24:	4a4c      	ldr	r2, [pc, #304]	; (10000c58 <irq_add_shared_handler+0x248>)
10000b26:	f240 1185 	movw	r1, #389	; 0x185
10000b2a:	484c      	ldr	r0, [pc, #304]	; (10000c5c <irq_add_shared_handler+0x24c>)
10000b2c:	f002 fac8 	bl	100030c0 <__assert_func>
10000b30:	461e      	mov	r6, r3
10000b32:	2e00      	cmp	r6, #0
10000b34:	d048      	beq.n	10000bc8 <irq_add_shared_handler+0x1b8>
10000b36:	f644 0301 	movw	r3, #18433	; 0x4801
10000b3a:	f8ad 300c 	strh.w	r3, [sp, #12]
10000b3e:	f44f 438f 	mov.w	r3, #18304	; 0x4780
10000b42:	f8ad 300e 	strh.w	r3, [sp, #14]
10000b46:	f996 b006 	ldrsb.w	fp, [r6, #6]
10000b4a:	f1bb 0f00 	cmp.w	fp, #0
10000b4e:	da1a      	bge.n	10000b86 <irq_add_shared_handler+0x176>
10000b50:	f64b 5001 	movw	r0, #48385	; 0xbd01
10000b54:	f8ad 0010 	strh.w	r0, [sp, #16]
10000b58:	f88d b012 	strb.w	fp, [sp, #18]
10000b5c:	f88d 5013 	strb.w	r5, [sp, #19]
10000b60:	9b00      	ldr	r3, [sp, #0]
10000b62:	9305      	str	r3, [sp, #20]
10000b64:	4639      	mov	r1, r7
10000b66:	1d30      	adds	r0, r6, #4
10000b68:	f7ff feb6 	bl	100008d8 <make_j_16>
10000b6c:	80b0      	strh	r0, [r6, #4]
10000b6e:	71b4      	strb	r4, [r6, #6]
10000b70:	eb04 0444 	add.w	r4, r4, r4, lsl #1
10000b74:	4b33      	ldr	r3, [pc, #204]	; (10000c44 <irq_add_shared_handler+0x234>)
10000b76:	eb03 0484 	add.w	r4, r3, r4, lsl #2
10000b7a:	ab06      	add	r3, sp, #24
10000b7c:	e913 0007 	ldmdb	r3, {r0, r1, r2}
10000b80:	e884 0007 	stmia.w	r4, {r0, r1, r2}
10000b84:	e79a      	b.n	10000abc <irq_add_shared_handler+0xac>
10000b86:	eb04 0044 	add.w	r0, r4, r4, lsl #1
10000b8a:	4b2e      	ldr	r3, [pc, #184]	; (10000c44 <irq_add_shared_handler+0x234>)
10000b8c:	eb03 0080 	add.w	r0, r3, r0, lsl #2
10000b90:	3004      	adds	r0, #4
10000b92:	1d31      	adds	r1, r6, #4
10000b94:	88b3      	ldrh	r3, [r6, #4]
10000b96:	0ada      	lsrs	r2, r3, #11
10000b98:	2a1c      	cmp	r2, #28
10000b9a:	d108      	bne.n	10000bae <irq_add_shared_handler+0x19e>
10000b9c:	055b      	lsls	r3, r3, #21
10000b9e:	d40d      	bmi.n	10000bbc <irq_add_shared_handler+0x1ac>
10000ba0:	155b      	asrs	r3, r3, #21
10000ba2:	3302      	adds	r3, #2
10000ba4:	eb01 0143 	add.w	r1, r1, r3, lsl #1
10000ba8:	f7ff fe96 	bl	100008d8 <make_j_16>
10000bac:	e7d2      	b.n	10000b54 <irq_add_shared_handler+0x144>
10000bae:	4b2f      	ldr	r3, [pc, #188]	; (10000c6c <irq_add_shared_handler+0x25c>)
10000bb0:	4a2f      	ldr	r2, [pc, #188]	; (10000c70 <irq_add_shared_handler+0x260>)
10000bb2:	f240 110f 	movw	r1, #271	; 0x10f
10000bb6:	4829      	ldr	r0, [pc, #164]	; (10000c5c <irq_add_shared_handler+0x24c>)
10000bb8:	f002 fa82 	bl	100030c0 <__assert_func>
10000bbc:	f503 13ff 	add.w	r3, r3, #2088960	; 0x1fe000
10000bc0:	f503 53ff 	add.w	r3, r3, #8160	; 0x1fe0
10000bc4:	331f      	adds	r3, #31
10000bc6:	e7eb      	b.n	10000ba0 <irq_add_shared_handler+0x190>
10000bc8:	f44f 4321 	mov.w	r3, #41216	; 0xa100
10000bcc:	f8ad 300c 	strh.w	r3, [sp, #12]
10000bd0:	0063      	lsls	r3, r4, #1
10000bd2:	9301      	str	r3, [sp, #4]
10000bd4:	eb04 0644 	add.w	r6, r4, r4, lsl #1
10000bd8:	f8df 9068 	ldr.w	r9, [pc, #104]	; 10000c44 <irq_add_shared_handler+0x234>
10000bdc:	eb09 0686 	add.w	r6, r9, r6, lsl #2
10000be0:	491b      	ldr	r1, [pc, #108]	; (10000c50 <irq_add_shared_handler+0x240>)
10000be2:	1cb0      	adds	r0, r6, #2
10000be4:	f7ff fe78 	bl	100008d8 <make_j_16>
10000be8:	f8ad 000e 	strh.w	r0, [sp, #14]
10000bec:	4659      	mov	r1, fp
10000bee:	1d30      	adds	r0, r6, #4
10000bf0:	f7ff fe72 	bl	100008d8 <make_j_16>
10000bf4:	f8ad 0010 	strh.w	r0, [sp, #16]
10000bf8:	f64a 23aa 	movw	r3, #43690	; 0xaaaa
10000bfc:	465a      	mov	r2, fp
10000bfe:	4649      	mov	r1, r9
10000c00:	1a52      	subs	r2, r2, r1
10000c02:	4152      	adcs	r2, r2
10000c04:	4353      	muls	r3, r2
10000c06:	0d1b      	lsrs	r3, r3, #20
10000c08:	f88d 3012 	strb.w	r3, [sp, #18]
10000c0c:	f88d 5013 	strb.w	r5, [sp, #19]
10000c10:	9a00      	ldr	r2, [sp, #0]
10000c12:	9205      	str	r2, [sp, #20]
10000c14:	9b01      	ldr	r3, [sp, #4]
10000c16:	441c      	add	r4, r3
10000c18:	eb09 0984 	add.w	r9, r9, r4, lsl #2
10000c1c:	ab06      	add	r3, sp, #24
10000c1e:	e913 0007 	ldmdb	r3, {r0, r1, r2}
10000c22:	e889 0007 	stmia.w	r9, {r0, r1, r2}
10000c26:	f644 0301 	movw	r3, #18433	; 0x4801
10000c2a:	f8ab 3000 	strh.w	r3, [fp]
10000c2e:	f44f 438f 	mov.w	r3, #18304	; 0x4780
10000c32:	f8ab 3002 	strh.w	r3, [fp, #2]
10000c36:	f047 0901 	orr.w	r9, r7, #1
10000c3a:	e73f      	b.n	10000abc <irq_add_shared_handler+0xac>
10000c3c:	200016d1 	.word	0x200016d1
10000c40:	20001fdc 	.word	0x20001fdc
10000c44:	2000118c 	.word	0x2000118c
10000c48:	e000ed00 	.word	0xe000ed00
10000c4c:	1000011d 	.word	0x1000011d
10000c50:	200011bc 	.word	0x200011bc
10000c54:	10006964 	.word	0x10006964
10000c58:	10006ae0 	.word	0x10006ae0
10000c5c:	100068f8 	.word	0x100068f8
10000c60:	1000698c 	.word	0x1000698c
10000c64:	aaaaaaab 	.word	0xaaaaaaab
10000c68:	100069b4 	.word	0x100069b4
10000c6c:	10006a38 	.word	0x10006a38
10000c70:	10006ad0 	.word	0x10006ad0

10000c74 <irq_add_tail_to_free_list>:
10000c74:	b538      	push	{r3, r4, r5, lr}
10000c76:	f040 0e01 	orr.w	lr, r0, #1
10000c7a:	4b34      	ldr	r3, [pc, #208]	; (10000d4c <irq_add_tail_to_free_list+0xd8>)
10000c7c:	ebae 0303 	sub.w	r3, lr, r3
10000c80:	2b2f      	cmp	r3, #47	; 0x2f
10000c82:	d831      	bhi.n	10000ce8 <irq_add_tail_to_free_list+0x74>
10000c84:	f3ef 8105 	mrs	r1, IPSR
10000c88:	b2c9      	uxtb	r1, r1
10000c8a:	2900      	cmp	r1, #0
10000c8c:	d033      	beq.n	10000cf6 <irq_add_tail_to_free_list+0x82>
10000c8e:	f3ef 8410 	mrs	r4, PRIMASK
10000c92:	b672      	cpsid	i
10000c94:	4b2e      	ldr	r3, [pc, #184]	; (10000d50 <irq_add_tail_to_free_list+0xdc>)
10000c96:	e8d3 5fcf 	ldaexb	r5, [r3]
10000c9a:	2201      	movs	r2, #1
10000c9c:	2d00      	cmp	r5, #0
10000c9e:	d1fa      	bne.n	10000c96 <irq_add_tail_to_free_list+0x22>
10000ca0:	e8c3 2f45 	strexb	r5, r2, [r3]
10000ca4:	2d00      	cmp	r5, #0
10000ca6:	d1f6      	bne.n	10000c96 <irq_add_tail_to_free_list+0x22>
10000ca8:	f3bf 8f5f 	dmb	sy
10000cac:	f64a 23aa 	movw	r3, #43690	; 0xaaaa
10000cb0:	4602      	mov	r2, r0
10000cb2:	4d26      	ldr	r5, [pc, #152]	; (10000d4c <irq_add_tail_to_free_list+0xd8>)
10000cb4:	1b52      	subs	r2, r2, r5
10000cb6:	4152      	adcs	r2, r2
10000cb8:	4353      	muls	r3, r2
10000cba:	0d1b      	lsrs	r3, r3, #20
10000cbc:	fa4f fc83 	sxtb.w	ip, r3
10000cc0:	4b24      	ldr	r3, [pc, #144]	; (10000d54 <irq_add_tail_to_free_list+0xe0>)
10000cc2:	689b      	ldr	r3, [r3, #8]
10000cc4:	f853 3021 	ldr.w	r3, [r3, r1, lsl #2]
10000cc8:	4573      	cmp	r3, lr
10000cca:	d01b      	beq.n	10000d04 <irq_add_tail_to_free_list+0x90>
10000ccc:	2300      	movs	r3, #0
10000cce:	2b03      	cmp	r3, #3
10000cd0:	d834      	bhi.n	10000d3c <irq_add_tail_to_free_list+0xc8>
10000cd2:	eb03 0243 	add.w	r2, r3, r3, lsl #1
10000cd6:	491d      	ldr	r1, [pc, #116]	; (10000d4c <irq_add_tail_to_free_list+0xd8>)
10000cd8:	eb01 0282 	add.w	r2, r1, r2, lsl #2
10000cdc:	f992 2006 	ldrsb.w	r2, [r2, #6]
10000ce0:	4562      	cmp	r2, ip
10000ce2:	d020      	beq.n	10000d26 <irq_add_tail_to_free_list+0xb2>
10000ce4:	3301      	adds	r3, #1
10000ce6:	e7f2      	b.n	10000cce <irq_add_tail_to_free_list+0x5a>
10000ce8:	4b1b      	ldr	r3, [pc, #108]	; (10000d58 <irq_add_tail_to_free_list+0xe4>)
10000cea:	4a1c      	ldr	r2, [pc, #112]	; (10000d5c <irq_add_tail_to_free_list+0xe8>)
10000cec:	f240 216e 	movw	r1, #622	; 0x26e
10000cf0:	481b      	ldr	r0, [pc, #108]	; (10000d60 <irq_add_tail_to_free_list+0xec>)
10000cf2:	f002 f9e5 	bl	100030c0 <__assert_func>
10000cf6:	4b1b      	ldr	r3, [pc, #108]	; (10000d64 <irq_add_tail_to_free_list+0xf0>)
10000cf8:	4a18      	ldr	r2, [pc, #96]	; (10000d5c <irq_add_tail_to_free_list+0xe8>)
10000cfa:	f240 2171 	movw	r1, #625	; 0x271
10000cfe:	4818      	ldr	r0, [pc, #96]	; (10000d60 <irq_add_tail_to_free_list+0xec>)
10000d00:	f002 f9de 	bl	100030c0 <__assert_func>
10000d04:	4b13      	ldr	r3, [pc, #76]	; (10000d54 <irq_add_tail_to_free_list+0xe0>)
10000d06:	689b      	ldr	r3, [r3, #8]
10000d08:	4a17      	ldr	r2, [pc, #92]	; (10000d68 <irq_add_tail_to_free_list+0xf4>)
10000d0a:	f843 2021 	str.w	r2, [r3, r1, lsl #2]
10000d0e:	4b17      	ldr	r3, [pc, #92]	; (10000d6c <irq_add_tail_to_free_list+0xf8>)
10000d10:	781a      	ldrb	r2, [r3, #0]
10000d12:	7182      	strb	r2, [r0, #6]
10000d14:	f883 c000 	strb.w	ip, [r3]
10000d18:	2300      	movs	r3, #0
10000d1a:	4a0d      	ldr	r2, [pc, #52]	; (10000d50 <irq_add_tail_to_free_list+0xdc>)
10000d1c:	e8c2 3f8f 	stlb	r3, [r2]
10000d20:	f384 8810 	msr	PRIMASK, r4
10000d24:	bd38      	pop	{r3, r4, r5, pc}
10000d26:	460a      	mov	r2, r1
10000d28:	eb03 0143 	add.w	r1, r3, r3, lsl #1
10000d2c:	eb02 0181 	add.w	r1, r2, r1, lsl #2
10000d30:	25ff      	movs	r5, #255	; 0xff
10000d32:	718d      	strb	r5, [r1, #6]
10000d34:	f64b 5201 	movw	r2, #48385	; 0xbd01
10000d38:	808a      	strh	r2, [r1, #4]
10000d3a:	e7e8      	b.n	10000d0e <irq_add_tail_to_free_list+0x9a>
10000d3c:	4b0c      	ldr	r3, [pc, #48]	; (10000d70 <irq_add_tail_to_free_list+0xfc>)
10000d3e:	4a07      	ldr	r2, [pc, #28]	; (10000d5c <irq_add_tail_to_free_list+0xe8>)
10000d40:	f240 2182 	movw	r1, #642	; 0x282
10000d44:	4806      	ldr	r0, [pc, #24]	; (10000d60 <irq_add_tail_to_free_list+0xec>)
10000d46:	f002 f9bb 	bl	100030c0 <__assert_func>
10000d4a:	bf00      	nop
10000d4c:	2000118c 	.word	0x2000118c
10000d50:	200016d1 	.word	0x200016d1
10000d54:	e000ed00 	.word	0xe000ed00
10000d58:	10006a50 	.word	0x10006a50
10000d5c:	10006aa8 	.word	0x10006aa8
10000d60:	100068f8 	.word	0x100068f8
10000d64:	10006a78 	.word	0x10006a78
10000d68:	1000011d 	.word	0x1000011d
10000d6c:	20001fdc 	.word	0x20001fdc
10000d70:	10006a84 	.word	0x10006a84

10000d74 <user_irq_claim_unused>:
10000d74:	b500      	push	{lr}
10000d76:	b083      	sub	sp, #12
10000d78:	4601      	mov	r1, r0
10000d7a:	4b07      	ldr	r3, [pc, #28]	; (10000d98 <user_irq_claim_unused+0x24>)
10000d7c:	9300      	str	r3, [sp, #0]
10000d7e:	2305      	movs	r3, #5
10000d80:	2200      	movs	r2, #0
10000d82:	4806      	ldr	r0, [pc, #24]	; (10000d9c <user_irq_claim_unused+0x28>)
10000d84:	f7ff fd27 	bl	100007d6 <hw_claim_unused_from_range>
10000d88:	2800      	cmp	r0, #0
10000d8a:	db01      	blt.n	10000d90 <user_irq_claim_unused+0x1c>
10000d8c:	f1c0 0033 	rsb	r0, r0, #51	; 0x33
10000d90:	b003      	add	sp, #12
10000d92:	f85d fb04 	ldr.w	pc, [sp], #4
10000d96:	bf00      	nop
10000d98:	10006a8c 	.word	0x10006a8c
10000d9c:	20001fe0 	.word	0x20001fe0

10000da0 <lock_init>:
10000da0:	4b01      	ldr	r3, [pc, #4]	; (10000da8 <lock_init+0x8>)
10000da2:	440b      	add	r3, r1
10000da4:	6003      	str	r3, [r0, #0]
10000da6:	4770      	bx	lr
10000da8:	200016c8 	.word	0x200016c8

10000dac <mutex_init>:
10000dac:	b510      	push	{r4, lr}
10000dae:	4604      	mov	r4, r0
10000db0:	f7ff fd38 	bl	10000824 <next_striped_spin_lock_num>
10000db4:	4601      	mov	r1, r0
10000db6:	4620      	mov	r0, r4
10000db8:	f7ff fff2 	bl	10000da0 <lock_init>
10000dbc:	23ff      	movs	r3, #255	; 0xff
10000dbe:	7123      	strb	r3, [r4, #4]
10000dc0:	f3bf 8f5f 	dmb	sy
10000dc4:	bd10      	pop	{r4, pc}

10000dc6 <recursive_mutex_init>:
10000dc6:	b510      	push	{r4, lr}
10000dc8:	4604      	mov	r4, r0
10000dca:	f7ff fd2b 	bl	10000824 <next_striped_spin_lock_num>
10000dce:	4601      	mov	r1, r0
10000dd0:	4620      	mov	r0, r4
10000dd2:	f7ff ffe5 	bl	10000da0 <lock_init>
10000dd6:	23ff      	movs	r3, #255	; 0xff
10000dd8:	7123      	strb	r3, [r4, #4]
10000dda:	2300      	movs	r3, #0
10000ddc:	7163      	strb	r3, [r4, #5]
10000dde:	f3bf 8f5f 	dmb	sy
10000de2:	bd10      	pop	{r4, pc}

10000de4 <runtime_init_mutex>:
10000de4:	b510      	push	{r4, lr}
10000de6:	4c0d      	ldr	r4, [pc, #52]	; (10000e1c <runtime_init_mutex+0x38>)
10000de8:	e009      	b.n	10000dfe <runtime_init_mutex+0x1a>
10000dea:	4b0d      	ldr	r3, [pc, #52]	; (10000e20 <runtime_init_mutex+0x3c>)
10000dec:	4a0d      	ldr	r2, [pc, #52]	; (10000e24 <runtime_init_mutex+0x40>)
10000dee:	211a      	movs	r1, #26
10000df0:	480d      	ldr	r0, [pc, #52]	; (10000e28 <runtime_init_mutex+0x44>)
10000df2:	f002 f965 	bl	100030c0 <__assert_func>
10000df6:	4620      	mov	r0, r4
10000df8:	f7ff ffd8 	bl	10000dac <mutex_init>
10000dfc:	3408      	adds	r4, #8
10000dfe:	4b0b      	ldr	r3, [pc, #44]	; (10000e2c <runtime_init_mutex+0x48>)
10000e00:	429c      	cmp	r4, r3
10000e02:	d209      	bcs.n	10000e18 <runtime_init_mutex+0x34>
10000e04:	6823      	ldr	r3, [r4, #0]
10000e06:	2b00      	cmp	r3, #0
10000e08:	d0f5      	beq.n	10000df6 <runtime_init_mutex+0x12>
10000e0a:	2b01      	cmp	r3, #1
10000e0c:	d1ed      	bne.n	10000dea <runtime_init_mutex+0x6>
10000e0e:	4620      	mov	r0, r4
10000e10:	f7ff ffd9 	bl	10000dc6 <recursive_mutex_init>
10000e14:	3408      	adds	r4, #8
10000e16:	e7f2      	b.n	10000dfe <runtime_init_mutex+0x1a>
10000e18:	bd10      	pop	{r4, pc}
10000e1a:	bf00      	nop
10000e1c:	20001234 	.word	0x20001234
10000e20:	10006b14 	.word	0x10006b14
10000e24:	10006bdc 	.word	0x10006bdc
10000e28:	10006b34 	.word	0x10006b34
10000e2c:	2000123c 	.word	0x2000123c

10000e30 <critical_section_init_with_lock_num>:
10000e30:	4b02      	ldr	r3, [pc, #8]	; (10000e3c <critical_section_init_with_lock_num+0xc>)
10000e32:	440b      	add	r3, r1
10000e34:	6003      	str	r3, [r0, #0]
10000e36:	f3bf 8f5f 	dmb	sy
10000e3a:	4770      	bx	lr
10000e3c:	200016c8 	.word	0x200016c8

10000e40 <critical_section_init>:
10000e40:	b510      	push	{r4, lr}
10000e42:	4604      	mov	r4, r0
10000e44:	2001      	movs	r0, #1
10000e46:	f7ff fcfb 	bl	10000840 <spin_lock_claim_unused>
10000e4a:	4601      	mov	r1, r0
10000e4c:	4620      	mov	r0, r4
10000e4e:	f7ff ffef 	bl	10000e30 <critical_section_init_with_lock_num>
10000e52:	bd10      	pop	{r4, pc}

10000e54 <make_alarm_id>:
10000e54:	ea41 4000 	orr.w	r0, r1, r0, lsl #16
10000e58:	4770      	bx	lr
	...

10000e5c <sleep_until_callback>:
10000e5c:	4b0d      	ldr	r3, [pc, #52]	; (10000e94 <sleep_until_callback+0x38>)
10000e5e:	681a      	ldr	r2, [r3, #0]
10000e60:	f3ef 8110 	mrs	r1, PRIMASK
10000e64:	b672      	cpsid	i
10000e66:	e8d2 cfcf 	ldaexb	ip, [r2]
10000e6a:	2001      	movs	r0, #1
10000e6c:	f1bc 0f00 	cmp.w	ip, #0
10000e70:	d1f9      	bne.n	10000e66 <sleep_until_callback+0xa>
10000e72:	e8c2 0f4c 	strexb	ip, r0, [r2]
10000e76:	f1bc 0f00 	cmp.w	ip, #0
10000e7a:	d1f4      	bne.n	10000e66 <sleep_until_callback+0xa>
10000e7c:	f3bf 8f5f 	dmb	sy
10000e80:	681a      	ldr	r2, [r3, #0]
10000e82:	2300      	movs	r3, #0
10000e84:	e8c2 3f8f 	stlb	r3, [r2]
10000e88:	f381 8810 	msr	PRIMASK, r1
10000e8c:	bf40      	sev
10000e8e:	2000      	movs	r0, #0
10000e90:	2100      	movs	r1, #0
10000e92:	4770      	bx	lr
10000e94:	20001fbc 	.word	0x20001fbc

10000e98 <alarm_pool_irq_handler>:
10000e98:	e92d 4ff0 	stmdb	sp!, {r4, r5, r6, r7, r8, r9, sl, fp, lr}
10000e9c:	b085      	sub	sp, #20
10000e9e:	f3ef 8705 	mrs	r7, IPSR
10000ea2:	b2ff      	uxtb	r7, r7
10000ea4:	3f10      	subs	r7, #16
10000ea6:	08bb      	lsrs	r3, r7, #2
10000ea8:	d015      	beq.n	10000ed6 <alarm_pool_irq_handler+0x3e>
10000eaa:	4d96      	ldr	r5, [pc, #600]	; (10001104 <alarm_pool_irq_handler+0x26c>)
10000eac:	f007 0703 	and.w	r7, r7, #3
10000eb0:	4b94      	ldr	r3, [pc, #592]	; (10001104 <alarm_pool_irq_handler+0x26c>)
10000eb2:	429d      	cmp	r5, r3
10000eb4:	bf14      	ite	ne
10000eb6:	2300      	movne	r3, #0
10000eb8:	2301      	moveq	r3, #1
10000eba:	eb07 0383 	add.w	r3, r7, r3, lsl #2
10000ebe:	4a92      	ldr	r2, [pc, #584]	; (10001108 <alarm_pool_irq_handler+0x270>)
10000ec0:	f852 4023 	ldr.w	r4, [r2, r3, lsl #2]
10000ec4:	7823      	ldrb	r3, [r4, #0]
10000ec6:	42bb      	cmp	r3, r7
10000ec8:	d107      	bne.n	10000eda <alarm_pool_irq_handler+0x42>
10000eca:	2201      	movs	r2, #1
10000ecc:	40ba      	lsls	r2, r7
10000ece:	f505 5341 	add.w	r3, r5, #12352	; 0x3040
10000ed2:	605a      	str	r2, [r3, #4]
10000ed4:	e12e      	b.n	10001134 <alarm_pool_irq_handler+0x29c>
10000ed6:	4d8d      	ldr	r5, [pc, #564]	; (1000110c <alarm_pool_irq_handler+0x274>)
10000ed8:	e7e8      	b.n	10000eac <alarm_pool_irq_handler+0x14>
10000eda:	4b8d      	ldr	r3, [pc, #564]	; (10001110 <alarm_pool_irq_handler+0x278>)
10000edc:	4a8d      	ldr	r2, [pc, #564]	; (10001114 <alarm_pool_irq_handler+0x27c>)
10000ede:	2192      	movs	r1, #146	; 0x92
10000ee0:	488d      	ldr	r0, [pc, #564]	; (10001118 <alarm_pool_irq_handler+0x280>)
10000ee2:	f002 f8ed 	bl	100030c0 <__assert_func>
10000ee6:	f8d4 a014 	ldr.w	sl, [r4, #20]
10000eea:	eb06 0846 	add.w	r8, r6, r6, lsl #1
10000eee:	ea4f 0bc8 	mov.w	fp, r8, lsl #3
10000ef2:	eb0a 08c8 	add.w	r8, sl, r8, lsl #3
10000ef6:	f8d8 3008 	ldr.w	r3, [r8, #8]
10000efa:	9301      	str	r3, [sp, #4]
10000efc:	f8d8 900c 	ldr.w	r9, [r8, #12]
10000f00:	4628      	mov	r0, r5
10000f02:	f000 fba7 	bl	10001654 <timer_time_us_64>
10000f06:	9b01      	ldr	r3, [sp, #4]
10000f08:	1ac0      	subs	r0, r0, r3
10000f0a:	eb61 0309 	sbc.w	r3, r1, r9
10000f0e:	2b00      	cmp	r3, #0
10000f10:	f2c0 8118 	blt.w	10001144 <alarm_pool_irq_handler+0x2ac>
10000f14:	f1b9 0f00 	cmp.w	r9, #0
10000f18:	db65      	blt.n	10000fe6 <alarm_pool_irq_handler+0x14e>
10000f1a:	f8d8 3010 	ldr.w	r3, [r8, #16]
10000f1e:	461a      	mov	r2, r3
10000f20:	9302      	str	r3, [sp, #8]
10000f22:	4b7e      	ldr	r3, [pc, #504]	; (1000111c <alarm_pool_irq_handler+0x284>)
10000f24:	429a      	cmp	r2, r3
10000f26:	d032      	beq.n	10000f8e <alarm_pool_irq_handler+0xf6>
10000f28:	f8b8 1002 	ldrh.w	r1, [r8, #2]
10000f2c:	b289      	uxth	r1, r1
10000f2e:	f9b4 0008 	ldrsh.w	r0, [r4, #8]
10000f32:	f7ff ff8f 	bl	10000e54 <make_alarm_id>
10000f36:	f8d8 1014 	ldr.w	r1, [r8, #20]
10000f3a:	9b02      	ldr	r3, [sp, #8]
10000f3c:	4798      	blx	r3
10000f3e:	9002      	str	r0, [sp, #8]
10000f40:	9103      	str	r1, [sp, #12]
10000f42:	9a02      	ldr	r2, [sp, #8]
10000f44:	9b03      	ldr	r3, [sp, #12]
10000f46:	ea52 0103 	orrs.w	r1, r2, r3
10000f4a:	d04c      	beq.n	10000fe6 <alarm_pool_irq_handler+0x14e>
10000f4c:	2b00      	cmp	r3, #0
10000f4e:	da2b      	bge.n	10000fa8 <alarm_pool_irq_handler+0x110>
10000f50:	9901      	ldr	r1, [sp, #4]
10000f52:	1a88      	subs	r0, r1, r2
10000f54:	eb69 0903 	sbc.w	r9, r9, r3
10000f58:	f8c8 0008 	str.w	r0, [r8, #8]
10000f5c:	f8c8 900c 	str.w	r9, [r8, #12]
10000f60:	f93a 300b 	ldrsh.w	r3, [sl, fp]
10000f64:	2b00      	cmp	r3, #0
10000f66:	f2c0 80ed 	blt.w	10001144 <alarm_pool_irq_handler+0x2ac>
10000f6a:	f8d4 8014 	ldr.w	r8, [r4, #20]
10000f6e:	eb03 0243 	add.w	r2, r3, r3, lsl #1
10000f72:	eb08 02c2 	add.w	r2, r8, r2, lsl #3
10000f76:	6891      	ldr	r1, [r2, #8]
10000f78:	68d2      	ldr	r2, [r2, #12]
10000f7a:	1a41      	subs	r1, r0, r1
10000f7c:	eb69 0202 	sbc.w	r2, r9, r2
10000f80:	2a00      	cmp	r2, #0
10000f82:	f2c0 80df 	blt.w	10001144 <alarm_pool_irq_handler+0x2ac>
10000f86:	46a6      	mov	lr, r4
10000f88:	f82e 3f08 	strh.w	r3, [lr, #8]!
10000f8c:	e016      	b.n	10000fbc <alarm_pool_irq_handler+0x124>
10000f8e:	f8d8 2014 	ldr.w	r2, [r8, #20]
10000f92:	6913      	ldr	r3, [r2, #16]
10000f94:	9202      	str	r2, [sp, #8]
10000f96:	4610      	mov	r0, r2
10000f98:	4798      	blx	r3
10000f9a:	b320      	cbz	r0, 10000fe6 <alarm_pool_irq_handler+0x14e>
10000f9c:	9a02      	ldr	r2, [sp, #8]
10000f9e:	6813      	ldr	r3, [r2, #0]
10000fa0:	9302      	str	r3, [sp, #8]
10000fa2:	6853      	ldr	r3, [r2, #4]
10000fa4:	9303      	str	r3, [sp, #12]
10000fa6:	e7cc      	b.n	10000f42 <alarm_pool_irq_handler+0xaa>
10000fa8:	4628      	mov	r0, r5
10000faa:	f000 fb53 	bl	10001654 <timer_time_us_64>
10000fae:	9b02      	ldr	r3, [sp, #8]
10000fb0:	1818      	adds	r0, r3, r0
10000fb2:	9b03      	ldr	r3, [sp, #12]
10000fb4:	eb43 0901 	adc.w	r9, r3, r1
10000fb8:	e7ce      	b.n	10000f58 <alarm_pool_irq_handler+0xc0>
10000fba:	469e      	mov	lr, r3
10000fbc:	f9be c000 	ldrsh.w	ip, [lr]
10000fc0:	f1bc 0f00 	cmp.w	ip, #0
10000fc4:	db0a      	blt.n	10000fdc <alarm_pool_irq_handler+0x144>
10000fc6:	eb0c 034c 	add.w	r3, ip, ip, lsl #1
10000fca:	eb08 03c3 	add.w	r3, r8, r3, lsl #3
10000fce:	6899      	ldr	r1, [r3, #8]
10000fd0:	68da      	ldr	r2, [r3, #12]
10000fd2:	1a41      	subs	r1, r0, r1
10000fd4:	eb69 0202 	sbc.w	r2, r9, r2
10000fd8:	2a00      	cmp	r2, #0
10000fda:	daee      	bge.n	10000fba <alarm_pool_irq_handler+0x122>
10000fdc:	f82a c00b 	strh.w	ip, [sl, fp]
10000fe0:	f8ae 6000 	strh.w	r6, [lr]
10000fe4:	e0ae      	b.n	10001144 <alarm_pool_irq_handler+0x2ac>
10000fe6:	f93a 300b 	ldrsh.w	r3, [sl, fp]
10000fea:	8123      	strh	r3, [r4, #8]
10000fec:	6923      	ldr	r3, [r4, #16]
10000fee:	f3ef 8210 	mrs	r2, PRIMASK
10000ff2:	b672      	cpsid	i
10000ff4:	e8d3 0fcf 	ldaexb	r0, [r3]
10000ff8:	2101      	movs	r1, #1
10000ffa:	2800      	cmp	r0, #0
10000ffc:	d1fa      	bne.n	10000ff4 <alarm_pool_irq_handler+0x15c>
10000ffe:	e8c3 1f40 	strexb	r0, r1, [r3]
10001002:	2800      	cmp	r0, #0
10001004:	d1f6      	bne.n	10000ff4 <alarm_pool_irq_handler+0x15c>
10001006:	f3bf 8f5f 	dmb	sy
1000100a:	f9b4 3002 	ldrsh.w	r3, [r4, #2]
1000100e:	f82a 300b 	strh.w	r3, [sl, fp]
10001012:	8066      	strh	r6, [r4, #2]
10001014:	6921      	ldr	r1, [r4, #16]
10001016:	2300      	movs	r3, #0
10001018:	e8c1 3f8f 	stlb	r3, [r1]
1000101c:	f382 8810 	msr	PRIMASK, r2
10001020:	e090      	b.n	10001144 <alarm_pool_irq_handler+0x2ac>
10001022:	6923      	ldr	r3, [r4, #16]
10001024:	f3ef 8210 	mrs	r2, PRIMASK
10001028:	b672      	cpsid	i
1000102a:	e8d3 0fcf 	ldaexb	r0, [r3]
1000102e:	2101      	movs	r1, #1
10001030:	2800      	cmp	r0, #0
10001032:	d1fa      	bne.n	1000102a <alarm_pool_irq_handler+0x192>
10001034:	e8c3 1f40 	strexb	r0, r1, [r3]
10001038:	2800      	cmp	r0, #0
1000103a:	d1f6      	bne.n	1000102a <alarm_pool_irq_handler+0x192>
1000103c:	f3bf 8f5f 	dmb	sy
10001040:	f8b4 9004 	ldrh.w	r9, [r4, #4]
10001044:	fa0f f989 	sxth.w	r9, r9
10001048:	f64f 73ff 	movw	r3, #65535	; 0xffff
1000104c:	80a3      	strh	r3, [r4, #4]
1000104e:	6921      	ldr	r1, [r4, #16]
10001050:	2300      	movs	r3, #0
10001052:	e8c1 3f8f 	stlb	r3, [r1]
10001056:	f382 8810 	msr	PRIMASK, r2
1000105a:	e016      	b.n	1000108a <alarm_pool_irq_handler+0x1f2>
1000105c:	461e      	mov	r6, r3
1000105e:	f9b6 2000 	ldrsh.w	r2, [r6]
10001062:	2a00      	cmp	r2, #0
10001064:	db0b      	blt.n	1000107e <alarm_pool_irq_handler+0x1e6>
10001066:	eb02 0342 	add.w	r3, r2, r2, lsl #1
1000106a:	eb0e 03c3 	add.w	r3, lr, r3, lsl #3
1000106e:	6898      	ldr	r0, [r3, #8]
10001070:	68d9      	ldr	r1, [r3, #12]
10001072:	ebbc 0000 	subs.w	r0, ip, r0
10001076:	eb68 0101 	sbc.w	r1, r8, r1
1000107a:	2900      	cmp	r1, #0
1000107c:	daee      	bge.n	1000105c <alarm_pool_irq_handler+0x1c4>
1000107e:	f8a6 9000 	strh.w	r9, [r6]
10001082:	f93e 900a 	ldrsh.w	r9, [lr, sl]
10001086:	f82e 200a 	strh.w	r2, [lr, sl]
1000108a:	f1b9 0f00 	cmp.w	r9, #0
1000108e:	db5e      	blt.n	1000114e <alarm_pool_irq_handler+0x2b6>
10001090:	f8d4 e014 	ldr.w	lr, [r4, #20]
10001094:	eb09 0349 	add.w	r3, r9, r9, lsl #1
10001098:	ea4f 0ac3 	mov.w	sl, r3, lsl #3
1000109c:	eb0e 03c3 	add.w	r3, lr, r3, lsl #3
100010a0:	f8d3 c008 	ldr.w	ip, [r3, #8]
100010a4:	f8d3 800c 	ldr.w	r8, [r3, #12]
100010a8:	f104 0608 	add.w	r6, r4, #8
100010ac:	e7d7      	b.n	1000105e <alarm_pool_irq_handler+0x1c6>
100010ae:	2300      	movs	r3, #0
100010b0:	71a3      	strb	r3, [r4, #6]
100010b2:	f104 0e08 	add.w	lr, r4, #8
100010b6:	f9b4 3008 	ldrsh.w	r3, [r4, #8]
100010ba:	e011      	b.n	100010e0 <alarm_pool_irq_handler+0x248>
100010bc:	f04f 38ff 	mov.w	r8, #4294967295
100010c0:	f04f 39ff 	mov.w	r9, #4294967295
100010c4:	e9c0 8902 	strd	r8, r9, [r0, #8]
100010c8:	f9b4 0008 	ldrsh.w	r0, [r4, #8]
100010cc:	4298      	cmp	r0, r3
100010ce:	d006      	beq.n	100010de <alarm_pool_irq_handler+0x246>
100010d0:	f8ae 2000 	strh.w	r2, [lr]
100010d4:	f9b4 0008 	ldrsh.w	r0, [r4, #8]
100010d8:	f821 000c 	strh.w	r0, [r1, ip]
100010dc:	8123      	strh	r3, [r4, #8]
100010de:	4613      	mov	r3, r2
100010e0:	f1b3 3fff 	cmp.w	r3, #4294967295
100010e4:	d036      	beq.n	10001154 <alarm_pool_irq_handler+0x2bc>
100010e6:	6961      	ldr	r1, [r4, #20]
100010e8:	eb03 0243 	add.w	r2, r3, r3, lsl #1
100010ec:	ea4f 0cc2 	mov.w	ip, r2, lsl #3
100010f0:	eb01 00c2 	add.w	r0, r1, r2, lsl #3
100010f4:	f931 2032 	ldrsh.w	r2, [r1, r2, lsl #3]
100010f8:	8846      	ldrh	r6, [r0, #2]
100010fa:	f416 4f00 	tst.w	r6, #32768	; 0x8000
100010fe:	d1dd      	bne.n	100010bc <alarm_pool_irq_handler+0x224>
10001100:	4686      	mov	lr, r0
10001102:	e7ec      	b.n	100010de <alarm_pool_irq_handler+0x246>
10001104:	400b8000 	.word	0x400b8000
10001108:	20001f94 	.word	0x20001f94
1000110c:	400b0000 	.word	0x400b0000
10001110:	10006bf0 	.word	0x10006bf0
10001114:	10006cd8 	.word	0x10006cd8
10001118:	10006c1c 	.word	0x10006c1c
1000111c:	10000e99 	.word	0x10000e99
10001120:	4628      	mov	r0, r5
10001122:	f000 fa97 	bl	10001654 <timer_time_us_64>
10001126:	1a36      	subs	r6, r6, r0
10001128:	eb68 0101 	sbc.w	r1, r8, r1
1000112c:	2e01      	cmp	r6, #1
1000112e:	f171 0300 	sbcs.w	r3, r1, #0
10001132:	da2d      	bge.n	10001190 <alarm_pool_irq_handler+0x2f8>
10001134:	2301      	movs	r3, #1
10001136:	40bb      	lsls	r3, r7
10001138:	63eb      	str	r3, [r5, #60]	; 0x3c
1000113a:	f9b4 6008 	ldrsh.w	r6, [r4, #8]
1000113e:	2e00      	cmp	r6, #0
10001140:	f6bf aed1 	bge.w	10000ee6 <alarm_pool_irq_handler+0x4e>
10001144:	88a3      	ldrh	r3, [r4, #4]
10001146:	f413 4f00 	tst.w	r3, #32768	; 0x8000
1000114a:	f43f af6a 	beq.w	10001022 <alarm_pool_irq_handler+0x18a>
1000114e:	79a3      	ldrb	r3, [r4, #6]
10001150:	2b00      	cmp	r3, #0
10001152:	d1ac      	bne.n	100010ae <alarm_pool_irq_handler+0x216>
10001154:	f9b4 3008 	ldrsh.w	r3, [r4, #8]
10001158:	2b00      	cmp	r3, #0
1000115a:	db19      	blt.n	10001190 <alarm_pool_irq_handler+0x2f8>
1000115c:	6962      	ldr	r2, [r4, #20]
1000115e:	eb03 0343 	add.w	r3, r3, r3, lsl #1
10001162:	eb02 03c3 	add.w	r3, r2, r3, lsl #3
10001166:	689e      	ldr	r6, [r3, #8]
10001168:	f8d3 800c 	ldr.w	r8, [r3, #12]
1000116c:	f1b8 3fff 	cmp.w	r8, #4294967295
10001170:	bf08      	it	eq
10001172:	f1b6 3fff 	cmpeq.w	r6, #4294967295
10001176:	d0d3      	beq.n	10001120 <alarm_pool_irq_handler+0x288>
10001178:	6aaa      	ldr	r2, [r5, #40]	; 0x28
1000117a:	1ab1      	subs	r1, r6, r2
1000117c:	1d3b      	adds	r3, r7, #4
1000117e:	f855 3023 	ldr.w	r3, [r5, r3, lsl #2]
10001182:	1a9b      	subs	r3, r3, r2
10001184:	4299      	cmp	r1, r3
10001186:	d2cb      	bcs.n	10001120 <alarm_pool_irq_handler+0x288>
10001188:	1d3b      	adds	r3, r7, #4
1000118a:	f845 6023 	str.w	r6, [r5, r3, lsl #2]
1000118e:	e7c7      	b.n	10001120 <alarm_pool_irq_handler+0x288>
10001190:	bf40      	sev
10001192:	b005      	add	sp, #20
10001194:	e8bd 8ff0 	ldmia.w	sp!, {r4, r5, r6, r7, r8, r9, sl, fp, pc}

10001198 <alarm_pool_post_alloc_init>:
10001198:	e92d 41f0 	stmdb	sp!, {r4, r5, r6, r7, r8, lr}
1000119c:	4604      	mov	r4, r0
1000119e:	4688      	mov	r8, r1
100011a0:	4617      	mov	r7, r2
100011a2:	461e      	mov	r6, r3
100011a4:	60c1      	str	r1, [r0, #12]
100011a6:	f7ff fb3d 	bl	10000824 <next_striped_spin_lock_num>
100011aa:	4b20      	ldr	r3, [pc, #128]	; (1000122c <alarm_pool_post_alloc_init+0x94>)
100011ac:	4403      	add	r3, r0
100011ae:	6123      	str	r3, [r4, #16]
100011b0:	7027      	strb	r7, [r4, #0]
100011b2:	b2b3      	uxth	r3, r6
100011b4:	8163      	strh	r3, [r4, #10]
100011b6:	f04f 4250 	mov.w	r2, #3489660928	; 0xd0000000
100011ba:	7812      	ldrb	r2, [r2, #0]
100011bc:	7062      	strb	r2, [r4, #1]
100011be:	f64f 72ff 	movw	r2, #65535	; 0xffff
100011c2:	8122      	strh	r2, [r4, #8]
100011c4:	80a2      	strh	r2, [r4, #4]
100011c6:	3b01      	subs	r3, #1
100011c8:	8063      	strh	r3, [r4, #2]
100011ca:	f04f 0c00 	mov.w	ip, #0
100011ce:	e008      	b.n	100011e2 <alarm_pool_post_alloc_init+0x4a>
100011d0:	f10c 35ff 	add.w	r5, ip, #4294967295
100011d4:	6960      	ldr	r0, [r4, #20]
100011d6:	eb0c 0e4c 	add.w	lr, ip, ip, lsl #1
100011da:	f820 503e 	strh.w	r5, [r0, lr, lsl #3]
100011de:	f10c 0c01 	add.w	ip, ip, #1
100011e2:	45b4      	cmp	ip, r6
100011e4:	d3f4      	bcc.n	100011d0 <alarm_pool_post_alloc_init+0x38>
100011e6:	4b12      	ldr	r3, [pc, #72]	; (10001230 <alarm_pool_post_alloc_init+0x98>)
100011e8:	4598      	cmp	r8, r3
100011ea:	bf0c      	ite	eq
100011ec:	2301      	moveq	r3, #1
100011ee:	2300      	movne	r3, #0
100011f0:	eb07 0383 	add.w	r3, r7, r3, lsl #2
100011f4:	4a0f      	ldr	r2, [pc, #60]	; (10001234 <alarm_pool_post_alloc_init+0x9c>)
100011f6:	f842 4023 	str.w	r4, [r2, r3, lsl #2]
100011fa:	d014      	beq.n	10001226 <alarm_pool_post_alloc_init+0x8e>
100011fc:	2400      	movs	r4, #0
100011fe:	443c      	add	r4, r7
10001200:	2501      	movs	r5, #1
10001202:	fa05 f707 	lsl.w	r7, r5, r7
10001206:	f8c8 7020 	str.w	r7, [r8, #32]
1000120a:	490b      	ldr	r1, [pc, #44]	; (10001238 <alarm_pool_post_alloc_init+0xa0>)
1000120c:	4620      	mov	r0, r4
1000120e:	f7ff fbcf 	bl	100009b0 <irq_set_exclusive_handler>
10001212:	4629      	mov	r1, r5
10001214:	4620      	mov	r0, r4
10001216:	f7ff fb9d 	bl	10000954 <irq_set_enabled>
1000121a:	f508 5801 	add.w	r8, r8, #8256	; 0x2040
1000121e:	f8c8 7000 	str.w	r7, [r8]
10001222:	e8bd 81f0 	ldmia.w	sp!, {r4, r5, r6, r7, r8, pc}
10001226:	2404      	movs	r4, #4
10001228:	e7e9      	b.n	100011fe <alarm_pool_post_alloc_init+0x66>
1000122a:	bf00      	nop
1000122c:	200016c8 	.word	0x200016c8
10001230:	400b8000 	.word	0x400b8000
10001234:	20001f94 	.word	0x20001f94
10001238:	10000e99 	.word	0x10000e99

1000123c <alarm_pool_get_default>:
1000123c:	b508      	push	{r3, lr}
1000123e:	4b05      	ldr	r3, [pc, #20]	; (10001254 <alarm_pool_get_default+0x18>)
10001240:	691b      	ldr	r3, [r3, #16]
10001242:	b10b      	cbz	r3, 10001248 <alarm_pool_get_default+0xc>
10001244:	4803      	ldr	r0, [pc, #12]	; (10001254 <alarm_pool_get_default+0x18>)
10001246:	bd08      	pop	{r3, pc}
10001248:	4b03      	ldr	r3, [pc, #12]	; (10001258 <alarm_pool_get_default+0x1c>)
1000124a:	4a04      	ldr	r2, [pc, #16]	; (1000125c <alarm_pool_get_default+0x20>)
1000124c:	2165      	movs	r1, #101	; 0x65
1000124e:	4804      	ldr	r0, [pc, #16]	; (10001260 <alarm_pool_get_default+0x24>)
10001250:	f001 ff36 	bl	100030c0 <__assert_func>
10001254:	200011d4 	.word	0x200011d4
10001258:	10006c4c 	.word	0x10006c4c
1000125c:	10006cc0 	.word	0x10006cc0
10001260:	10006c1c 	.word	0x10006c1c

10001264 <alarm_pool_add_alarm_at_force_in_context>:
10001264:	b5f8      	push	{r3, r4, r5, r6, r7, lr}
10001266:	4604      	mov	r4, r0
10001268:	469e      	mov	lr, r3
1000126a:	6901      	ldr	r1, [r0, #16]
1000126c:	f3ef 8c10 	mrs	ip, PRIMASK
10001270:	b672      	cpsid	i
10001272:	e8d1 5fcf 	ldaexb	r5, [r1]
10001276:	2001      	movs	r0, #1
10001278:	2d00      	cmp	r5, #0
1000127a:	d1fa      	bne.n	10001272 <alarm_pool_add_alarm_at_force_in_context+0xe>
1000127c:	e8c1 0f45 	strexb	r5, r0, [r1]
10001280:	2d00      	cmp	r5, #0
10001282:	d1f6      	bne.n	10001272 <alarm_pool_add_alarm_at_force_in_context+0xe>
10001284:	f3bf 8f5f 	dmb	sy
10001288:	f9b4 5002 	ldrsh.w	r5, [r4, #2]
1000128c:	6966      	ldr	r6, [r4, #20]
1000128e:	eb05 0045 	add.w	r0, r5, r5, lsl #1
10001292:	00c7      	lsls	r7, r0, #3
10001294:	eb06 00c0 	add.w	r0, r6, r0, lsl #3
10001298:	2d00      	cmp	r5, #0
1000129a:	db01      	blt.n	100012a0 <alarm_pool_add_alarm_at_force_in_context+0x3c>
1000129c:	5ff1      	ldrsh	r1, [r6, r7]
1000129e:	8061      	strh	r1, [r4, #2]
100012a0:	2100      	movs	r1, #0
100012a2:	6923      	ldr	r3, [r4, #16]
100012a4:	e8c3 1f8f 	stlb	r1, [r3]
100012a8:	f38c 8810 	msr	PRIMASK, ip
100012ac:	428d      	cmp	r5, r1
100012ae:	db33      	blt.n	10001318 <alarm_pool_add_alarm_at_force_in_context+0xb4>
100012b0:	9906      	ldr	r1, [sp, #24]
100012b2:	6101      	str	r1, [r0, #16]
100012b4:	9907      	ldr	r1, [sp, #28]
100012b6:	6141      	str	r1, [r0, #20]
100012b8:	6082      	str	r2, [r0, #8]
100012ba:	f8c0 e00c 	str.w	lr, [r0, #12]
100012be:	8841      	ldrh	r1, [r0, #2]
100012c0:	b289      	uxth	r1, r1
100012c2:	3101      	adds	r1, #1
100012c4:	f3c1 010e 	ubfx	r1, r1, #0, #15
100012c8:	b901      	cbnz	r1, 100012cc <alarm_pool_add_alarm_at_force_in_context+0x68>
100012ca:	2101      	movs	r1, #1
100012cc:	8041      	strh	r1, [r0, #2]
100012ce:	4628      	mov	r0, r5
100012d0:	f7ff fdc0 	bl	10000e54 <make_alarm_id>
100012d4:	6923      	ldr	r3, [r4, #16]
100012d6:	f3ef 8210 	mrs	r2, PRIMASK
100012da:	b672      	cpsid	i
100012dc:	e8d3 cfcf 	ldaexb	ip, [r3]
100012e0:	2101      	movs	r1, #1
100012e2:	f1bc 0f00 	cmp.w	ip, #0
100012e6:	d1f9      	bne.n	100012dc <alarm_pool_add_alarm_at_force_in_context+0x78>
100012e8:	e8c3 1f4c 	strexb	ip, r1, [r3]
100012ec:	f1bc 0f00 	cmp.w	ip, #0
100012f0:	d1f4      	bne.n	100012dc <alarm_pool_add_alarm_at_force_in_context+0x78>
100012f2:	f3bf 8f5f 	dmb	sy
100012f6:	88a3      	ldrh	r3, [r4, #4]
100012f8:	53f3      	strh	r3, [r6, r7]
100012fa:	80a5      	strh	r5, [r4, #4]
100012fc:	6921      	ldr	r1, [r4, #16]
100012fe:	2300      	movs	r3, #0
10001300:	e8c1 3f8f 	stlb	r3, [r1]
10001304:	f382 8810 	msr	PRIMASK, r2
10001308:	68e3      	ldr	r3, [r4, #12]
1000130a:	7821      	ldrb	r1, [r4, #0]
1000130c:	2201      	movs	r2, #1
1000130e:	408a      	lsls	r2, r1
10001310:	f503 5301 	add.w	r3, r3, #8256	; 0x2040
10001314:	605a      	str	r2, [r3, #4]
10001316:	bdf8      	pop	{r3, r4, r5, r6, r7, pc}
10001318:	f04f 30ff 	mov.w	r0, #4294967295
1000131c:	e7fb      	b.n	10001316 <alarm_pool_add_alarm_at_force_in_context+0xb2>

1000131e <alarm_pool_add_alarm_at>:
1000131e:	b570      	push	{r4, r5, r6, lr}
10001320:	b082      	sub	sp, #8
10001322:	4606      	mov	r6, r0
10001324:	4615      	mov	r5, r2
10001326:	461c      	mov	r4, r3
10001328:	f89d 3020 	ldrb.w	r3, [sp, #32]
1000132c:	b933      	cbnz	r3, 1000133c <alarm_pool_add_alarm_at+0x1e>
1000132e:	f000 f9a7 	bl	10001680 <time_us_64>
10001332:	4285      	cmp	r5, r0
10001334:	eb64 0101 	sbc.w	r1, r4, r1
10001338:	2900      	cmp	r1, #0
1000133a:	db0a      	blt.n	10001352 <alarm_pool_add_alarm_at+0x34>
1000133c:	9b07      	ldr	r3, [sp, #28]
1000133e:	9301      	str	r3, [sp, #4]
10001340:	9b06      	ldr	r3, [sp, #24]
10001342:	9300      	str	r3, [sp, #0]
10001344:	462a      	mov	r2, r5
10001346:	4623      	mov	r3, r4
10001348:	4630      	mov	r0, r6
1000134a:	f7ff ff8b 	bl	10001264 <alarm_pool_add_alarm_at_force_in_context>
1000134e:	b002      	add	sp, #8
10001350:	bd70      	pop	{r4, r5, r6, pc}
10001352:	2000      	movs	r0, #0
10001354:	e7fb      	b.n	1000134e <alarm_pool_add_alarm_at+0x30>

10001356 <alarm_pool_cancel_alarm>:
10001356:	4603      	mov	r3, r0
10001358:	8940      	ldrh	r0, [r0, #10]
1000135a:	ebb0 4f21 	cmp.w	r0, r1, asr #16
1000135e:	dd31      	ble.n	100013c4 <alarm_pool_cancel_alarm+0x6e>
10001360:	b510      	push	{r4, lr}
10001362:	140a      	asrs	r2, r1, #16
10001364:	6958      	ldr	r0, [r3, #20]
10001366:	eb02 0242 	add.w	r2, r2, r2, lsl #1
1000136a:	eb00 02c2 	add.w	r2, r0, r2, lsl #3
1000136e:	6918      	ldr	r0, [r3, #16]
10001370:	f3ef 8c10 	mrs	ip, PRIMASK
10001374:	b672      	cpsid	i
10001376:	e8d0 4fcf 	ldaexb	r4, [r0]
1000137a:	f05f 0e01 	movs.w	lr, #1
1000137e:	2c00      	cmp	r4, #0
10001380:	d1f9      	bne.n	10001376 <alarm_pool_cancel_alarm+0x20>
10001382:	e8c0 ef44 	strexb	r4, lr, [r0]
10001386:	2c00      	cmp	r4, #0
10001388:	d1f5      	bne.n	10001376 <alarm_pool_cancel_alarm+0x20>
1000138a:	f3bf 8f5f 	dmb	sy
1000138e:	8850      	ldrh	r0, [r2, #2]
10001390:	b280      	uxth	r0, r0
10001392:	b289      	uxth	r1, r1
10001394:	4288      	cmp	r0, r1
10001396:	d00f      	beq.n	100013b8 <alarm_pool_cancel_alarm+0x62>
10001398:	2000      	movs	r0, #0
1000139a:	6919      	ldr	r1, [r3, #16]
1000139c:	2200      	movs	r2, #0
1000139e:	e8c1 2f8f 	stlb	r2, [r1]
100013a2:	f38c 8810 	msr	PRIMASK, ip
100013a6:	b130      	cbz	r0, 100013b6 <alarm_pool_cancel_alarm+0x60>
100013a8:	68da      	ldr	r2, [r3, #12]
100013aa:	781b      	ldrb	r3, [r3, #0]
100013ac:	2101      	movs	r1, #1
100013ae:	4099      	lsls	r1, r3
100013b0:	f502 5301 	add.w	r3, r2, #8256	; 0x2040
100013b4:	6059      	str	r1, [r3, #4]
100013b6:	bd10      	pop	{r4, pc}
100013b8:	f440 4000 	orr.w	r0, r0, #32768	; 0x8000
100013bc:	8050      	strh	r0, [r2, #2]
100013be:	2001      	movs	r0, #1
100013c0:	7198      	strb	r0, [r3, #6]
100013c2:	e7ea      	b.n	1000139a <alarm_pool_cancel_alarm+0x44>
100013c4:	2000      	movs	r0, #0
100013c6:	4770      	bx	lr

100013c8 <alarm_pool_core_num>:
100013c8:	7840      	ldrb	r0, [r0, #1]
100013ca:	4770      	bx	lr

100013cc <sleep_until>:
100013cc:	b5f0      	push	{r4, r5, r6, r7, lr}
100013ce:	b085      	sub	sp, #20
100013d0:	f3ef 8305 	mrs	r3, IPSR
100013d4:	b2db      	uxtb	r3, r3
100013d6:	b9cb      	cbnz	r3, 1000140c <sleep_until+0x40>
100013d8:	4605      	mov	r5, r0
100013da:	460f      	mov	r7, r1
100013dc:	1f86      	subs	r6, r0, #6
100013de:	f141 34ff 	adc.w	r4, r1, #4294967295
100013e2:	42b0      	cmp	r0, r6
100013e4:	eb71 0304 	sbcs.w	r3, r1, r4
100013e8:	d201      	bcs.n	100013ee <sleep_until+0x22>
100013ea:	2600      	movs	r6, #0
100013ec:	4634      	mov	r4, r6
100013ee:	f000 f947 	bl	10001680 <time_us_64>
100013f2:	1a30      	subs	r0, r6, r0
100013f4:	eb64 0101 	sbc.w	r1, r4, r1
100013f8:	2801      	cmp	r0, #1
100013fa:	f171 0300 	sbcs.w	r3, r1, #0
100013fe:	da08      	bge.n	10001412 <sleep_until+0x46>
10001400:	4628      	mov	r0, r5
10001402:	4639      	mov	r1, r7
10001404:	f000 f944 	bl	10001690 <busy_wait_until>
10001408:	b005      	add	sp, #20
1000140a:	bdf0      	pop	{r4, r5, r6, r7, pc}
1000140c:	481e      	ldr	r0, [pc, #120]	; (10001488 <sleep_until+0xbc>)
1000140e:	f7ff f995 	bl	1000073c <panic>
10001412:	f7ff ff13 	bl	1000123c <alarm_pool_get_default>
10001416:	2300      	movs	r3, #0
10001418:	9302      	str	r3, [sp, #8]
1000141a:	9301      	str	r3, [sp, #4]
1000141c:	4b1b      	ldr	r3, [pc, #108]	; (1000148c <sleep_until+0xc0>)
1000141e:	9300      	str	r3, [sp, #0]
10001420:	4632      	mov	r2, r6
10001422:	4623      	mov	r3, r4
10001424:	f7ff ff7b 	bl	1000131e <alarm_pool_add_alarm_at>
10001428:	2800      	cmp	r0, #0
1000142a:	da1e      	bge.n	1000146a <sleep_until+0x9e>
1000142c:	e7e8      	b.n	10001400 <sleep_until+0x34>
1000142e:	2300      	movs	r3, #0
10001430:	e000      	b.n	10001434 <sleep_until+0x68>
10001432:	2300      	movs	r3, #0
10001434:	2b00      	cmp	r3, #0
10001436:	d1e3      	bne.n	10001400 <sleep_until+0x34>
10001438:	4b15      	ldr	r3, [pc, #84]	; (10001490 <sleep_until+0xc4>)
1000143a:	681a      	ldr	r2, [r3, #0]
1000143c:	f3ef 8110 	mrs	r1, PRIMASK
10001440:	b672      	cpsid	i
10001442:	e8d2 cfcf 	ldaexb	ip, [r2]
10001446:	2001      	movs	r0, #1
10001448:	f1bc 0f00 	cmp.w	ip, #0
1000144c:	d1f9      	bne.n	10001442 <sleep_until+0x76>
1000144e:	e8c2 0f4c 	strexb	ip, r0, [r2]
10001452:	f1bc 0f00 	cmp.w	ip, #0
10001456:	d1f4      	bne.n	10001442 <sleep_until+0x76>
10001458:	f3bf 8f5f 	dmb	sy
1000145c:	681a      	ldr	r2, [r3, #0]
1000145e:	2300      	movs	r3, #0
10001460:	e8c2 3f8f 	stlb	r3, [r2]
10001464:	f381 8810 	msr	PRIMASK, r1
10001468:	bf20      	wfe
1000146a:	4b0a      	ldr	r3, [pc, #40]	; (10001494 <sleep_until+0xc8>)
1000146c:	6a5b      	ldr	r3, [r3, #36]	; 0x24
1000146e:	429c      	cmp	r4, r3
10001470:	d8df      	bhi.n	10001432 <sleep_until+0x66>
10001472:	4908      	ldr	r1, [pc, #32]	; (10001494 <sleep_until+0xc8>)
10001474:	6a89      	ldr	r1, [r1, #40]	; 0x28
10001476:	42b1      	cmp	r1, r6
10001478:	d203      	bcs.n	10001482 <sleep_until+0xb6>
1000147a:	429c      	cmp	r4, r3
1000147c:	d0d7      	beq.n	1000142e <sleep_until+0x62>
1000147e:	2301      	movs	r3, #1
10001480:	e7d8      	b.n	10001434 <sleep_until+0x68>
10001482:	2301      	movs	r3, #1
10001484:	e7d6      	b.n	10001434 <sleep_until+0x68>
10001486:	bf00      	nop
10001488:	10006c70 	.word	0x10006c70
1000148c:	10000e5d 	.word	0x10000e5d
10001490:	20001fbc 	.word	0x20001fbc
10001494:	400b0000 	.word	0x400b0000

10001498 <sleep_us>:
10001498:	b538      	push	{r3, r4, r5, lr}
1000149a:	4604      	mov	r4, r0
1000149c:	460d      	mov	r5, r1
1000149e:	f000 f8ef 	bl	10001680 <time_us_64>
100014a2:	1820      	adds	r0, r4, r0
100014a4:	eb45 0101 	adc.w	r1, r5, r1
100014a8:	2900      	cmp	r1, #0
100014aa:	db02      	blt.n	100014b2 <sleep_us+0x1a>
100014ac:	f7ff ff8e 	bl	100013cc <sleep_until>
100014b0:	bd38      	pop	{r3, r4, r5, pc}
100014b2:	f04f 30ff 	mov.w	r0, #4294967295
100014b6:	f06f 4100 	mvn.w	r1, #2147483648	; 0x80000000
100014ba:	e7f7      	b.n	100014ac <sleep_us+0x14>

100014bc <sleep_ms>:
100014bc:	b508      	push	{r3, lr}
100014be:	0ec3      	lsrs	r3, r0, #27
100014c0:	0141      	lsls	r1, r0, #5
100014c2:	1a09      	subs	r1, r1, r0
100014c4:	f163 0300 	sbc.w	r3, r3, #0
100014c8:	009b      	lsls	r3, r3, #2
100014ca:	ea43 7391 	orr.w	r3, r3, r1, lsr #30
100014ce:	0089      	lsls	r1, r1, #2
100014d0:	1809      	adds	r1, r1, r0
100014d2:	f143 0300 	adc.w	r3, r3, #0
100014d6:	00db      	lsls	r3, r3, #3
100014d8:	00c8      	lsls	r0, r1, #3
100014da:	ea43 7151 	orr.w	r1, r3, r1, lsr #29
100014de:	f7ff ffdb 	bl	10001498 <sleep_us>
100014e2:	bd08      	pop	{r3, pc}

100014e4 <best_effort_wfe_or_timeout>:
100014e4:	b570      	push	{r4, r5, r6, lr}
100014e6:	b084      	sub	sp, #16
100014e8:	4605      	mov	r5, r0
100014ea:	460c      	mov	r4, r1
100014ec:	f3ef 8305 	mrs	r3, IPSR
100014f0:	b2db      	uxtb	r3, r3
100014f2:	b193      	cbz	r3, 1000151a <best_effort_wfe_or_timeout+0x36>
100014f4:	4b3d      	ldr	r3, [pc, #244]	; (100015ec <best_effort_wfe_or_timeout+0x108>)
100014f6:	6a5b      	ldr	r3, [r3, #36]	; 0x24
100014f8:	428b      	cmp	r3, r1
100014fa:	d309      	bcc.n	10001510 <best_effort_wfe_or_timeout+0x2c>
100014fc:	4a3b      	ldr	r2, [pc, #236]	; (100015ec <best_effort_wfe_or_timeout+0x108>)
100014fe:	6a92      	ldr	r2, [r2, #40]	; 0x28
10001500:	4282      	cmp	r2, r0
10001502:	d208      	bcs.n	10001516 <best_effort_wfe_or_timeout+0x32>
10001504:	428b      	cmp	r3, r1
10001506:	d001      	beq.n	1000150c <best_effort_wfe_or_timeout+0x28>
10001508:	2001      	movs	r0, #1
1000150a:	e002      	b.n	10001512 <best_effort_wfe_or_timeout+0x2e>
1000150c:	2000      	movs	r0, #0
1000150e:	e000      	b.n	10001512 <best_effort_wfe_or_timeout+0x2e>
10001510:	2000      	movs	r0, #0
10001512:	b004      	add	sp, #16
10001514:	bd70      	pop	{r4, r5, r6, pc}
10001516:	2001      	movs	r0, #1
10001518:	e7fb      	b.n	10001512 <best_effort_wfe_or_timeout+0x2e>
1000151a:	f7ff fe8f 	bl	1000123c <alarm_pool_get_default>
1000151e:	4603      	mov	r3, r0
10001520:	68c0      	ldr	r0, [r0, #12]
10001522:	781a      	ldrb	r2, [r3, #0]
10001524:	6a81      	ldr	r1, [r0, #40]	; 0x28
10001526:	1a6e      	subs	r6, r5, r1
10001528:	3204      	adds	r2, #4
1000152a:	f850 3022 	ldr.w	r3, [r0, r2, lsl #2]
1000152e:	1a5b      	subs	r3, r3, r1
10001530:	429e      	cmp	r6, r3
10001532:	d312      	bcc.n	1000155a <best_effort_wfe_or_timeout+0x76>
10001534:	bf20      	wfe
10001536:	4b2d      	ldr	r3, [pc, #180]	; (100015ec <best_effort_wfe_or_timeout+0x108>)
10001538:	6a5b      	ldr	r3, [r3, #36]	; 0x24
1000153a:	429c      	cmp	r4, r3
1000153c:	d809      	bhi.n	10001552 <best_effort_wfe_or_timeout+0x6e>
1000153e:	4a2b      	ldr	r2, [pc, #172]	; (100015ec <best_effort_wfe_or_timeout+0x108>)
10001540:	6a92      	ldr	r2, [r2, #40]	; 0x28
10001542:	4295      	cmp	r5, r2
10001544:	d907      	bls.n	10001556 <best_effort_wfe_or_timeout+0x72>
10001546:	429c      	cmp	r4, r3
10001548:	d001      	beq.n	1000154e <best_effort_wfe_or_timeout+0x6a>
1000154a:	2001      	movs	r0, #1
1000154c:	e7e1      	b.n	10001512 <best_effort_wfe_or_timeout+0x2e>
1000154e:	2000      	movs	r0, #0
10001550:	e7df      	b.n	10001512 <best_effort_wfe_or_timeout+0x2e>
10001552:	2000      	movs	r0, #0
10001554:	e7dd      	b.n	10001512 <best_effort_wfe_or_timeout+0x2e>
10001556:	2001      	movs	r0, #1
10001558:	e7db      	b.n	10001512 <best_effort_wfe_or_timeout+0x2e>
1000155a:	f7ff fe6f 	bl	1000123c <alarm_pool_get_default>
1000155e:	2300      	movs	r3, #0
10001560:	9302      	str	r3, [sp, #8]
10001562:	9301      	str	r3, [sp, #4]
10001564:	4b22      	ldr	r3, [pc, #136]	; (100015f0 <best_effort_wfe_or_timeout+0x10c>)
10001566:	9300      	str	r3, [sp, #0]
10001568:	462a      	mov	r2, r5
1000156a:	4623      	mov	r3, r4
1000156c:	f7ff fed7 	bl	1000131e <alarm_pool_add_alarm_at>
10001570:	1e06      	subs	r6, r0, #0
10001572:	dd0b      	ble.n	1000158c <best_effort_wfe_or_timeout+0xa8>
10001574:	4b1d      	ldr	r3, [pc, #116]	; (100015ec <best_effort_wfe_or_timeout+0x108>)
10001576:	6a5b      	ldr	r3, [r3, #36]	; 0x24
10001578:	429c      	cmp	r4, r3
1000157a:	d81b      	bhi.n	100015b4 <best_effort_wfe_or_timeout+0xd0>
1000157c:	4a1b      	ldr	r2, [pc, #108]	; (100015ec <best_effort_wfe_or_timeout+0x108>)
1000157e:	6a92      	ldr	r2, [r2, #40]	; 0x28
10001580:	4295      	cmp	r5, r2
10001582:	d92b      	bls.n	100015dc <best_effort_wfe_or_timeout+0xf8>
10001584:	429c      	cmp	r4, r3
10001586:	d013      	beq.n	100015b0 <best_effort_wfe_or_timeout+0xcc>
10001588:	2301      	movs	r3, #1
1000158a:	e014      	b.n	100015b6 <best_effort_wfe_or_timeout+0xd2>
1000158c:	4b17      	ldr	r3, [pc, #92]	; (100015ec <best_effort_wfe_or_timeout+0x108>)
1000158e:	6a5b      	ldr	r3, [r3, #36]	; 0x24
10001590:	429c      	cmp	r4, r3
10001592:	d809      	bhi.n	100015a8 <best_effort_wfe_or_timeout+0xc4>
10001594:	4a15      	ldr	r2, [pc, #84]	; (100015ec <best_effort_wfe_or_timeout+0x108>)
10001596:	6a92      	ldr	r2, [r2, #40]	; 0x28
10001598:	4295      	cmp	r5, r2
1000159a:	d907      	bls.n	100015ac <best_effort_wfe_or_timeout+0xc8>
1000159c:	429c      	cmp	r4, r3
1000159e:	d001      	beq.n	100015a4 <best_effort_wfe_or_timeout+0xc0>
100015a0:	2001      	movs	r0, #1
100015a2:	e7b6      	b.n	10001512 <best_effort_wfe_or_timeout+0x2e>
100015a4:	2000      	movs	r0, #0
100015a6:	e7b4      	b.n	10001512 <best_effort_wfe_or_timeout+0x2e>
100015a8:	2000      	movs	r0, #0
100015aa:	e7b2      	b.n	10001512 <best_effort_wfe_or_timeout+0x2e>
100015ac:	2001      	movs	r0, #1
100015ae:	e7b0      	b.n	10001512 <best_effort_wfe_or_timeout+0x2e>
100015b0:	2300      	movs	r3, #0
100015b2:	e000      	b.n	100015b6 <best_effort_wfe_or_timeout+0xd2>
100015b4:	2300      	movs	r3, #0
100015b6:	b903      	cbnz	r3, 100015ba <best_effort_wfe_or_timeout+0xd6>
100015b8:	bf20      	wfe
100015ba:	f7ff fe3f 	bl	1000123c <alarm_pool_get_default>
100015be:	4631      	mov	r1, r6
100015c0:	f7ff fec9 	bl	10001356 <alarm_pool_cancel_alarm>
100015c4:	4b09      	ldr	r3, [pc, #36]	; (100015ec <best_effort_wfe_or_timeout+0x108>)
100015c6:	6a5b      	ldr	r3, [r3, #36]	; 0x24
100015c8:	429c      	cmp	r4, r3
100015ca:	d80b      	bhi.n	100015e4 <best_effort_wfe_or_timeout+0x100>
100015cc:	4a07      	ldr	r2, [pc, #28]	; (100015ec <best_effort_wfe_or_timeout+0x108>)
100015ce:	6a92      	ldr	r2, [r2, #40]	; 0x28
100015d0:	4295      	cmp	r5, r2
100015d2:	d909      	bls.n	100015e8 <best_effort_wfe_or_timeout+0x104>
100015d4:	429c      	cmp	r4, r3
100015d6:	d003      	beq.n	100015e0 <best_effort_wfe_or_timeout+0xfc>
100015d8:	2001      	movs	r0, #1
100015da:	e79a      	b.n	10001512 <best_effort_wfe_or_timeout+0x2e>
100015dc:	2301      	movs	r3, #1
100015de:	e7ea      	b.n	100015b6 <best_effort_wfe_or_timeout+0xd2>
100015e0:	2000      	movs	r0, #0
100015e2:	e796      	b.n	10001512 <best_effort_wfe_or_timeout+0x2e>
100015e4:	2000      	movs	r0, #0
100015e6:	e794      	b.n	10001512 <best_effort_wfe_or_timeout+0x2e>
100015e8:	2001      	movs	r0, #1
100015ea:	e792      	b.n	10001512 <best_effort_wfe_or_timeout+0x2e>
100015ec:	400b0000 	.word	0x400b0000
100015f0:	10000e5d 	.word	0x10000e5d

100015f4 <alarm_pool_get_default_timer>:
100015f4:	4800      	ldr	r0, [pc, #0]	; (100015f8 <alarm_pool_get_default_timer+0x4>)
100015f6:	4770      	bx	lr
100015f8:	400b0000 	.word	0x400b0000

100015fc <runtime_init_default_alarm_pool>:
100015fc:	b510      	push	{r4, lr}
100015fe:	4b0a      	ldr	r3, [pc, #40]	; (10001628 <runtime_init_default_alarm_pool+0x2c>)
10001600:	691b      	ldr	r3, [r3, #16]
10001602:	b123      	cbz	r3, 1000160e <runtime_init_default_alarm_pool+0x12>
10001604:	210a      	movs	r1, #10
10001606:	4809      	ldr	r0, [pc, #36]	; (1000162c <runtime_init_default_alarm_pool+0x30>)
10001608:	f7ff fbca 	bl	10000da0 <lock_init>
1000160c:	bd10      	pop	{r4, pc}
1000160e:	f7ff fff1 	bl	100015f4 <alarm_pool_get_default_timer>
10001612:	4604      	mov	r4, r0
10001614:	2103      	movs	r1, #3
10001616:	f000 f80b 	bl	10001630 <timer_hardware_alarm_claim>
1000161a:	2310      	movs	r3, #16
1000161c:	2203      	movs	r2, #3
1000161e:	4621      	mov	r1, r4
10001620:	4801      	ldr	r0, [pc, #4]	; (10001628 <runtime_init_default_alarm_pool+0x2c>)
10001622:	f7ff fdb9 	bl	10001198 <alarm_pool_post_alloc_init>
10001626:	e7ed      	b.n	10001604 <runtime_init_default_alarm_pool+0x8>
10001628:	200011d4 	.word	0x200011d4
1000162c:	20001fbc 	.word	0x20001fbc

10001630 <timer_hardware_alarm_claim>:
10001630:	b510      	push	{r4, lr}
10001632:	4a05      	ldr	r2, [pc, #20]	; (10001648 <timer_hardware_alarm_claim+0x18>)
10001634:	4c05      	ldr	r4, [pc, #20]	; (1000164c <timer_hardware_alarm_claim+0x1c>)
10001636:	4b06      	ldr	r3, [pc, #24]	; (10001650 <timer_hardware_alarm_claim+0x20>)
10001638:	42a0      	cmp	r0, r4
1000163a:	bf14      	ite	ne
1000163c:	4618      	movne	r0, r3
1000163e:	1c58      	addeq	r0, r3, #1
10001640:	f7ff f8b0 	bl	100007a4 <hw_claim_or_assert>
10001644:	bd10      	pop	{r4, pc}
10001646:	bf00      	nop
10001648:	10006cf0 	.word	0x10006cf0
1000164c:	400b8000 	.word	0x400b8000
10001650:	20001b24 	.word	0x20001b24

10001654 <timer_time_us_64>:
10001654:	4602      	mov	r2, r0
10001656:	6a43      	ldr	r3, [r0, #36]	; 0x24
10001658:	6a90      	ldr	r0, [r2, #40]	; 0x28
1000165a:	4619      	mov	r1, r3
1000165c:	6a53      	ldr	r3, [r2, #36]	; 0x24
1000165e:	4299      	cmp	r1, r3
10001660:	d1fa      	bne.n	10001658 <timer_time_us_64+0x4>
10001662:	4770      	bx	lr

10001664 <timer_busy_wait_until>:
10001664:	6a41      	ldr	r1, [r0, #36]	; 0x24
10001666:	e000      	b.n	1000166a <timer_busy_wait_until+0x6>
10001668:	6a41      	ldr	r1, [r0, #36]	; 0x24
1000166a:	4299      	cmp	r1, r3
1000166c:	d3fc      	bcc.n	10001668 <timer_busy_wait_until+0x4>
1000166e:	e000      	b.n	10001672 <timer_busy_wait_until+0xe>
10001670:	6a41      	ldr	r1, [r0, #36]	; 0x24
10001672:	4299      	cmp	r1, r3
10001674:	d102      	bne.n	1000167c <timer_busy_wait_until+0x18>
10001676:	6a81      	ldr	r1, [r0, #40]	; 0x28
10001678:	4291      	cmp	r1, r2
1000167a:	d3f9      	bcc.n	10001670 <timer_busy_wait_until+0xc>
1000167c:	4770      	bx	lr
	...

10001680 <time_us_64>:
10001680:	b508      	push	{r3, lr}
10001682:	4802      	ldr	r0, [pc, #8]	; (1000168c <time_us_64+0xc>)
10001684:	f7ff ffe6 	bl	10001654 <timer_time_us_64>
10001688:	bd08      	pop	{r3, pc}
1000168a:	bf00      	nop
1000168c:	400b0000 	.word	0x400b0000

10001690 <busy_wait_until>:
10001690:	b508      	push	{r3, lr}
10001692:	4602      	mov	r2, r0
10001694:	460b      	mov	r3, r1
10001696:	4802      	ldr	r0, [pc, #8]	; (100016a0 <busy_wait_until+0x10>)
10001698:	f7ff ffe4 	bl	10001664 <timer_busy_wait_until>
1000169c:	bd08      	pop	{r3, pc}
1000169e:	bf00      	nop
100016a0:	400b0000 	.word	0x400b0000

100016a4 <clock_configure_internal>:
100016a4:	b570      	push	{r4, r5, r6, lr}
100016a6:	9d04      	ldr	r5, [sp, #16]
100016a8:	eb00 0c40 	add.w	ip, r0, r0, lsl #1
100016ac:	ea4f 0c8c 	mov.w	ip, ip, lsl #2
100016b0:	f10c 4c80 	add.w	ip, ip, #1073741824	; 0x40000000
100016b4:	f50c 3c80 	add.w	ip, ip, #65536	; 0x10000
100016b8:	f8dc 4004 	ldr.w	r4, [ip, #4]
100016bc:	42ac      	cmp	r4, r5
100016be:	d201      	bcs.n	100016c4 <clock_configure_internal+0x20>
100016c0:	f8cc 5004 	str.w	r5, [ip, #4]
100016c4:	f1a0 0e04 	sub.w	lr, r0, #4
100016c8:	fa5f fe8e 	uxtb.w	lr, lr
100016cc:	f1be 0f01 	cmp.w	lr, #1
100016d0:	d927      	bls.n	10001722 <clock_configure_internal+0x7e>
100016d2:	f50c 5440 	add.w	r4, ip, #12288	; 0x3000
100016d6:	f44f 6600 	mov.w	r6, #2048	; 0x800
100016da:	6026      	str	r6, [r4, #0]
100016dc:	4c1d      	ldr	r4, [pc, #116]	; (10001754 <clock_configure_internal+0xb0>)
100016de:	f854 6020 	ldr.w	r6, [r4, r0, lsl #2]
100016e2:	b13e      	cbz	r6, 100016f4 <clock_configure_internal+0x50>
100016e4:	6964      	ldr	r4, [r4, #20]
100016e6:	fbb4 f4f6 	udiv	r4, r4, r6
100016ea:	3401      	adds	r4, #1
100016ec:	eb04 0444 	add.w	r4, r4, r4, lsl #1
100016f0:	3c03      	subs	r4, #3
100016f2:	d2fd      	bcs.n	100016f0 <clock_configure_internal+0x4c>
100016f4:	f8dc 4000 	ldr.w	r4, [ip]
100016f8:	ea84 1242 	eor.w	r2, r4, r2, lsl #5
100016fc:	f002 02e0 	and.w	r2, r2, #224	; 0xe0
10001700:	f50c 5480 	add.w	r4, ip, #4096	; 0x1000
10001704:	6022      	str	r2, [r4, #0]
10001706:	f1be 0f01 	cmp.w	lr, #1
1000170a:	d916      	bls.n	1000173a <clock_configure_internal+0x96>
1000170c:	f50c 5200 	add.w	r2, ip, #8192	; 0x2000
10001710:	f44f 6100 	mov.w	r1, #2048	; 0x800
10001714:	6011      	str	r1, [r2, #0]
10001716:	f8cc 5004 	str.w	r5, [ip, #4]
1000171a:	4a0e      	ldr	r2, [pc, #56]	; (10001754 <clock_configure_internal+0xb0>)
1000171c:	f842 3020 	str.w	r3, [r2, r0, lsl #2]
10001720:	bd70      	pop	{r4, r5, r6, pc}
10001722:	2901      	cmp	r1, #1
10001724:	d1d5      	bne.n	100016d2 <clock_configure_internal+0x2e>
10001726:	f50c 5440 	add.w	r4, ip, #12288	; 0x3000
1000172a:	2603      	movs	r6, #3
1000172c:	6026      	str	r6, [r4, #0]
1000172e:	f8dc 4008 	ldr.w	r4, [ip, #8]
10001732:	f014 0f01 	tst.w	r4, #1
10001736:	d0fa      	beq.n	1000172e <clock_configure_internal+0x8a>
10001738:	e7dc      	b.n	100016f4 <clock_configure_internal+0x50>
1000173a:	f8dc 2000 	ldr.w	r2, [ip]
1000173e:	404a      	eors	r2, r1
10001740:	f002 0203 	and.w	r2, r2, #3
10001744:	6022      	str	r2, [r4, #0]
10001746:	f8dc 4008 	ldr.w	r4, [ip, #8]
1000174a:	2201      	movs	r2, #1
1000174c:	408a      	lsls	r2, r1
1000174e:	4214      	tst	r4, r2
10001750:	d0f9      	beq.n	10001746 <clock_configure_internal+0xa2>
10001752:	e7db      	b.n	1000170c <clock_configure_internal+0x68>
10001754:	20001b28 	.word	0x20001b28

10001758 <clock_configure_undivided>:
10001758:	b510      	push	{r4, lr}
1000175a:	b082      	sub	sp, #8
1000175c:	f44f 3480 	mov.w	r4, #65536	; 0x10000
10001760:	9400      	str	r4, [sp, #0]
10001762:	f7ff ff9f 	bl	100016a4 <clock_configure_internal>
10001766:	b002      	add	sp, #8
10001768:	bd10      	pop	{r4, pc}
	...

1000176c <clock_get_hz>:
1000176c:	4b01      	ldr	r3, [pc, #4]	; (10001774 <clock_get_hz+0x8>)
1000176e:	f853 0020 	ldr.w	r0, [r3, r0, lsl #2]
10001772:	4770      	bx	lr
10001774:	20001b28 	.word	0x20001b28

10001778 <pll_init>:
10001778:	b570      	push	{r4, r5, r6, lr}
1000177a:	9c04      	ldr	r4, [sp, #16]
1000177c:	4d34      	ldr	r5, [pc, #208]	; (10001850 <pll_init+0xd8>)
1000177e:	fbb5 fcf1 	udiv	ip, r5, r1
10001782:	4d34      	ldr	r5, [pc, #208]	; (10001854 <pll_init+0xdc>)
10001784:	4415      	add	r5, r2
10001786:	4e34      	ldr	r6, [pc, #208]	; (10001858 <pll_init+0xe0>)
10001788:	42b5      	cmp	r5, r6
1000178a:	d837      	bhi.n	100017fc <pll_init+0x84>
1000178c:	fbb2 f5fc 	udiv	r5, r2, ip
10001790:	f1a5 0e10 	sub.w	lr, r5, #16
10001794:	f5be 7f98 	cmp.w	lr, #304	; 0x130
10001798:	d836      	bhi.n	10001808 <pll_init+0x90>
1000179a:	f103 3eff 	add.w	lr, r3, #4294967295
1000179e:	f1be 0f06 	cmp.w	lr, #6
100017a2:	d837      	bhi.n	10001814 <pll_init+0x9c>
100017a4:	f104 3eff 	add.w	lr, r4, #4294967295
100017a8:	f1be 0f06 	cmp.w	lr, #6
100017ac:	d832      	bhi.n	10001814 <pll_init+0x9c>
100017ae:	ebbc 1f12 	cmp.w	ip, r2, lsr #4
100017b2:	d835      	bhi.n	10001820 <pll_init+0xa8>
100017b4:	0324      	lsls	r4, r4, #12
100017b6:	ea44 4403 	orr.w	r4, r4, r3, lsl #16
100017ba:	6803      	ldr	r3, [r0, #0]
100017bc:	2b00      	cmp	r3, #0
100017be:	db35      	blt.n	1000182c <pll_init+0xb4>
100017c0:	4b26      	ldr	r3, [pc, #152]	; (1000185c <pll_init+0xe4>)
100017c2:	4298      	cmp	r0, r3
100017c4:	d042      	beq.n	1000184c <pll_init+0xd4>
100017c6:	230e      	movs	r3, #14
100017c8:	2201      	movs	r2, #1
100017ca:	409a      	lsls	r2, r3
100017cc:	4b24      	ldr	r3, [pc, #144]	; (10001860 <pll_init+0xe8>)
100017ce:	601a      	str	r2, [r3, #0]
100017d0:	f503 5380 	add.w	r3, r3, #4096	; 0x1000
100017d4:	601a      	str	r2, [r3, #0]
100017d6:	4b23      	ldr	r3, [pc, #140]	; (10001864 <pll_init+0xec>)
100017d8:	689b      	ldr	r3, [r3, #8]
100017da:	ea32 0303 	bics.w	r3, r2, r3
100017de:	d1fa      	bne.n	100017d6 <pll_init+0x5e>
100017e0:	6001      	str	r1, [r0, #0]
100017e2:	6085      	str	r5, [r0, #8]
100017e4:	f500 5240 	add.w	r2, r0, #12288	; 0x3000
100017e8:	3204      	adds	r2, #4
100017ea:	2321      	movs	r3, #33	; 0x21
100017ec:	6013      	str	r3, [r2, #0]
100017ee:	6803      	ldr	r3, [r0, #0]
100017f0:	2b00      	cmp	r3, #0
100017f2:	dafc      	bge.n	100017ee <pll_init+0x76>
100017f4:	60c4      	str	r4, [r0, #12]
100017f6:	2308      	movs	r3, #8
100017f8:	6013      	str	r3, [r2, #0]
100017fa:	bd70      	pop	{r4, r5, r6, pc}
100017fc:	4b1a      	ldr	r3, [pc, #104]	; (10001868 <pll_init+0xf0>)
100017fe:	4a1b      	ldr	r2, [pc, #108]	; (1000186c <pll_init+0xf4>)
10001800:	2111      	movs	r1, #17
10001802:	481b      	ldr	r0, [pc, #108]	; (10001870 <pll_init+0xf8>)
10001804:	f001 fc5c 	bl	100030c0 <__assert_func>
10001808:	4b1a      	ldr	r3, [pc, #104]	; (10001874 <pll_init+0xfc>)
1000180a:	4a18      	ldr	r2, [pc, #96]	; (1000186c <pll_init+0xf4>)
1000180c:	2119      	movs	r1, #25
1000180e:	4818      	ldr	r0, [pc, #96]	; (10001870 <pll_init+0xf8>)
10001810:	f001 fc56 	bl	100030c0 <__assert_func>
10001814:	4b18      	ldr	r3, [pc, #96]	; (10001878 <pll_init+0x100>)
10001816:	4a15      	ldr	r2, [pc, #84]	; (1000186c <pll_init+0xf4>)
10001818:	211c      	movs	r1, #28
1000181a:	4815      	ldr	r0, [pc, #84]	; (10001870 <pll_init+0xf8>)
1000181c:	f001 fc50 	bl	100030c0 <__assert_func>
10001820:	4b16      	ldr	r3, [pc, #88]	; (1000187c <pll_init+0x104>)
10001822:	4a12      	ldr	r2, [pc, #72]	; (1000186c <pll_init+0xf4>)
10001824:	2123      	movs	r1, #35	; 0x23
10001826:	4812      	ldr	r0, [pc, #72]	; (10001870 <pll_init+0xf8>)
10001828:	f001 fc4a 	bl	100030c0 <__assert_func>
1000182c:	6803      	ldr	r3, [r0, #0]
1000182e:	f003 033f 	and.w	r3, r3, #63	; 0x3f
10001832:	428b      	cmp	r3, r1
10001834:	d1c4      	bne.n	100017c0 <pll_init+0x48>
10001836:	6883      	ldr	r3, [r0, #8]
10001838:	f3c3 030b 	ubfx	r3, r3, #0, #12
1000183c:	42ab      	cmp	r3, r5
1000183e:	d1bf      	bne.n	100017c0 <pll_init+0x48>
10001840:	68c3      	ldr	r3, [r0, #12]
10001842:	f403 23ee 	and.w	r3, r3, #487424	; 0x77000
10001846:	42a3      	cmp	r3, r4
10001848:	d1ba      	bne.n	100017c0 <pll_init+0x48>
1000184a:	e7d6      	b.n	100017fa <pll_init+0x82>
1000184c:	230f      	movs	r3, #15
1000184e:	e7bb      	b.n	100017c8 <pll_init+0x50>
10001850:	00b71b00 	.word	0x00b71b00
10001854:	d34be880 	.word	0xd34be880
10001858:	32a9f880 	.word	0x32a9f880
1000185c:	40058000 	.word	0x40058000
10001860:	40022000 	.word	0x40022000
10001864:	40020000 	.word	0x40020000
10001868:	10006d14 	.word	0x10006d14
1000186c:	10006e1c 	.word	0x10006e1c
10001870:	10006d64 	.word	0x10006d64
10001874:	10006d98 	.word	0x10006d98
10001878:	10006db4 	.word	0x10006db4
1000187c:	10006e00 	.word	0x10006e00

10001880 <watchdog_update>:
10001880:	4b02      	ldr	r3, [pc, #8]	; (1000188c <watchdog_update+0xc>)
10001882:	681a      	ldr	r2, [r3, #0]
10001884:	4b02      	ldr	r3, [pc, #8]	; (10001890 <watchdog_update+0x10>)
10001886:	605a      	str	r2, [r3, #4]
10001888:	4770      	bx	lr
1000188a:	bf00      	nop
1000188c:	20001f84 	.word	0x20001f84
10001890:	400d8000 	.word	0x400d8000

10001894 <_watchdog_enable>:
10001894:	b508      	push	{r3, lr}
10001896:	4b16      	ldr	r3, [pc, #88]	; (100018f0 <_watchdog_enable+0x5c>)
10001898:	f04f 4280 	mov.w	r2, #1073741824	; 0x40000000
1000189c:	601a      	str	r2, [r3, #0]
1000189e:	f5a3 2341 	sub.w	r3, r3, #790528	; 0xc1000
100018a2:	4a14      	ldr	r2, [pc, #80]	; (100018f4 <_watchdog_enable+0x60>)
100018a4:	609a      	str	r2, [r3, #8]
100018a6:	b151      	cbz	r1, 100018be <_watchdog_enable+0x2a>
100018a8:	f503 2340 	add.w	r3, r3, #786432	; 0xc0000
100018ac:	f04f 62e0 	mov.w	r2, #117440512	; 0x7000000
100018b0:	601a      	str	r2, [r3, #0]
100018b2:	b948      	cbnz	r0, 100018c8 <_watchdog_enable+0x34>
100018b4:	4b10      	ldr	r3, [pc, #64]	; (100018f8 <_watchdog_enable+0x64>)
100018b6:	f04f 4200 	mov.w	r2, #2147483648	; 0x80000000
100018ba:	601a      	str	r2, [r3, #0]
100018bc:	bd08      	pop	{r3, pc}
100018be:	4b0c      	ldr	r3, [pc, #48]	; (100018f0 <_watchdog_enable+0x5c>)
100018c0:	f04f 62e0 	mov.w	r2, #117440512	; 0x7000000
100018c4:	601a      	str	r2, [r3, #0]
100018c6:	e7f4      	b.n	100018b2 <_watchdog_enable+0x1e>
100018c8:	f44f 737a 	mov.w	r3, #1000	; 0x3e8
100018cc:	fb03 f000 	mul.w	r0, r3, r0
100018d0:	4b0a      	ldr	r3, [pc, #40]	; (100018fc <_watchdog_enable+0x68>)
100018d2:	6018      	str	r0, [r3, #0]
100018d4:	f1b0 7f80 	cmp.w	r0, #16777216	; 0x1000000
100018d8:	d302      	bcc.n	100018e0 <_watchdog_enable+0x4c>
100018da:	f06f 427f 	mvn.w	r2, #4278190080	; 0xff000000
100018de:	601a      	str	r2, [r3, #0]
100018e0:	f7ff ffce 	bl	10001880 <watchdog_update>
100018e4:	4b04      	ldr	r3, [pc, #16]	; (100018f8 <_watchdog_enable+0x64>)
100018e6:	f04f 4280 	mov.w	r2, #1073741824	; 0x40000000
100018ea:	601a      	str	r2, [r3, #0]
100018ec:	e7e6      	b.n	100018bc <_watchdog_enable+0x28>
100018ee:	bf00      	nop
100018f0:	400db000 	.word	0x400db000
100018f4:	01fffff3 	.word	0x01fffff3
100018f8:	400da000 	.word	0x400da000
100018fc:	20001f84 	.word	0x20001f84

10001900 <watchdog_reboot>:
10001900:	b510      	push	{r4, lr}
10001902:	4b0c      	ldr	r3, [pc, #48]	; (10001934 <watchdog_reboot+0x34>)
10001904:	f04f 4480 	mov.w	r4, #1073741824	; 0x40000000
10001908:	601c      	str	r4, [r3, #0]
1000190a:	b170      	cbz	r0, 1000192a <watchdog_reboot+0x2a>
1000190c:	f040 0301 	orr.w	r3, r0, #1
10001910:	4809      	ldr	r0, [pc, #36]	; (10001938 <watchdog_reboot+0x38>)
10001912:	4c0a      	ldr	r4, [pc, #40]	; (1000193c <watchdog_reboot+0x3c>)
10001914:	61c4      	str	r4, [r0, #28]
10001916:	4c0a      	ldr	r4, [pc, #40]	; (10001940 <watchdog_reboot+0x40>)
10001918:	405c      	eors	r4, r3
1000191a:	6204      	str	r4, [r0, #32]
1000191c:	6241      	str	r1, [r0, #36]	; 0x24
1000191e:	6283      	str	r3, [r0, #40]	; 0x28
10001920:	2100      	movs	r1, #0
10001922:	4610      	mov	r0, r2
10001924:	f7ff ffb6 	bl	10001894 <_watchdog_enable>
10001928:	bd10      	pop	{r4, pc}
1000192a:	4b03      	ldr	r3, [pc, #12]	; (10001938 <watchdog_reboot+0x38>)
1000192c:	2100      	movs	r1, #0
1000192e:	61d9      	str	r1, [r3, #28]
10001930:	e7f6      	b.n	10001920 <watchdog_reboot+0x20>
10001932:	bf00      	nop
10001934:	400db000 	.word	0x400db000
10001938:	400d8000 	.word	0x400d8000
1000193c:	b007c0d3 	.word	0xb007c0d3
10001940:	4ff83f2d 	.word	0x4ff83f2d

10001944 <tick_start>:
10001944:	4a05      	ldr	r2, [pc, #20]	; (1000195c <tick_start+0x18>)
10001946:	eb00 0340 	add.w	r3, r0, r0, lsl #1
1000194a:	eb02 0383 	add.w	r3, r2, r3, lsl #2
1000194e:	6059      	str	r1, [r3, #4]
10001950:	eb00 0040 	add.w	r0, r0, r0, lsl #1
10001954:	0080      	lsls	r0, r0, #2
10001956:	2301      	movs	r3, #1
10001958:	5013      	str	r3, [r2, r0]
1000195a:	4770      	bx	lr
1000195c:	40108000 	.word	0x40108000

10001960 <rom_reboot>:
10001960:	e92d 41f0 	stmdb	sp!, {r4, r5, r6, r7, r8, lr}
10001964:	4605      	mov	r5, r0
10001966:	460e      	mov	r6, r1
10001968:	4617      	mov	r7, r2
1000196a:	4698      	mov	r8, r3
1000196c:	2300      	movs	r3, #0
1000196e:	8adb      	ldrh	r3, [r3, #22]
10001970:	2200      	movs	r2, #0
10001972:	e842 f200 	tt	r2, r2
10001976:	f412 0f80 	tst.w	r2, #4194304	; 0x400000
1000197a:	d10b      	bne.n	10001994 <rom_reboot+0x34>
1000197c:	2110      	movs	r1, #16
1000197e:	f244 2052 	movw	r0, #16978	; 0x4252
10001982:	4798      	blx	r3
10001984:	4604      	mov	r4, r0
10001986:	4643      	mov	r3, r8
10001988:	463a      	mov	r2, r7
1000198a:	4631      	mov	r1, r6
1000198c:	4628      	mov	r0, r5
1000198e:	47a0      	blx	r4
10001990:	e8bd 81f0 	ldmia.w	sp!, {r4, r5, r6, r7, r8, pc}
10001994:	2104      	movs	r1, #4
10001996:	f244 2052 	movw	r0, #16978	; 0x4252
1000199a:	4798      	blx	r3
1000199c:	4604      	mov	r4, r0
1000199e:	e7f2      	b.n	10001986 <rom_reboot+0x26>

100019a0 <rom_func_lookup>:
100019a0:	b508      	push	{r3, lr}
100019a2:	2300      	movs	r3, #0
100019a4:	8adb      	ldrh	r3, [r3, #22]
100019a6:	2200      	movs	r2, #0
100019a8:	e842 f200 	tt	r2, r2
100019ac:	f412 0f80 	tst.w	r2, #4194304	; 0x400000
100019b0:	d102      	bne.n	100019b8 <rom_func_lookup+0x18>
100019b2:	2110      	movs	r1, #16
100019b4:	4798      	blx	r3
100019b6:	bd08      	pop	{r3, pc}
100019b8:	2104      	movs	r1, #4
100019ba:	4798      	blx	r3
100019bc:	e7fb      	b.n	100019b6 <rom_func_lookup+0x16>

100019be <rom_reset_usb_boot_extra>:
100019be:	b508      	push	{r3, lr}
100019c0:	1e03      	subs	r3, r0, #0
100019c2:	db06      	blt.n	100019d2 <rom_reset_usb_boot_extra+0x14>
100019c4:	f041 0020 	orr.w	r0, r1, #32
100019c8:	b112      	cbz	r2, 100019d0 <rom_reset_usb_boot_extra+0x12>
100019ca:	f041 0130 	orr.w	r1, r1, #48	; 0x30
100019ce:	e000      	b.n	100019d2 <rom_reset_usb_boot_extra+0x14>
100019d0:	4601      	mov	r1, r0
100019d2:	460a      	mov	r2, r1
100019d4:	210a      	movs	r1, #10
100019d6:	f44f 7081 	mov.w	r0, #258	; 0x102
100019da:	f7ff ffc1 	bl	10001960 <rom_reboot>
	...

100019e0 <runtime_init_bootrom_locking_enable>:
100019e0:	4b03      	ldr	r3, [pc, #12]	; (100019f0 <runtime_init_bootrom_locking_enable+0x10>)
100019e2:	f8d3 3828 	ldr.w	r3, [r3, #2088]	; 0x828
100019e6:	2b00      	cmp	r3, #0
100019e8:	d0fa      	beq.n	100019e0 <runtime_init_bootrom_locking_enable>
100019ea:	f3bf 8f5f 	dmb	sy
100019ee:	4770      	bx	lr
100019f0:	400e0000 	.word	0x400e0000

100019f4 <boot_locks_reset>:
100019f4:	2200      	movs	r2, #0
100019f6:	e007      	b.n	10001a08 <boot_locks_reset+0x14>
100019f8:	4b05      	ldr	r3, [pc, #20]	; (10001a10 <boot_locks_reset+0x1c>)
100019fa:	4413      	add	r3, r2
100019fc:	009b      	lsls	r3, r3, #2
100019fe:	f3bf 8f5f 	dmb	sy
10001a02:	2100      	movs	r1, #0
10001a04:	6019      	str	r1, [r3, #0]
10001a06:	3201      	adds	r2, #1
10001a08:	2a07      	cmp	r2, #7
10001a0a:	d9f5      	bls.n	100019f8 <boot_locks_reset+0x4>
10001a0c:	4770      	bx	lr
10001a0e:	bf00      	nop
10001a10:	10038203 	.word	0x10038203

10001a14 <runtime_init_boot_locks_reset>:
10001a14:	b508      	push	{r3, lr}
10001a16:	f7ff ffed 	bl	100019f4 <boot_locks_reset>
10001a1a:	bd08      	pop	{r3, pc}

10001a1c <xosc_init>:
10001a1c:	4b07      	ldr	r3, [pc, #28]	; (10001a3c <xosc_init+0x20>)
10001a1e:	f44f 622a 	mov.w	r2, #2720	; 0xaa0
10001a22:	601a      	str	r2, [r3, #0]
10001a24:	222f      	movs	r2, #47	; 0x2f
10001a26:	60da      	str	r2, [r3, #12]
10001a28:	f503 5300 	add.w	r3, r3, #8192	; 0x2000
10001a2c:	4a04      	ldr	r2, [pc, #16]	; (10001a40 <xosc_init+0x24>)
10001a2e:	601a      	str	r2, [r3, #0]
10001a30:	4b02      	ldr	r3, [pc, #8]	; (10001a3c <xosc_init+0x20>)
10001a32:	685b      	ldr	r3, [r3, #4]
10001a34:	2b00      	cmp	r3, #0
10001a36:	dafb      	bge.n	10001a30 <xosc_init+0x14>
10001a38:	4770      	bx	lr
10001a3a:	bf00      	nop
10001a3c:	40048000 	.word	0x40048000
10001a40:	00fab000 	.word	0x00fab000

10001a44 <runtime_run_initializers_from>:
10001a44:	b510      	push	{r4, lr}
10001a46:	4604      	mov	r4, r0
10001a48:	e002      	b.n	10001a50 <runtime_run_initializers_from+0xc>
10001a4a:	f854 3b04 	ldr.w	r3, [r4], #4
10001a4e:	4798      	blx	r3
10001a50:	4b01      	ldr	r3, [pc, #4]	; (10001a58 <runtime_run_initializers_from+0x14>)
10001a52:	429c      	cmp	r4, r3
10001a54:	d3f9      	bcc.n	10001a4a <runtime_run_initializers_from+0x6>
10001a56:	bd10      	pop	{r4, pc}
10001a58:	10006828 	.word	0x10006828

10001a5c <first_per_core_initializer>:
10001a5c:	4770      	bx	lr
	...

10001a60 <runtime_run_initializers>:
10001a60:	b508      	push	{r3, lr}
10001a62:	4802      	ldr	r0, [pc, #8]	; (10001a6c <runtime_run_initializers+0xc>)
10001a64:	f7ff ffee 	bl	10001a44 <runtime_run_initializers_from>
10001a68:	bd08      	pop	{r3, pc}
10001a6a:	bf00      	nop
10001a6c:	100067e8 	.word	0x100067e8

10001a70 <runtime_init_early_resets>:
10001a70:	4b06      	ldr	r3, [pc, #24]	; (10001a8c <runtime_init_early_resets+0x1c>)
10001a72:	4a07      	ldr	r2, [pc, #28]	; (10001a90 <runtime_init_early_resets+0x20>)
10001a74:	601a      	str	r2, [r3, #0]
10001a76:	f503 5380 	add.w	r3, r3, #4096	; 0x1000
10001a7a:	4a06      	ldr	r2, [pc, #24]	; (10001a94 <runtime_init_early_resets+0x24>)
10001a7c:	601a      	str	r2, [r3, #0]
10001a7e:	4b06      	ldr	r3, [pc, #24]	; (10001a98 <runtime_init_early_resets+0x28>)
10001a80:	689a      	ldr	r2, [r3, #8]
10001a82:	4b04      	ldr	r3, [pc, #16]	; (10001a94 <runtime_init_early_resets+0x24>)
10001a84:	4393      	bics	r3, r2
10001a86:	d1fa      	bne.n	10001a7e <runtime_init_early_resets+0xe>
10001a88:	4770      	bx	lr
10001a8a:	bf00      	nop
10001a8c:	40022000 	.word	0x40022000
10001a90:	efef3b7f 	.word	0xefef3b7f
10001a94:	03f3fff6 	.word	0x03f3fff6
10001a98:	40020000 	.word	0x40020000

10001a9c <runtime_init_usb_power_down>:
10001a9c:	4b05      	ldr	r3, [pc, #20]	; (10001ab4 <runtime_init_usb_power_down+0x18>)
10001a9e:	6cdb      	ldr	r3, [r3, #76]	; 0x4c
10001aa0:	f5b3 4f00 	cmp.w	r3, #32768	; 0x8000
10001aa4:	d000      	beq.n	10001aa8 <runtime_init_usb_power_down+0xc>
10001aa6:	4770      	bx	lr
10001aa8:	4b03      	ldr	r3, [pc, #12]	; (10001ab8 <runtime_init_usb_power_down+0x1c>)
10001aaa:	f44f 2280 	mov.w	r2, #262144	; 0x40000
10001aae:	64da      	str	r2, [r3, #76]	; 0x4c
10001ab0:	e7f9      	b.n	10001aa6 <runtime_init_usb_power_down+0xa>
10001ab2:	bf00      	nop
10001ab4:	50110000 	.word	0x50110000
10001ab8:	50112000 	.word	0x50112000

10001abc <runtime_init_per_core_enable_coprocessors>:
10001abc:	f04f 22e0 	mov.w	r2, #3758153728	; 0xe000e000
10001ac0:	f8d2 1d88 	ldr.w	r1, [r2, #3464]	; 0xd88
10001ac4:	4b03      	ldr	r3, [pc, #12]	; (10001ad4 <runtime_init_per_core_enable_coprocessors+0x18>)
10001ac6:	430b      	orrs	r3, r1
10001ac8:	f8c2 3d88 	str.w	r3, [r2, #3464]	; 0xd88
10001acc:	ee10 0430 	dcp_rcmp r0
10001ad0:	4770      	bx	lr
10001ad2:	bf00      	nop
10001ad4:	00300303 	.word	0x00300303

10001ad8 <runtime_init_post_clock_resets>:
10001ad8:	4b05      	ldr	r3, [pc, #20]	; (10001af0 <runtime_init_post_clock_resets+0x18>)
10001ada:	f06f 4260 	mvn.w	r2, #3758096384	; 0xe0000000
10001ade:	601a      	str	r2, [r3, #0]
10001ae0:	4b04      	ldr	r3, [pc, #16]	; (10001af4 <runtime_init_post_clock_resets+0x1c>)
10001ae2:	689b      	ldr	r3, [r3, #8]
10001ae4:	43db      	mvns	r3, r3
10001ae6:	f033 4360 	bics.w	r3, r3, #3758096384	; 0xe0000000
10001aea:	d1f9      	bne.n	10001ae0 <runtime_init_post_clock_resets+0x8>
10001aec:	4770      	bx	lr
10001aee:	bf00      	nop
10001af0:	40023000 	.word	0x40023000
10001af4:	40020000 	.word	0x40020000

10001af8 <runtime_init_bootrom_reset>:
10001af8:	b508      	push	{r3, lr}
10001afa:	f245 2053 	movw	r0, #21075	; 0x5253
10001afe:	f7ff ff4f 	bl	100019a0 <rom_func_lookup>
10001b02:	4603      	mov	r3, r0
10001b04:	2004      	movs	r0, #4
10001b06:	4798      	blx	r3
10001b08:	bd08      	pop	{r3, pc}

10001b0a <runtime_init_per_core_bootrom_reset>:
10001b0a:	b508      	push	{r3, lr}
10001b0c:	f245 2053 	movw	r0, #21075	; 0x5253
10001b10:	f7ff ff46 	bl	100019a0 <rom_func_lookup>
10001b14:	4603      	mov	r3, r0
10001b16:	2001      	movs	r0, #1
10001b18:	4798      	blx	r3
10001b1a:	bd08      	pop	{r3, pc}

10001b1c <runtime_init_spin_locks_reset>:
10001b1c:	b508      	push	{r3, lr}
10001b1e:	f7fe fea9 	bl	10000874 <spin_locks_reset>
10001b22:	bd08      	pop	{r3, pc}

10001b24 <runtime_init_install_ram_vector_table>:
10001b24:	b538      	push	{r3, r4, r5, lr}
10001b26:	4c05      	ldr	r4, [pc, #20]	; (10001b3c <runtime_init_install_ram_vector_table+0x18>)
10001b28:	68a1      	ldr	r1, [r4, #8]
10001b2a:	4d05      	ldr	r5, [pc, #20]	; (10001b40 <runtime_init_install_ram_vector_table+0x1c>)
10001b2c:	f44f 7288 	mov.w	r2, #272	; 0x110
10001b30:	4628      	mov	r0, r5
10001b32:	f004 fd01 	bl	10006538 <memcpy>
10001b36:	60a5      	str	r5, [r4, #8]
10001b38:	bd38      	pop	{r3, r4, r5, pc}
10001b3a:	bf00      	nop
10001b3c:	e000ed00 	.word	0xe000ed00
10001b40:	20000000 	.word	0x20000000

10001b44 <start_all_ticks>:
10001b44:	b538      	push	{r3, r4, r5, lr}
10001b46:	2004      	movs	r0, #4
10001b48:	f7ff fe10 	bl	1000176c <clock_get_hz>
10001b4c:	4d06      	ldr	r5, [pc, #24]	; (10001b68 <start_all_ticks+0x24>)
10001b4e:	fba5 3500 	umull	r3, r5, r5, r0
10001b52:	0cad      	lsrs	r5, r5, #18
10001b54:	2400      	movs	r4, #0
10001b56:	e004      	b.n	10001b62 <start_all_ticks+0x1e>
10001b58:	4629      	mov	r1, r5
10001b5a:	b2e0      	uxtb	r0, r4
10001b5c:	f7ff fef2 	bl	10001944 <tick_start>
10001b60:	3401      	adds	r4, #1
10001b62:	2c05      	cmp	r4, #5
10001b64:	ddf8      	ble.n	10001b58 <start_all_ticks+0x14>
10001b66:	bd38      	pop	{r3, r4, r5, pc}
10001b68:	431bde83 	.word	0x431bde83

10001b6c <runtime_init_clocks>:
10001b6c:	b530      	push	{r4, r5, lr}
10001b6e:	b083      	sub	sp, #12
10001b70:	4b26      	ldr	r3, [pc, #152]	; (10001c0c <runtime_init_clocks+0xa0>)
10001b72:	2200      	movs	r2, #0
10001b74:	f8c3 2084 	str.w	r2, [r3, #132]	; 0x84
10001b78:	f7ff ff50 	bl	10001a1c <xosc_init>
10001b7c:	4b24      	ldr	r3, [pc, #144]	; (10001c10 <runtime_init_clocks+0xa4>)
10001b7e:	2201      	movs	r2, #1
10001b80:	63da      	str	r2, [r3, #60]	; 0x3c
10001b82:	4b22      	ldr	r3, [pc, #136]	; (10001c0c <runtime_init_clocks+0xa0>)
10001b84:	6c5b      	ldr	r3, [r3, #68]	; 0x44
10001b86:	2b01      	cmp	r3, #1
10001b88:	d1fb      	bne.n	10001b82 <runtime_init_clocks+0x16>
10001b8a:	4b21      	ldr	r3, [pc, #132]	; (10001c10 <runtime_init_clocks+0xa4>)
10001b8c:	2203      	movs	r2, #3
10001b8e:	631a      	str	r2, [r3, #48]	; 0x30
10001b90:	4b1e      	ldr	r3, [pc, #120]	; (10001c0c <runtime_init_clocks+0xa0>)
10001b92:	6b9b      	ldr	r3, [r3, #56]	; 0x38
10001b94:	2b01      	cmp	r3, #1
10001b96:	d1fb      	bne.n	10001b90 <runtime_init_clocks+0x24>
10001b98:	2402      	movs	r4, #2
10001b9a:	9400      	str	r4, [sp, #0]
10001b9c:	2305      	movs	r3, #5
10001b9e:	4a1d      	ldr	r2, [pc, #116]	; (10001c14 <runtime_init_clocks+0xa8>)
10001ba0:	2101      	movs	r1, #1
10001ba2:	481d      	ldr	r0, [pc, #116]	; (10001c18 <runtime_init_clocks+0xac>)
10001ba4:	f7ff fde8 	bl	10001778 <pll_init>
10001ba8:	2505      	movs	r5, #5
10001baa:	9500      	str	r5, [sp, #0]
10001bac:	462b      	mov	r3, r5
10001bae:	4a1b      	ldr	r2, [pc, #108]	; (10001c1c <runtime_init_clocks+0xb0>)
10001bb0:	2101      	movs	r1, #1
10001bb2:	481b      	ldr	r0, [pc, #108]	; (10001c20 <runtime_init_clocks+0xb4>)
10001bb4:	f7ff fde0 	bl	10001778 <pll_init>
10001bb8:	4b1a      	ldr	r3, [pc, #104]	; (10001c24 <runtime_init_clocks+0xb8>)
10001bba:	2200      	movs	r2, #0
10001bbc:	4621      	mov	r1, r4
10001bbe:	2004      	movs	r0, #4
10001bc0:	f7ff fdca 	bl	10001758 <clock_configure_undivided>
10001bc4:	4c18      	ldr	r4, [pc, #96]	; (10001c28 <runtime_init_clocks+0xbc>)
10001bc6:	4623      	mov	r3, r4
10001bc8:	2200      	movs	r2, #0
10001bca:	2101      	movs	r1, #1
10001bcc:	4628      	mov	r0, r5
10001bce:	f7ff fdc3 	bl	10001758 <clock_configure_undivided>
10001bd2:	4d16      	ldr	r5, [pc, #88]	; (10001c2c <runtime_init_clocks+0xc0>)
10001bd4:	462b      	mov	r3, r5
10001bd6:	2200      	movs	r2, #0
10001bd8:	4611      	mov	r1, r2
10001bda:	2008      	movs	r0, #8
10001bdc:	f7ff fdbc 	bl	10001758 <clock_configure_undivided>
10001be0:	462b      	mov	r3, r5
10001be2:	2200      	movs	r2, #0
10001be4:	4611      	mov	r1, r2
10001be6:	2009      	movs	r0, #9
10001be8:	f7ff fdb6 	bl	10001758 <clock_configure_undivided>
10001bec:	4623      	mov	r3, r4
10001bee:	2200      	movs	r2, #0
10001bf0:	4611      	mov	r1, r2
10001bf2:	2006      	movs	r0, #6
10001bf4:	f7ff fdb0 	bl	10001758 <clock_configure_undivided>
10001bf8:	4623      	mov	r3, r4
10001bfa:	2200      	movs	r2, #0
10001bfc:	4611      	mov	r1, r2
10001bfe:	2007      	movs	r0, #7
10001c00:	f7ff fdaa 	bl	10001758 <clock_configure_undivided>
10001c04:	f7ff ff9e 	bl	10001b44 <start_all_ticks>
10001c08:	b003      	add	sp, #12
10001c0a:	bd30      	pop	{r4, r5, pc}
10001c0c:	40010000 	.word	0x40010000
10001c10:	40013000 	.word	0x40013000
10001c14:	59682f00 	.word	0x59682f00
10001c18:	40050000 	.word	0x40050000
10001c1c:	47868c00 	.word	0x47868c00
10001c20:	40058000 	.word	0x40058000
10001c24:	00b71b00 	.word	0x00b71b00
10001c28:	08f0d180 	.word	0x08f0d180
10001c2c:	02dc6c00 	.word	0x02dc6c00

10001c30 <generic_save_state>:
10001c30:	b086      	sub	sp, #24
10001c32:	b403      	push	{r0, r1}
10001c34:	fc51 0408 	dcp_pxmd r0, r1
10001c38:	e9cd 0102 	strd	r0, r1, [sp, #8]
10001c3c:	fc51 0409 	dcp_pymd r0, r1
10001c40:	e9cd 0104 	strd	r0, r1, [sp, #16]
10001c44:	ec51 040a 	dcp_refd r0, r1
10001c48:	e9cd 0106 	strd	r0, r1, [sp, #24]
10001c4c:	bc03      	pop	{r0, r1}
10001c4e:	47f0      	blx	lr

10001c50 <generic_restore_state>:
10001c50:	e8bd 5000 	ldmia.w	sp!, {ip, lr}
10001c54:	ec4e c400 	dcp_wxmd ip, lr
10001c58:	e8bd 5000 	ldmia.w	sp!, {ip, lr}
10001c5c:	ec4e c401 	dcp_wymd ip, lr
10001c60:	e8bd 5000 	ldmia.w	sp!, {ip, lr}
10001c64:	ec4e c402 	dcp_wefd ip, lr
10001c68:	bd00      	pop	{pc}
10001c6a:	0000      	movs	r0, r0
10001c6c:	b500      	push	{lr}
10001c6e:	f7ff ffdf 	bl	10001c30 <generic_save_state>
10001c72:	e002      	b.n	10001c7a <__wrap___aeabi_dadd+0x6>

10001c74 <__wrap___aeabi_dadd>:
10001c74:	fe10 f430 	dcp_pcmp APSR_nzcv
10001c78:	d4f8      	bmi.n	10001c6c <generic_restore_state+0x1c>
10001c7a:	ec41 0410 	dcp_wxup r0, r1
10001c7e:	ec43 2411 	dcp_wyup r2, r3
10001c82:	ee00 0401 	dcp_add0
10001c86:	ee10 0401 	dcp_add1
10001c8a:	ee80 0420 	dcp_nrdd
10001c8e:	ec51 0410 	dcp_rdda r0, r1
10001c92:	4770      	bx	lr
10001c94:	b500      	push	{lr}
10001c96:	f7ff ffcb 	bl	10001c30 <generic_save_state>
10001c9a:	e002      	b.n	10001ca2 <__wrap___aeabi_dsub+0x6>

10001c9c <__wrap___aeabi_dsub>:
10001c9c:	fe10 f430 	dcp_pcmp APSR_nzcv
10001ca0:	d4f8      	bmi.n	10001c94 <__wrap___aeabi_dadd+0x20>
10001ca2:	ec41 0410 	dcp_wxup r0, r1
10001ca6:	ec43 2411 	dcp_wyup r2, r3
10001caa:	ee00 0401 	dcp_add0
10001cae:	ee10 0421 	dcp_sub1
10001cb2:	ee80 0420 	dcp_nrdd
10001cb6:	ec51 0430 	dcp_rdds r0, r1
10001cba:	4770      	bx	lr
10001cbc:	b500      	push	{lr}
10001cbe:	f7ff ffb7 	bl	10001c30 <generic_save_state>
10001cc2:	e002      	b.n	10001cca <__wrap___aeabi_dmul+0x6>

10001cc4 <__wrap___aeabi_dmul>:
10001cc4:	fe10 f430 	dcp_pcmp APSR_nzcv
10001cc8:	d4f8      	bmi.n	10001cbc <__wrap___aeabi_dsub+0x20>
10001cca:	b510      	push	{r4, lr}
10001ccc:	ec41 0410 	dcp_wxup r0, r1
10001cd0:	ec43 2411 	dcp_wyup r2, r3
10001cd4:	ec51 0404 	dcp_rxms r0, r1, #0x0
10001cd8:	ec53 2405 	dcp_ryms r2, r3, #0x0
10001cdc:	fba0 4c02 	umull	r4, ip, r0, r2
10001ce0:	f05f 0e00 	movs.w	lr, #0
10001ce4:	fbe0 ce03 	umlal	ip, lr, r0, r3
10001ce8:	fbe1 ce02 	umlal	ip, lr, r1, r2
10001cec:	ec4c 4420 	dcp_wxms r4, ip
10001cf0:	2400      	movs	r4, #0
10001cf2:	fbe1 e403 	umlal	lr, r4, r1, r3
10001cf6:	ec44 e430 	dcp_wxmo lr, r4
10001cfa:	ee80 0420 	dcp_nrdd
10001cfe:	ec51 0450 	dcp_rddm r0, r1
10001d02:	e8bd 4010 	ldmia.w	sp!, {r4, lr}
10001d06:	4770      	bx	lr
10001d08:	b500      	push	{lr}
10001d0a:	f7ff ff91 	bl	10001c30 <generic_save_state>
10001d0e:	e002      	b.n	10001d16 <__wrap___aeabi_ddiv+0x6>

10001d10 <__wrap___aeabi_ddiv>:
10001d10:	fe10 f430 	dcp_pcmp APSR_nzcv
10001d14:	d4f8      	bmi.n	10001d08 <__wrap___aeabi_dmul+0x44>
10001d16:	ec41 0410 	dcp_wxup r0, r1
10001d1a:	ec43 2411 	dcp_wyup r2, r3
10001d1e:	ec51 0421 	dcp_rymr r0, r1
10001d22:	fba0 1201 	umull	r1, r2, r0, r1
10001d26:	ea6f 0282 	mvn.w	r2, r2, lsl #2
10001d2a:	fb52 0010 	smmlar	r0, r2, r0, r0
10001d2e:	fb52 f212 	smmulr	r2, r2, r2
10001d32:	fb52 0010 	smmlar	r0, r2, r0, r0
10001d36:	eba0 7cd0 	sub.w	ip, r0, r0, lsr #31
10001d3a:	ec53 2404 	dcp_rxms r2, r3, #0x0
10001d3e:	fb5c f113 	smmulr	r1, ip, r3
10001d42:	ec53 2415 	dcp_ryms r2, r3, #0x1
10001d46:	fba1 2002 	umull	r2, r0, r1, r2
10001d4a:	fb01 0003 	mla	r0, r1, r3, r0
10001d4e:	ec53 2444 	dcp_rxms r2, r3, #0x4
10001d52:	eba2 0000 	sub.w	r0, r2, r0
10001d56:	fb50 f21c 	smmulr	r2, r0, ip
10001d5a:	ea4f 1311 	mov.w	r3, r1, lsr #4
10001d5e:	eb12 7001 	adds.w	r0, r2, r1, lsl #28
10001d62:	eb43 71e2 	adc.w	r1, r3, r2, asr #31
10001d66:	ea40 5051 	orr.w	r0, r0, r1, lsr #21
10001d6a:	ea20 5091 	bic.w	r0, r0, r1, lsr #22
10001d6e:	f020 0007 	bic.w	r0, r0, #7
10001d72:	ec53 2475 	dcp_ryms r2, r3, #0x7
10001d76:	fba0 3c02 	umull	r3, ip, r0, r2
10001d7a:	ec53 2475 	dcp_ryms r2, r3, #0x7
10001d7e:	fb00 cc03 	mla	ip, r0, r3, ip
10001d82:	fb01 cc02 	mla	ip, r1, r2, ip
10001d86:	ec53 2404 	dcp_rxms r2, r3, #0x0
10001d8a:	ebac 4c82 	sub.w	ip, ip, r2, lsl #18
10001d8e:	ea40 705c 	orr.w	r0, r0, ip, lsr #29
10001d92:	f1a0 0001 	sub.w	r0, r0, #1
10001d96:	ec41 0440 	dcp_wxdd r0, r1
10001d9a:	ee80 0420 	dcp_nrdd
10001d9e:	ec51 0470 	dcp_rddd r0, r1
10001da2:	4770      	bx	lr
10001da4:	b500      	push	{lr}
10001da6:	f7ff ff43 	bl	10001c30 <generic_save_state>
10001daa:	e002      	b.n	10001db2 <__wrap___aeabi_d2f+0x6>

10001dac <__wrap___aeabi_d2f>:
10001dac:	fe10 f430 	dcp_pcmp APSR_nzcv
10001db0:	d4f8      	bmi.n	10001da4 <__wrap___aeabi_ddiv+0x94>
10001db2:	ec41 0410 	dcp_wxup r0, r1
10001db6:	ee80 0422 	dcp_nrdf
10001dba:	ee10 04b2 	dcp_rdfg r0
10001dbe:	4770      	bx	lr
10001dc0:	b500      	push	{lr}
10001dc2:	f7ff ff35 	bl	10001c30 <generic_save_state>
10001dc6:	e002      	b.n	10001dce <__wrap___aeabi_i2d+0x6>

10001dc8 <__wrap___aeabi_i2d>:
10001dc8:	fe10 f430 	dcp_pcmp APSR_nzcv
10001dcc:	d4f8      	bmi.n	10001dc0 <__wrap___aeabi_d2f+0x14>
10001dce:	ec40 0470 	dcp_wxic r0, r0
10001dd2:	ee00 0401 	dcp_add0
10001dd6:	ee10 0421 	dcp_sub1
10001dda:	ee80 0420 	dcp_nrdd
10001dde:	ec51 0430 	dcp_rdds r0, r1
10001de2:	4770      	bx	lr
10001de4:	b500      	push	{lr}
10001de6:	f7ff ff23 	bl	10001c30 <generic_save_state>
10001dea:	e002      	b.n	10001df2 <__wrap___aeabi_ui2d+0x6>

10001dec <__wrap___aeabi_ui2d>:
10001dec:	fe10 f430 	dcp_pcmp APSR_nzcv
10001df0:	d4f8      	bmi.n	10001de4 <__wrap___aeabi_i2d+0x1c>
10001df2:	ec40 0460 	dcp_wxuc r0, r0
10001df6:	ee00 0401 	dcp_add0
10001dfa:	ee10 0421 	dcp_sub1
10001dfe:	ee80 0420 	dcp_nrdd
10001e02:	ec51 0430 	dcp_rdds r0, r1
10001e06:	4770      	bx	lr
10001e08:	b500      	push	{lr}
10001e0a:	f7ff ff11 	bl	10001c30 <generic_save_state>
10001e0e:	e002      	b.n	10001e16 <__wrap___aeabi_d2iz+0x6>

10001e10 <__wrap___aeabi_d2iz>:
10001e10:	fe10 f430 	dcp_pcmp APSR_nzcv
10001e14:	d4f8      	bmi.n	10001e08 <__wrap___aeabi_ui2d+0x1c>
10001e16:	ec41 0480 	dcp_wxdc r0, r1
10001e1a:	ee00 0401 	dcp_add0
10001e1e:	ee10 0401 	dcp_add1
10001e22:	ee80 0440 	dcp_ntdc
10001e26:	ee10 0413 	dcp_rdic r0
10001e2a:	4770      	bx	lr
10001e2c:	b500      	push	{lr}
10001e2e:	f7ff feff 	bl	10001c30 <generic_save_state>
10001e32:	e002      	b.n	10001e3a <__wrap___aeabi_d2uiz+0x6>

10001e34 <__wrap___aeabi_d2uiz>:
10001e34:	fe10 f430 	dcp_pcmp APSR_nzcv
10001e38:	d4f8      	bmi.n	10001e2c <__wrap___aeabi_d2iz+0x1c>
10001e3a:	ec41 0480 	dcp_wxdc r0, r1
10001e3e:	ee00 0401 	dcp_add0
10001e42:	ee10 0401 	dcp_add1
10001e46:	ee80 0440 	dcp_ntdc
10001e4a:	ee10 0433 	dcp_rduc r0
10001e4e:	4770      	bx	lr
10001e50:	b500      	push	{lr}
10001e52:	f7ff feed 	bl	10001c30 <generic_save_state>
10001e56:	e002      	b.n	10001e5e <__wrap___aeabi_dcmpun+0x6>

10001e58 <__wrap___aeabi_dcmpun>:
10001e58:	fe10 f430 	dcp_pcmp APSR_nzcv
10001e5c:	d4f8      	bmi.n	10001e50 <__wrap___aeabi_d2uiz+0x1c>
10001e5e:	ec41 0410 	dcp_wxup r0, r1
10001e62:	ec43 2411 	dcp_wyup r2, r3
10001e66:	ee00 0401 	dcp_add0
10001e6a:	ee10 0430 	dcp_rcmp r0
10001e6e:	f3c0 7000 	ubfx	r0, r0, #28, #1
10001e72:	4770      	bx	lr
10001e74:	b500      	push	{lr}
10001e76:	f7ff fedb 	bl	10001c30 <generic_save_state>
10001e7a:	e002      	b.n	10001e82 <__wrap___aeabi_dcmplt+0x6>

10001e7c <__wrap___aeabi_dcmplt>:
10001e7c:	fe10 f430 	dcp_pcmp APSR_nzcv
10001e80:	d4f8      	bmi.n	10001e74 <__wrap___aeabi_dcmpun+0x1c>
10001e82:	ec43 2410 	dcp_wxup r2, r3
10001e86:	ec41 0411 	dcp_wyup r0, r1
10001e8a:	ee00 0401 	dcp_add0
10001e8e:	ee10 f430 	dcp_rcmp APSR_nzcv
10001e92:	bf8c      	ite	hi
10001e94:	2001      	movhi	r0, #1
10001e96:	2000      	movls	r0, #0
10001e98:	4770      	bx	lr
10001e9a:	bf00      	nop
10001e9c:	b500      	push	{lr}
10001e9e:	f7ff fec7 	bl	10001c30 <generic_save_state>
10001ea2:	e002      	b.n	10001eaa <__wrap___aeabi_dcmple+0x6>

10001ea4 <__wrap___aeabi_dcmple>:
10001ea4:	fe10 f430 	dcp_pcmp APSR_nzcv
10001ea8:	d4f8      	bmi.n	10001e9c <__wrap___aeabi_dcmplt+0x20>
10001eaa:	ec43 2410 	dcp_wxup r2, r3
10001eae:	ec41 0411 	dcp_wyup r0, r1
10001eb2:	ee00 0401 	dcp_add0
10001eb6:	ee10 f430 	dcp_rcmp APSR_nzcv
10001eba:	bf2c      	ite	cs
10001ebc:	2001      	movcs	r0, #1
10001ebe:	2000      	movcc	r0, #0
10001ec0:	4770      	bx	lr
10001ec2:	bf00      	nop
10001ec4:	b500      	push	{lr}
10001ec6:	f7ff feb3 	bl	10001c30 <generic_save_state>
10001eca:	e002      	b.n	10001ed2 <__wrap___aeabi_dcmpge+0x6>

10001ecc <__wrap___aeabi_dcmpge>:
10001ecc:	fe10 f430 	dcp_pcmp APSR_nzcv
10001ed0:	d4f8      	bmi.n	10001ec4 <__wrap___aeabi_dcmple+0x20>
10001ed2:	ec41 0410 	dcp_wxup r0, r1
10001ed6:	ec43 2411 	dcp_wyup r2, r3
10001eda:	ee00 0401 	dcp_add0
10001ede:	ee10 f430 	dcp_rcmp APSR_nzcv
10001ee2:	bf2c      	ite	cs
10001ee4:	2001      	movcs	r0, #1
10001ee6:	2000      	movcc	r0, #0
10001ee8:	4770      	bx	lr
10001eea:	bf00      	nop
10001eec:	b500      	push	{lr}
10001eee:	f7ff fe9f 	bl	10001c30 <generic_save_state>
10001ef2:	e002      	b.n	10001efa <__wrap___aeabi_dcmpgt+0x6>

10001ef4 <__wrap___aeabi_dcmpgt>:
10001ef4:	fe10 f430 	dcp_pcmp APSR_nzcv
10001ef8:	d4f8      	bmi.n	10001eec <__wrap___aeabi_dcmpge+0x20>
10001efa:	ec41 0410 	dcp_wxup r0, r1
10001efe:	ec43 2411 	dcp_wyup r2, r3
10001f02:	ee00 0401 	dcp_add0
10001f06:	ee10 f430 	dcp_rcmp APSR_nzcv
10001f0a:	bf8c      	ite	hi
10001f0c:	2001      	movhi	r0, #1
10001f0e:	2000      	movls	r0, #0
10001f10:	4770      	bx	lr
10001f12:	bf00      	nop

10001f14 <_out_null>:
10001f14:	4770      	bx	lr

10001f16 <_out_fct>:
10001f16:	b120      	cbz	r0, 10001f22 <_out_fct+0xc>
10001f18:	b508      	push	{r3, lr}
10001f1a:	680a      	ldr	r2, [r1, #0]
10001f1c:	6849      	ldr	r1, [r1, #4]
10001f1e:	4790      	blx	r2
10001f20:	bd08      	pop	{r3, pc}
10001f22:	4770      	bx	lr

10001f24 <_atoi>:
10001f24:	4601      	mov	r1, r0
10001f26:	2000      	movs	r0, #0
10001f28:	e007      	b.n	10001f3a <_atoi+0x16>
10001f2a:	eb00 0080 	add.w	r0, r0, r0, lsl #2
10001f2e:	1c53      	adds	r3, r2, #1
10001f30:	600b      	str	r3, [r1, #0]
10001f32:	7813      	ldrb	r3, [r2, #0]
10001f34:	eb03 0040 	add.w	r0, r3, r0, lsl #1
10001f38:	3830      	subs	r0, #48	; 0x30
10001f3a:	680a      	ldr	r2, [r1, #0]
10001f3c:	7813      	ldrb	r3, [r2, #0]
10001f3e:	3b30      	subs	r3, #48	; 0x30
10001f40:	b2db      	uxtb	r3, r3
10001f42:	2b09      	cmp	r3, #9
10001f44:	d9f1      	bls.n	10001f2a <_atoi+0x6>
10001f46:	4770      	bx	lr

10001f48 <_out_rev>:
10001f48:	e92d 4ff0 	stmdb	sp!, {r4, r5, r6, r7, r8, r9, sl, fp, lr}
10001f4c:	b083      	sub	sp, #12
10001f4e:	4605      	mov	r5, r0
10001f50:	460e      	mov	r6, r1
10001f52:	4693      	mov	fp, r2
10001f54:	461f      	mov	r7, r3
10001f56:	f8dd a030 	ldr.w	sl, [sp, #48]	; 0x30
10001f5a:	9c0d      	ldr	r4, [sp, #52]	; 0x34
10001f5c:	f8dd 9038 	ldr.w	r9, [sp, #56]	; 0x38
10001f60:	9b0f      	ldr	r3, [sp, #60]	; 0x3c
10001f62:	f013 0f03 	tst.w	r3, #3
10001f66:	d119      	bne.n	10001f9c <_out_rev+0x54>
10001f68:	46a0      	mov	r8, r4
10001f6a:	9201      	str	r2, [sp, #4]
10001f6c:	45c8      	cmp	r8, r9
10001f6e:	d209      	bcs.n	10001f84 <_out_rev+0x3c>
10001f70:	f102 0b01 	add.w	fp, r2, #1
10001f74:	463b      	mov	r3, r7
10001f76:	4631      	mov	r1, r6
10001f78:	2020      	movs	r0, #32
10001f7a:	47a8      	blx	r5
10001f7c:	f108 0801 	add.w	r8, r8, #1
10001f80:	465a      	mov	r2, fp
10001f82:	e7f3      	b.n	10001f6c <_out_rev+0x24>
10001f84:	f8dd b004 	ldr.w	fp, [sp, #4]
10001f88:	e008      	b.n	10001f9c <_out_rev+0x54>
10001f8a:	3c01      	subs	r4, #1
10001f8c:	f102 0801 	add.w	r8, r2, #1
10001f90:	463b      	mov	r3, r7
10001f92:	4631      	mov	r1, r6
10001f94:	f81a 0004 	ldrb.w	r0, [sl, r4]
10001f98:	47a8      	blx	r5
10001f9a:	4642      	mov	r2, r8
10001f9c:	2c00      	cmp	r4, #0
10001f9e:	d1f4      	bne.n	10001f8a <_out_rev+0x42>
10001fa0:	9b0f      	ldr	r3, [sp, #60]	; 0x3c
10001fa2:	f013 0f02 	tst.w	r3, #2
10001fa6:	d103      	bne.n	10001fb0 <_out_rev+0x68>
10001fa8:	4610      	mov	r0, r2
10001faa:	b003      	add	sp, #12
10001fac:	e8bd 8ff0 	ldmia.w	sp!, {r4, r5, r6, r7, r8, r9, sl, fp, pc}
10001fb0:	eba2 030b 	sub.w	r3, r2, fp
10001fb4:	454b      	cmp	r3, r9
10001fb6:	d2f7      	bcs.n	10001fa8 <_out_rev+0x60>
10001fb8:	1c54      	adds	r4, r2, #1
10001fba:	463b      	mov	r3, r7
10001fbc:	4631      	mov	r1, r6
10001fbe:	2020      	movs	r0, #32
10001fc0:	47a8      	blx	r5
10001fc2:	4622      	mov	r2, r4
10001fc4:	e7f4      	b.n	10001fb0 <_out_rev+0x68>

10001fc6 <_ntoa_format>:
10001fc6:	e92d 43f0 	stmdb	sp!, {r4, r5, r6, r7, r8, r9, lr}
10001fca:	b085      	sub	sp, #20
10001fcc:	9d0c      	ldr	r5, [sp, #48]	; 0x30
10001fce:	9c0d      	ldr	r4, [sp, #52]	; 0x34
10001fd0:	f89d 9038 	ldrb.w	r9, [sp, #56]	; 0x38
10001fd4:	f8dd 803c 	ldr.w	r8, [sp, #60]	; 0x3c
10001fd8:	f8dd e040 	ldr.w	lr, [sp, #64]	; 0x40
10001fdc:	9f11      	ldr	r7, [sp, #68]	; 0x44
10001fde:	9e12      	ldr	r6, [sp, #72]	; 0x48
10001fe0:	f016 0f02 	tst.w	r6, #2
10001fe4:	d121      	bne.n	1000202a <_ntoa_format+0x64>
10001fe6:	b17f      	cbz	r7, 10002008 <_ntoa_format+0x42>
10001fe8:	f016 0f01 	tst.w	r6, #1
10001fec:	d00c      	beq.n	10002008 <_ntoa_format+0x42>
10001fee:	f1b9 0f00 	cmp.w	r9, #0
10001ff2:	d102      	bne.n	10001ffa <_ntoa_format+0x34>
10001ff4:	f016 0f0c 	tst.w	r6, #12
10001ff8:	d006      	beq.n	10002008 <_ntoa_format+0x42>
10001ffa:	3f01      	subs	r7, #1
10001ffc:	e004      	b.n	10002008 <_ntoa_format+0x42>
10001ffe:	f04f 0c30 	mov.w	ip, #48	; 0x30
10002002:	f805 c004 	strb.w	ip, [r5, r4]
10002006:	3401      	adds	r4, #1
10002008:	4574      	cmp	r4, lr
1000200a:	d201      	bcs.n	10002010 <_ntoa_format+0x4a>
1000200c:	2c1f      	cmp	r4, #31
1000200e:	d9f6      	bls.n	10001ffe <_ntoa_format+0x38>
10002010:	f016 0f01 	tst.w	r6, #1
10002014:	d009      	beq.n	1000202a <_ntoa_format+0x64>
10002016:	42bc      	cmp	r4, r7
10002018:	d207      	bcs.n	1000202a <_ntoa_format+0x64>
1000201a:	2c1f      	cmp	r4, #31
1000201c:	d805      	bhi.n	1000202a <_ntoa_format+0x64>
1000201e:	f04f 0c30 	mov.w	ip, #48	; 0x30
10002022:	f805 c004 	strb.w	ip, [r5, r4]
10002026:	3401      	adds	r4, #1
10002028:	e7f2      	b.n	10002010 <_ntoa_format+0x4a>
1000202a:	f016 0f10 	tst.w	r6, #16
1000202e:	d017      	beq.n	10002060 <_ntoa_format+0x9a>
10002030:	f416 6f80 	tst.w	r6, #1024	; 0x400
10002034:	d104      	bne.n	10002040 <_ntoa_format+0x7a>
10002036:	b11c      	cbz	r4, 10002040 <_ntoa_format+0x7a>
10002038:	4574      	cmp	r4, lr
1000203a:	d024      	beq.n	10002086 <_ntoa_format+0xc0>
1000203c:	42bc      	cmp	r4, r7
1000203e:	d022      	beq.n	10002086 <_ntoa_format+0xc0>
10002040:	f1b8 0f10 	cmp.w	r8, #16
10002044:	d02b      	beq.n	1000209e <_ntoa_format+0xd8>
10002046:	f1b8 0f10 	cmp.w	r8, #16
1000204a:	d033      	beq.n	100020b4 <_ntoa_format+0xee>
1000204c:	f1b8 0f02 	cmp.w	r8, #2
10002050:	d03b      	beq.n	100020ca <_ntoa_format+0x104>
10002052:	2c1f      	cmp	r4, #31
10002054:	d804      	bhi.n	10002060 <_ntoa_format+0x9a>
10002056:	f04f 0c30 	mov.w	ip, #48	; 0x30
1000205a:	f805 c004 	strb.w	ip, [r5, r4]
1000205e:	3401      	adds	r4, #1
10002060:	2c1f      	cmp	r4, #31
10002062:	d807      	bhi.n	10002074 <_ntoa_format+0xae>
10002064:	f1b9 0f00 	cmp.w	r9, #0
10002068:	d037      	beq.n	100020da <_ntoa_format+0x114>
1000206a:	f04f 0c2d 	mov.w	ip, #45	; 0x2d
1000206e:	f805 c004 	strb.w	ip, [r5, r4]
10002072:	3401      	adds	r4, #1
10002074:	9603      	str	r6, [sp, #12]
10002076:	9702      	str	r7, [sp, #8]
10002078:	9401      	str	r4, [sp, #4]
1000207a:	9500      	str	r5, [sp, #0]
1000207c:	f7ff ff64 	bl	10001f48 <_out_rev>
10002080:	b005      	add	sp, #20
10002082:	e8bd 83f0 	ldmia.w	sp!, {r4, r5, r6, r7, r8, r9, pc}
10002086:	f1b4 0c01 	subs.w	ip, r4, #1
1000208a:	d006      	beq.n	1000209a <_ntoa_format+0xd4>
1000208c:	f1b8 0f10 	cmp.w	r8, #16
10002090:	d001      	beq.n	10002096 <_ntoa_format+0xd0>
10002092:	4664      	mov	r4, ip
10002094:	e7d4      	b.n	10002040 <_ntoa_format+0x7a>
10002096:	3c02      	subs	r4, #2
10002098:	e7d2      	b.n	10002040 <_ntoa_format+0x7a>
1000209a:	4664      	mov	r4, ip
1000209c:	e7d0      	b.n	10002040 <_ntoa_format+0x7a>
1000209e:	f016 0f20 	tst.w	r6, #32
100020a2:	d1d0      	bne.n	10002046 <_ntoa_format+0x80>
100020a4:	2c1f      	cmp	r4, #31
100020a6:	d8ce      	bhi.n	10002046 <_ntoa_format+0x80>
100020a8:	f04f 0c78 	mov.w	ip, #120	; 0x78
100020ac:	f805 c004 	strb.w	ip, [r5, r4]
100020b0:	3401      	adds	r4, #1
100020b2:	e7ce      	b.n	10002052 <_ntoa_format+0x8c>
100020b4:	f016 0f20 	tst.w	r6, #32
100020b8:	d0c8      	beq.n	1000204c <_ntoa_format+0x86>
100020ba:	2c1f      	cmp	r4, #31
100020bc:	d8c6      	bhi.n	1000204c <_ntoa_format+0x86>
100020be:	f04f 0c58 	mov.w	ip, #88	; 0x58
100020c2:	f805 c004 	strb.w	ip, [r5, r4]
100020c6:	3401      	adds	r4, #1
100020c8:	e7c3      	b.n	10002052 <_ntoa_format+0x8c>
100020ca:	2c1f      	cmp	r4, #31
100020cc:	d8c1      	bhi.n	10002052 <_ntoa_format+0x8c>
100020ce:	f04f 0c62 	mov.w	ip, #98	; 0x62
100020d2:	f805 c004 	strb.w	ip, [r5, r4]
100020d6:	3401      	adds	r4, #1
100020d8:	e7bb      	b.n	10002052 <_ntoa_format+0x8c>
100020da:	f016 0f04 	tst.w	r6, #4
100020de:	d005      	beq.n	100020ec <_ntoa_format+0x126>
100020e0:	f04f 0c2b 	mov.w	ip, #43	; 0x2b
100020e4:	f805 c004 	strb.w	ip, [r5, r4]
100020e8:	3401      	adds	r4, #1
100020ea:	e7c3      	b.n	10002074 <_ntoa_format+0xae>
100020ec:	f016 0f08 	tst.w	r6, #8
100020f0:	d0c0      	beq.n	10002074 <_ntoa_format+0xae>
100020f2:	f04f 0c20 	mov.w	ip, #32
100020f6:	f805 c004 	strb.w	ip, [r5, r4]
100020fa:	3401      	adds	r4, #1
100020fc:	e7ba      	b.n	10002074 <_ntoa_format+0xae>

100020fe <_ntoa_long>:
100020fe:	b5f0      	push	{r4, r5, r6, r7, lr}
10002100:	b091      	sub	sp, #68	; 0x44
10002102:	9c16      	ldr	r4, [sp, #88]	; 0x58
10002104:	9d18      	ldr	r5, [sp, #96]	; 0x60
10002106:	9e1b      	ldr	r6, [sp, #108]	; 0x6c
10002108:	b90c      	cbnz	r4, 1000210e <_ntoa_long+0x10>
1000210a:	f026 0610 	bic.w	r6, r6, #16
1000210e:	f416 6e80 	ands.w	lr, r6, #1024	; 0x400
10002112:	d016      	beq.n	10002142 <_ntoa_long+0x44>
10002114:	b364      	cbz	r4, 10002170 <_ntoa_long+0x72>
10002116:	f04f 0e00 	mov.w	lr, #0
1000211a:	e012      	b.n	10002142 <_ntoa_long+0x44>
1000211c:	f10c 0c30 	add.w	ip, ip, #48	; 0x30
10002120:	fa5f fc8c 	uxtb.w	ip, ip
10002124:	f10e 0701 	add.w	r7, lr, #1
10002128:	f10e 0e40 	add.w	lr, lr, #64	; 0x40
1000212c:	44ee      	add	lr, sp
1000212e:	f80e cc20 	strb.w	ip, [lr, #-32]
10002132:	fbb4 fcf5 	udiv	ip, r4, r5
10002136:	42ac      	cmp	r4, r5
10002138:	d31b      	bcc.n	10002172 <_ntoa_long+0x74>
1000213a:	2f1f      	cmp	r7, #31
1000213c:	d819      	bhi.n	10002172 <_ntoa_long+0x74>
1000213e:	46be      	mov	lr, r7
10002140:	4664      	mov	r4, ip
10002142:	fbb4 fcf5 	udiv	ip, r4, r5
10002146:	fb05 4c1c 	mls	ip, r5, ip, r4
1000214a:	fa5f fc8c 	uxtb.w	ip, ip
1000214e:	f1bc 0f09 	cmp.w	ip, #9
10002152:	d9e3      	bls.n	1000211c <_ntoa_long+0x1e>
10002154:	f016 0f20 	tst.w	r6, #32
10002158:	d008      	beq.n	1000216c <_ntoa_long+0x6e>
1000215a:	2741      	movs	r7, #65	; 0x41
1000215c:	44bc      	add	ip, r7
1000215e:	fa5f fc8c 	uxtb.w	ip, ip
10002162:	f1ac 0c0a 	sub.w	ip, ip, #10
10002166:	fa5f fc8c 	uxtb.w	ip, ip
1000216a:	e7db      	b.n	10002124 <_ntoa_long+0x26>
1000216c:	2761      	movs	r7, #97	; 0x61
1000216e:	e7f5      	b.n	1000215c <_ntoa_long+0x5e>
10002170:	4627      	mov	r7, r4
10002172:	9606      	str	r6, [sp, #24]
10002174:	9c1a      	ldr	r4, [sp, #104]	; 0x68
10002176:	9405      	str	r4, [sp, #20]
10002178:	9c19      	ldr	r4, [sp, #100]	; 0x64
1000217a:	9404      	str	r4, [sp, #16]
1000217c:	9503      	str	r5, [sp, #12]
1000217e:	f89d 405c 	ldrb.w	r4, [sp, #92]	; 0x5c
10002182:	9402      	str	r4, [sp, #8]
10002184:	9701      	str	r7, [sp, #4]
10002186:	ac08      	add	r4, sp, #32
10002188:	9400      	str	r4, [sp, #0]
1000218a:	f7ff ff1c 	bl	10001fc6 <_ntoa_format>
1000218e:	b011      	add	sp, #68	; 0x44
10002190:	bdf0      	pop	{r4, r5, r6, r7, pc}

10002192 <_ntoa_long_long>:
10002192:	e92d 4ff0 	stmdb	sp!, {r4, r5, r6, r7, r8, r9, sl, fp, lr}
10002196:	b095      	sub	sp, #84	; 0x54
10002198:	9009      	str	r0, [sp, #36]	; 0x24
1000219a:	910a      	str	r1, [sp, #40]	; 0x28
1000219c:	920b      	str	r2, [sp, #44]	; 0x2c
1000219e:	469b      	mov	fp, r3
100021a0:	9d1e      	ldr	r5, [sp, #120]	; 0x78
100021a2:	9e1f      	ldr	r6, [sp, #124]	; 0x7c
100021a4:	9f22      	ldr	r7, [sp, #136]	; 0x88
100021a6:	f8dd 808c 	ldr.w	r8, [sp, #140]	; 0x8c
100021aa:	f8dd a098 	ldr.w	sl, [sp, #152]	; 0x98
100021ae:	ea55 0306 	orrs.w	r3, r5, r6
100021b2:	d101      	bne.n	100021b8 <_ntoa_long_long+0x26>
100021b4:	f02a 0a10 	bic.w	sl, sl, #16
100021b8:	f41a 6480 	ands.w	r4, sl, #1024	; 0x400
100021bc:	d01f      	beq.n	100021fe <_ntoa_long_long+0x6c>
100021be:	ea55 0306 	orrs.w	r3, r5, r6
100021c2:	d030      	beq.n	10002226 <_ntoa_long_long+0x94>
100021c4:	2400      	movs	r4, #0
100021c6:	e01a      	b.n	100021fe <_ntoa_long_long+0x6c>
100021c8:	f103 0230 	add.w	r2, r3, #48	; 0x30
100021cc:	b2d2      	uxtb	r2, r2
100021ce:	f104 0901 	add.w	r9, r4, #1
100021d2:	f104 0350 	add.w	r3, r4, #80	; 0x50
100021d6:	eb0d 0403 	add.w	r4, sp, r3
100021da:	f804 2c20 	strb.w	r2, [r4, #-32]
100021de:	463a      	mov	r2, r7
100021e0:	4643      	mov	r3, r8
100021e2:	4628      	mov	r0, r5
100021e4:	4631      	mov	r1, r6
100021e6:	f004 fa9f 	bl	10006728 <____aeabi_uldivmod_veneer>
100021ea:	42bd      	cmp	r5, r7
100021ec:	eb76 0308 	sbcs.w	r3, r6, r8
100021f0:	d31b      	bcc.n	1000222a <_ntoa_long_long+0x98>
100021f2:	f1b9 0f1f 	cmp.w	r9, #31
100021f6:	d818      	bhi.n	1000222a <_ntoa_long_long+0x98>
100021f8:	464c      	mov	r4, r9
100021fa:	4605      	mov	r5, r0
100021fc:	460e      	mov	r6, r1
100021fe:	463a      	mov	r2, r7
10002200:	4643      	mov	r3, r8
10002202:	4628      	mov	r0, r5
10002204:	4631      	mov	r1, r6
10002206:	f004 fa8f 	bl	10006728 <____aeabi_uldivmod_veneer>
1000220a:	b2d3      	uxtb	r3, r2
1000220c:	2b09      	cmp	r3, #9
1000220e:	d9db      	bls.n	100021c8 <_ntoa_long_long+0x36>
10002210:	f01a 0f20 	tst.w	sl, #32
10002214:	d005      	beq.n	10002222 <_ntoa_long_long+0x90>
10002216:	2241      	movs	r2, #65	; 0x41
10002218:	441a      	add	r2, r3
1000221a:	b2d2      	uxtb	r2, r2
1000221c:	3a0a      	subs	r2, #10
1000221e:	b2d2      	uxtb	r2, r2
10002220:	e7d5      	b.n	100021ce <_ntoa_long_long+0x3c>
10002222:	2261      	movs	r2, #97	; 0x61
10002224:	e7f8      	b.n	10002218 <_ntoa_long_long+0x86>
10002226:	f04f 0900 	mov.w	r9, #0
1000222a:	f8cd a018 	str.w	sl, [sp, #24]
1000222e:	9b25      	ldr	r3, [sp, #148]	; 0x94
10002230:	9305      	str	r3, [sp, #20]
10002232:	9b24      	ldr	r3, [sp, #144]	; 0x90
10002234:	9304      	str	r3, [sp, #16]
10002236:	9703      	str	r7, [sp, #12]
10002238:	f89d 3080 	ldrb.w	r3, [sp, #128]	; 0x80
1000223c:	9302      	str	r3, [sp, #8]
1000223e:	f8cd 9004 	str.w	r9, [sp, #4]
10002242:	ab0c      	add	r3, sp, #48	; 0x30
10002244:	9300      	str	r3, [sp, #0]
10002246:	465b      	mov	r3, fp
10002248:	9a0b      	ldr	r2, [sp, #44]	; 0x2c
1000224a:	990a      	ldr	r1, [sp, #40]	; 0x28
1000224c:	9809      	ldr	r0, [sp, #36]	; 0x24
1000224e:	f7ff feba 	bl	10001fc6 <_ntoa_format>
10002252:	b015      	add	sp, #84	; 0x54
10002254:	e8bd 8ff0 	ldmia.w	sp!, {r4, r5, r6, r7, r8, r9, sl, fp, pc}

10002258 <_etoa>:
10002258:	e92d 4ff0 	stmdb	sp!, {r4, r5, r6, r7, r8, r9, sl, fp, lr}
1000225c:	b091      	sub	sp, #68	; 0x44
1000225e:	4604      	mov	r4, r0
10002260:	460d      	mov	r5, r1
10002262:	4617      	mov	r7, r2
10002264:	461e      	mov	r6, r3
10002266:	e9dd 231a 	ldrd	r2, r3, [sp, #104]	; 0x68
1000226a:	4610      	mov	r0, r2
1000226c:	4619      	mov	r1, r3
1000226e:	f7ff fdf3 	bl	10001e58 <__wrap___aeabi_dcmpun>
10002272:	2800      	cmp	r0, #0
10002274:	f040 80ed 	bne.w	10002452 <_etoa+0x1fa>
10002278:	f04f 32ff 	mov.w	r2, #4294967295
1000227c:	4bae      	ldr	r3, [pc, #696]	; (10002538 <_etoa+0x2e0>)
1000227e:	e9dd 011a 	ldrd	r0, r1, [sp, #104]	; 0x68
10002282:	f7ff fe37 	bl	10001ef4 <__wrap___aeabi_dcmpgt>
10002286:	2800      	cmp	r0, #0
10002288:	f040 80e3 	bne.w	10002452 <_etoa+0x1fa>
1000228c:	f04f 32ff 	mov.w	r2, #4294967295
10002290:	f46f 1380 	mvn.w	r3, #1048576	; 0x100000
10002294:	e9dd 011a 	ldrd	r0, r1, [sp, #104]	; 0x68
10002298:	f7ff fdf0 	bl	10001e7c <__wrap___aeabi_dcmplt>
1000229c:	2800      	cmp	r0, #0
1000229e:	f040 80d8 	bne.w	10002452 <_etoa+0x1fa>
100022a2:	2200      	movs	r2, #0
100022a4:	2300      	movs	r3, #0
100022a6:	e9dd 011a 	ldrd	r0, r1, [sp, #104]	; 0x68
100022aa:	f7ff fde7 	bl	10001e7c <__wrap___aeabi_dcmplt>
100022ae:	2800      	cmp	r0, #0
100022b0:	f040 80e2 	bne.w	10002478 <_etoa+0x220>
100022b4:	ed9d 7b1a 	vldr	d7, [sp, #104]	; 0x68
100022b8:	ed8d 7b06 	vstr	d7, [sp, #24]
100022bc:	9b1e      	ldr	r3, [sp, #120]	; 0x78
100022be:	f413 6380 	ands.w	r3, r3, #1024	; 0x400
100022c2:	930d      	str	r3, [sp, #52]	; 0x34
100022c4:	d101      	bne.n	100022ca <_etoa+0x72>
100022c6:	2306      	movs	r3, #6
100022c8:	931c      	str	r3, [sp, #112]	; 0x70
100022ca:	e9dd 2306 	ldrd	r2, r3, [sp, #24]
100022ce:	4610      	mov	r0, r2
100022d0:	4619      	mov	r1, r3
100022d2:	e9cd 0108 	strd	r0, r1, [sp, #32]
100022d6:	ea52 0103 	orrs.w	r1, r2, r3
100022da:	f000 80d8 	beq.w	1000248e <_etoa+0x236>
100022de:	f3c3 500a 	ubfx	r0, r3, #20, #11
100022e2:	f3c3 0313 	ubfx	r3, r3, #0, #20
100022e6:	4690      	mov	r8, r2
100022e8:	f043 597f 	orr.w	r9, r3, #1069547520	; 0x3fc00000
100022ec:	f449 1940 	orr.w	r9, r9, #3145728	; 0x300000
100022f0:	f2a0 30ff 	subw	r0, r0, #1023	; 0x3ff
100022f4:	f7ff fd68 	bl	10001dc8 <__wrap___aeabi_i2d>
100022f8:	a37d      	add	r3, pc, #500	; (adr r3, 100024f0 <_etoa+0x298>)
100022fa:	e9d3 2300 	ldrd	r2, r3, [r3]
100022fe:	f7ff fce1 	bl	10001cc4 <__wrap___aeabi_dmul>
10002302:	a37d      	add	r3, pc, #500	; (adr r3, 100024f8 <_etoa+0x2a0>)
10002304:	e9d3 2300 	ldrd	r2, r3, [r3]
10002308:	f7ff fcb4 	bl	10001c74 <__wrap___aeabi_dadd>
1000230c:	4682      	mov	sl, r0
1000230e:	468b      	mov	fp, r1
10002310:	2200      	movs	r2, #0
10002312:	4b8a      	ldr	r3, [pc, #552]	; (1000253c <_etoa+0x2e4>)
10002314:	4640      	mov	r0, r8
10002316:	4649      	mov	r1, r9
10002318:	f7ff fcc0 	bl	10001c9c <__wrap___aeabi_dsub>
1000231c:	a378      	add	r3, pc, #480	; (adr r3, 10002500 <_etoa+0x2a8>)
1000231e:	e9d3 2300 	ldrd	r2, r3, [r3]
10002322:	f7ff fccf 	bl	10001cc4 <__wrap___aeabi_dmul>
10002326:	4602      	mov	r2, r0
10002328:	460b      	mov	r3, r1
1000232a:	4650      	mov	r0, sl
1000232c:	4659      	mov	r1, fp
1000232e:	f7ff fca1 	bl	10001c74 <__wrap___aeabi_dadd>
10002332:	f7ff fd6d 	bl	10001e10 <__wrap___aeabi_d2iz>
10002336:	4682      	mov	sl, r0
10002338:	f7ff fd46 	bl	10001dc8 <__wrap___aeabi_i2d>
1000233c:	4680      	mov	r8, r0
1000233e:	4689      	mov	r9, r1
10002340:	a371      	add	r3, pc, #452	; (adr r3, 10002508 <_etoa+0x2b0>)
10002342:	e9d3 2300 	ldrd	r2, r3, [r3]
10002346:	f7ff fcbd 	bl	10001cc4 <__wrap___aeabi_dmul>
1000234a:	2200      	movs	r2, #0
1000234c:	4b7c      	ldr	r3, [pc, #496]	; (10002540 <_etoa+0x2e8>)
1000234e:	f7ff fc91 	bl	10001c74 <__wrap___aeabi_dadd>
10002352:	f7ff fd5d 	bl	10001e10 <__wrap___aeabi_d2iz>
10002356:	4683      	mov	fp, r0
10002358:	a36d      	add	r3, pc, #436	; (adr r3, 10002510 <_etoa+0x2b8>)
1000235a:	e9d3 2300 	ldrd	r2, r3, [r3]
1000235e:	4640      	mov	r0, r8
10002360:	4649      	mov	r1, r9
10002362:	f7ff fcaf 	bl	10001cc4 <__wrap___aeabi_dmul>
10002366:	4680      	mov	r8, r0
10002368:	4689      	mov	r9, r1
1000236a:	4658      	mov	r0, fp
1000236c:	f7ff fd2c 	bl	10001dc8 <__wrap___aeabi_i2d>
10002370:	a369      	add	r3, pc, #420	; (adr r3, 10002518 <_etoa+0x2c0>)
10002372:	e9d3 2300 	ldrd	r2, r3, [r3]
10002376:	f7ff fca5 	bl	10001cc4 <__wrap___aeabi_dmul>
1000237a:	4602      	mov	r2, r0
1000237c:	460b      	mov	r3, r1
1000237e:	4640      	mov	r0, r8
10002380:	4649      	mov	r1, r9
10002382:	f7ff fc8b 	bl	10001c9c <__wrap___aeabi_dsub>
10002386:	4680      	mov	r8, r0
10002388:	4689      	mov	r9, r1
1000238a:	4602      	mov	r2, r0
1000238c:	460b      	mov	r3, r1
1000238e:	f7ff fc99 	bl	10001cc4 <__wrap___aeabi_dmul>
10002392:	e9cd 010a 	strd	r0, r1, [sp, #40]	; 0x28
10002396:	f20b 3bff 	addw	fp, fp, #1023	; 0x3ff
1000239a:	2100      	movs	r1, #0
1000239c:	2200      	movs	r2, #0
1000239e:	e9cd 1208 	strd	r1, r2, [sp, #32]
100023a2:	ea4f 530b 	mov.w	r3, fp, lsl #20
100023a6:	9309      	str	r3, [sp, #36]	; 0x24
100023a8:	2300      	movs	r3, #0
100023aa:	9308      	str	r3, [sp, #32]
100023ac:	4642      	mov	r2, r8
100023ae:	464b      	mov	r3, r9
100023b0:	4640      	mov	r0, r8
100023b2:	4649      	mov	r1, r9
100023b4:	f7ff fc5e 	bl	10001c74 <__wrap___aeabi_dadd>
100023b8:	e9cd 010e 	strd	r0, r1, [sp, #56]	; 0x38
100023bc:	4642      	mov	r2, r8
100023be:	464b      	mov	r3, r9
100023c0:	2000      	movs	r0, #0
100023c2:	f04f 4180 	mov.w	r1, #1073741824	; 0x40000000
100023c6:	f7ff fc69 	bl	10001c9c <__wrap___aeabi_dsub>
100023ca:	4680      	mov	r8, r0
100023cc:	4689      	mov	r9, r1
100023ce:	2200      	movs	r2, #0
100023d0:	4b5c      	ldr	r3, [pc, #368]	; (10002544 <_etoa+0x2ec>)
100023d2:	e9dd 010a 	ldrd	r0, r1, [sp, #40]	; 0x28
100023d6:	f7ff fc9b 	bl	10001d10 <__wrap___aeabi_ddiv>
100023da:	2200      	movs	r2, #0
100023dc:	4b5a      	ldr	r3, [pc, #360]	; (10002548 <_etoa+0x2f0>)
100023de:	f7ff fc49 	bl	10001c74 <__wrap___aeabi_dadd>
100023e2:	4602      	mov	r2, r0
100023e4:	460b      	mov	r3, r1
100023e6:	e9dd 010a 	ldrd	r0, r1, [sp, #40]	; 0x28
100023ea:	f7ff fc91 	bl	10001d10 <__wrap___aeabi_ddiv>
100023ee:	2200      	movs	r2, #0
100023f0:	4b56      	ldr	r3, [pc, #344]	; (1000254c <_etoa+0x2f4>)
100023f2:	f7ff fc3f 	bl	10001c74 <__wrap___aeabi_dadd>
100023f6:	4602      	mov	r2, r0
100023f8:	460b      	mov	r3, r1
100023fa:	e9dd 010a 	ldrd	r0, r1, [sp, #40]	; 0x28
100023fe:	f7ff fc87 	bl	10001d10 <__wrap___aeabi_ddiv>
10002402:	4602      	mov	r2, r0
10002404:	460b      	mov	r3, r1
10002406:	4640      	mov	r0, r8
10002408:	4649      	mov	r1, r9
1000240a:	f7ff fc33 	bl	10001c74 <__wrap___aeabi_dadd>
1000240e:	4602      	mov	r2, r0
10002410:	460b      	mov	r3, r1
10002412:	e9dd 010e 	ldrd	r0, r1, [sp, #56]	; 0x38
10002416:	f7ff fc7b 	bl	10001d10 <__wrap___aeabi_ddiv>
1000241a:	2200      	movs	r2, #0
1000241c:	4b4c      	ldr	r3, [pc, #304]	; (10002550 <_etoa+0x2f8>)
1000241e:	f7ff fc29 	bl	10001c74 <__wrap___aeabi_dadd>
10002422:	e9dd 2308 	ldrd	r2, r3, [sp, #32]
10002426:	f7ff fc4d 	bl	10001cc4 <__wrap___aeabi_dmul>
1000242a:	4680      	mov	r8, r0
1000242c:	4689      	mov	r9, r1
1000242e:	e9cd 8908 	strd	r8, r9, [sp, #32]
10002432:	e9dd 2306 	ldrd	r2, r3, [sp, #24]
10002436:	f7ff fd5d 	bl	10001ef4 <__wrap___aeabi_dcmpgt>
1000243a:	b350      	cbz	r0, 10002492 <_etoa+0x23a>
1000243c:	f10a 3aff 	add.w	sl, sl, #4294967295
10002440:	2200      	movs	r2, #0
10002442:	4b41      	ldr	r3, [pc, #260]	; (10002548 <_etoa+0x2f0>)
10002444:	4640      	mov	r0, r8
10002446:	4649      	mov	r1, r9
10002448:	f7ff fc62 	bl	10001d10 <__wrap___aeabi_ddiv>
1000244c:	e9cd 0108 	strd	r0, r1, [sp, #32]
10002450:	e01f      	b.n	10002492 <_etoa+0x23a>
10002452:	9b1e      	ldr	r3, [sp, #120]	; 0x78
10002454:	9304      	str	r3, [sp, #16]
10002456:	9b1d      	ldr	r3, [sp, #116]	; 0x74
10002458:	9303      	str	r3, [sp, #12]
1000245a:	9b1c      	ldr	r3, [sp, #112]	; 0x70
1000245c:	9302      	str	r3, [sp, #8]
1000245e:	ed9d 7b1a 	vldr	d7, [sp, #104]	; 0x68
10002462:	ed8d 7b00 	vstr	d7, [sp]
10002466:	4633      	mov	r3, r6
10002468:	463a      	mov	r2, r7
1000246a:	4629      	mov	r1, r5
1000246c:	4620      	mov	r0, r4
1000246e:	f000 f903 	bl	10002678 <_ftoa>
10002472:	b011      	add	sp, #68	; 0x44
10002474:	e8bd 8ff0 	ldmia.w	sp!, {r4, r5, r6, r7, r8, r9, sl, fp, pc}
10002478:	ed9f 7b29 	vldr	d7, [pc, #164]	; 10002520 <_etoa+0x2c8>
1000247c:	ed8d 7b06 	vstr	d7, [sp, #24]
10002480:	9b1a      	ldr	r3, [sp, #104]	; 0x68
10002482:	9306      	str	r3, [sp, #24]
10002484:	9b1b      	ldr	r3, [sp, #108]	; 0x6c
10002486:	f103 4300 	add.w	r3, r3, #2147483648	; 0x80000000
1000248a:	9307      	str	r3, [sp, #28]
1000248c:	e716      	b.n	100022bc <_etoa+0x64>
1000248e:	f04f 0a00 	mov.w	sl, #0
10002492:	f10a 0363 	add.w	r3, sl, #99	; 0x63
10002496:	2bc6      	cmp	r3, #198	; 0xc6
10002498:	d827      	bhi.n	100024ea <_etoa+0x292>
1000249a:	f04f 0804 	mov.w	r8, #4
1000249e:	9b1e      	ldr	r3, [sp, #120]	; 0x78
100024a0:	f413 6f00 	tst.w	r3, #2048	; 0x800
100024a4:	d05f      	beq.n	10002566 <_etoa+0x30e>
100024a6:	e9dd 1208 	ldrd	r1, r2, [sp, #32]
100024aa:	4613      	mov	r3, r2
100024ac:	430b      	orrs	r3, r1
100024ae:	d013      	beq.n	100024d8 <_etoa+0x280>
100024b0:	a31d      	add	r3, pc, #116	; (adr r3, 10002528 <_etoa+0x2d0>)
100024b2:	e9d3 2300 	ldrd	r2, r3, [r3]
100024b6:	e9dd 0106 	ldrd	r0, r1, [sp, #24]
100024ba:	f7ff fd07 	bl	10001ecc <__wrap___aeabi_dcmpge>
100024be:	2800      	cmp	r0, #0
100024c0:	f000 80b4 	beq.w	1000262c <_etoa+0x3d4>
100024c4:	a31a      	add	r3, pc, #104	; (adr r3, 10002530 <_etoa+0x2d8>)
100024c6:	e9d3 2300 	ldrd	r2, r3, [r3]
100024ca:	e9dd 0106 	ldrd	r0, r1, [sp, #24]
100024ce:	f7ff fcd5 	bl	10001e7c <__wrap___aeabi_dcmplt>
100024d2:	2800      	cmp	r0, #0
100024d4:	f000 80aa 	beq.w	1000262c <_etoa+0x3d4>
100024d8:	9b1c      	ldr	r3, [sp, #112]	; 0x70
100024da:	4553      	cmp	r3, sl
100024dc:	dd3a      	ble.n	10002554 <_etoa+0x2fc>
100024de:	eba3 0a0a 	sub.w	sl, r3, sl
100024e2:	f10a 33ff 	add.w	r3, sl, #4294967295
100024e6:	931c      	str	r3, [sp, #112]	; 0x70
100024e8:	e036      	b.n	10002558 <_etoa+0x300>
100024ea:	f04f 0805 	mov.w	r8, #5
100024ee:	e7d6      	b.n	1000249e <_etoa+0x246>
100024f0:	509f79fb 	.word	0x509f79fb
100024f4:	3fd34413 	.word	0x3fd34413
100024f8:	8b60c8b3 	.word	0x8b60c8b3
100024fc:	3fc68a28 	.word	0x3fc68a28
10002500:	636f4361 	.word	0x636f4361
10002504:	3fd287a7 	.word	0x3fd287a7
10002508:	0979a371 	.word	0x0979a371
1000250c:	400a934f 	.word	0x400a934f
10002510:	bbb55516 	.word	0xbbb55516
10002514:	40026bb1 	.word	0x40026bb1
10002518:	fefa39ef 	.word	0xfefa39ef
1000251c:	3fe62e42 	.word	0x3fe62e42
	...
10002528:	eb1c432d 	.word	0xeb1c432d
1000252c:	3f1a36e2 	.word	0x3f1a36e2
10002530:	00000000 	.word	0x00000000
10002534:	412e8480 	.word	0x412e8480
10002538:	7fefffff 	.word	0x7fefffff
1000253c:	3ff80000 	.word	0x3ff80000
10002540:	3fe00000 	.word	0x3fe00000
10002544:	402c0000 	.word	0x402c0000
10002548:	40240000 	.word	0x40240000
1000254c:	40180000 	.word	0x40180000
10002550:	3ff00000 	.word	0x3ff00000
10002554:	2300      	movs	r3, #0
10002556:	931c      	str	r3, [sp, #112]	; 0x70
10002558:	9b1e      	ldr	r3, [sp, #120]	; 0x78
1000255a:	f443 6380 	orr.w	r3, r3, #1024	; 0x400
1000255e:	931e      	str	r3, [sp, #120]	; 0x78
10002560:	f04f 0800 	mov.w	r8, #0
10002564:	46c2      	mov	sl, r8
10002566:	9b1d      	ldr	r3, [sp, #116]	; 0x74
10002568:	4598      	cmp	r8, r3
1000256a:	d269      	bcs.n	10002640 <_etoa+0x3e8>
1000256c:	eba3 0908 	sub.w	r9, r3, r8
10002570:	9b1e      	ldr	r3, [sp, #120]	; 0x78
10002572:	f013 0b02 	ands.w	fp, r3, #2
10002576:	d004      	beq.n	10002582 <_etoa+0x32a>
10002578:	f1b8 0f00 	cmp.w	r8, #0
1000257c:	d001      	beq.n	10002582 <_etoa+0x32a>
1000257e:	f04f 0900 	mov.w	r9, #0
10002582:	f1ba 0f00 	cmp.w	sl, #0
10002586:	d007      	beq.n	10002598 <_etoa+0x340>
10002588:	e9dd 2308 	ldrd	r2, r3, [sp, #32]
1000258c:	e9dd 0106 	ldrd	r0, r1, [sp, #24]
10002590:	f7ff fbbe 	bl	10001d10 <__wrap___aeabi_ddiv>
10002594:	e9cd 0106 	strd	r0, r1, [sp, #24]
10002598:	2200      	movs	r2, #0
1000259a:	2300      	movs	r3, #0
1000259c:	e9dd 011a 	ldrd	r0, r1, [sp, #104]	; 0x68
100025a0:	f7ff fc6c 	bl	10001e7c <__wrap___aeabi_dcmplt>
100025a4:	2800      	cmp	r0, #0
100025a6:	d14e      	bne.n	10002646 <_etoa+0x3ee>
100025a8:	9b1e      	ldr	r3, [sp, #120]	; 0x78
100025aa:	f423 6300 	bic.w	r3, r3, #2048	; 0x800
100025ae:	9304      	str	r3, [sp, #16]
100025b0:	f8cd 900c 	str.w	r9, [sp, #12]
100025b4:	9b1c      	ldr	r3, [sp, #112]	; 0x70
100025b6:	9302      	str	r3, [sp, #8]
100025b8:	ed9d 7b06 	vldr	d7, [sp, #24]
100025bc:	ed8d 7b00 	vstr	d7, [sp]
100025c0:	4633      	mov	r3, r6
100025c2:	463a      	mov	r2, r7
100025c4:	4629      	mov	r1, r5
100025c6:	4620      	mov	r0, r4
100025c8:	f000 f856 	bl	10002678 <_ftoa>
100025cc:	f1b8 0f00 	cmp.w	r8, #0
100025d0:	f43f af4f 	beq.w	10002472 <_etoa+0x21a>
100025d4:	9b1e      	ldr	r3, [sp, #120]	; 0x78
100025d6:	f013 0f20 	tst.w	r3, #32
100025da:	d03c      	beq.n	10002656 <_etoa+0x3fe>
100025dc:	f04f 0c45 	mov.w	ip, #69	; 0x45
100025e0:	f100 0901 	add.w	r9, r0, #1
100025e4:	4633      	mov	r3, r6
100025e6:	4602      	mov	r2, r0
100025e8:	4629      	mov	r1, r5
100025ea:	4660      	mov	r0, ip
100025ec:	47a0      	blx	r4
100025ee:	ea8a 72ea 	eor.w	r2, sl, sl, asr #31
100025f2:	eba2 72ea 	sub.w	r2, r2, sl, asr #31
100025f6:	2305      	movs	r3, #5
100025f8:	9305      	str	r3, [sp, #20]
100025fa:	f108 33ff 	add.w	r3, r8, #4294967295
100025fe:	9304      	str	r3, [sp, #16]
10002600:	2300      	movs	r3, #0
10002602:	9303      	str	r3, [sp, #12]
10002604:	230a      	movs	r3, #10
10002606:	9302      	str	r3, [sp, #8]
10002608:	ea4f 70da 	mov.w	r0, sl, lsr #31
1000260c:	9001      	str	r0, [sp, #4]
1000260e:	9200      	str	r2, [sp, #0]
10002610:	4633      	mov	r3, r6
10002612:	464a      	mov	r2, r9
10002614:	4629      	mov	r1, r5
10002616:	4620      	mov	r0, r4
10002618:	f7ff fd71 	bl	100020fe <_ntoa_long>
1000261c:	f1bb 0f00 	cmp.w	fp, #0
10002620:	f43f af27 	beq.w	10002472 <_etoa+0x21a>
10002624:	4602      	mov	r2, r0
10002626:	f8dd 9074 	ldr.w	r9, [sp, #116]	; 0x74
1000262a:	e01e      	b.n	1000266a <_etoa+0x412>
1000262c:	9b1c      	ldr	r3, [sp, #112]	; 0x70
1000262e:	2b00      	cmp	r3, #0
10002630:	d099      	beq.n	10002566 <_etoa+0x30e>
10002632:	9b0d      	ldr	r3, [sp, #52]	; 0x34
10002634:	2b00      	cmp	r3, #0
10002636:	d096      	beq.n	10002566 <_etoa+0x30e>
10002638:	9b1c      	ldr	r3, [sp, #112]	; 0x70
1000263a:	3b01      	subs	r3, #1
1000263c:	931c      	str	r3, [sp, #112]	; 0x70
1000263e:	e792      	b.n	10002566 <_etoa+0x30e>
10002640:	f04f 0900 	mov.w	r9, #0
10002644:	e794      	b.n	10002570 <_etoa+0x318>
10002646:	e9dd 0106 	ldrd	r0, r1, [sp, #24]
1000264a:	4602      	mov	r2, r0
1000264c:	f101 4300 	add.w	r3, r1, #2147483648	; 0x80000000
10002650:	e9cd 2306 	strd	r2, r3, [sp, #24]
10002654:	e7a8      	b.n	100025a8 <_etoa+0x350>
10002656:	f04f 0c65 	mov.w	ip, #101	; 0x65
1000265a:	e7c1      	b.n	100025e0 <_etoa+0x388>
1000265c:	f102 0801 	add.w	r8, r2, #1
10002660:	4633      	mov	r3, r6
10002662:	4629      	mov	r1, r5
10002664:	2020      	movs	r0, #32
10002666:	47a0      	blx	r4
10002668:	4642      	mov	r2, r8
1000266a:	1bd3      	subs	r3, r2, r7
1000266c:	454b      	cmp	r3, r9
1000266e:	d3f5      	bcc.n	1000265c <_etoa+0x404>
10002670:	4610      	mov	r0, r2
10002672:	e6fe      	b.n	10002472 <_etoa+0x21a>
10002674:	0000      	movs	r0, r0
	...

10002678 <_ftoa>:
10002678:	e92d 4ff0 	stmdb	sp!, {r4, r5, r6, r7, r8, r9, sl, fp, lr}
1000267c:	ed2d 8b02 	vpush	{d8}
10002680:	b095      	sub	sp, #84	; 0x54
10002682:	9007      	str	r0, [sp, #28]
10002684:	910a      	str	r1, [sp, #40]	; 0x28
10002686:	4692      	mov	sl, r2
10002688:	469b      	mov	fp, r3
1000268a:	e9dd 8920 	ldrd	r8, r9, [sp, #128]	; 0x80
1000268e:	9d22      	ldr	r5, [sp, #136]	; 0x88
10002690:	4642      	mov	r2, r8
10002692:	464b      	mov	r3, r9
10002694:	4640      	mov	r0, r8
10002696:	4649      	mov	r1, r9
10002698:	f7ff fbde 	bl	10001e58 <__wrap___aeabi_dcmpun>
1000269c:	2800      	cmp	r0, #0
1000269e:	d135      	bne.n	1000270c <_ftoa+0x94>
100026a0:	f04f 32ff 	mov.w	r2, #4294967295
100026a4:	f46f 1380 	mvn.w	r3, #1048576	; 0x100000
100026a8:	4640      	mov	r0, r8
100026aa:	4649      	mov	r1, r9
100026ac:	f7ff fbe6 	bl	10001e7c <__wrap___aeabi_dcmplt>
100026b0:	2800      	cmp	r0, #0
100026b2:	d13a      	bne.n	1000272a <_ftoa+0xb2>
100026b4:	f04f 32ff 	mov.w	r2, #4294967295
100026b8:	4b9f      	ldr	r3, [pc, #636]	; (10002938 <_ftoa+0x2c0>)
100026ba:	4640      	mov	r0, r8
100026bc:	4649      	mov	r1, r9
100026be:	f7ff fc19 	bl	10001ef4 <__wrap___aeabi_dcmpgt>
100026c2:	2800      	cmp	r0, #0
100026c4:	d140      	bne.n	10002748 <_ftoa+0xd0>
100026c6:	a398      	add	r3, pc, #608	; (adr r3, 10002928 <_ftoa+0x2b0>)
100026c8:	e9d3 2300 	ldrd	r2, r3, [r3]
100026cc:	4640      	mov	r0, r8
100026ce:	4649      	mov	r1, r9
100026d0:	f7ff fc10 	bl	10001ef4 <__wrap___aeabi_dcmpgt>
100026d4:	2800      	cmp	r0, #0
100026d6:	d14f      	bne.n	10002778 <_ftoa+0x100>
100026d8:	a395      	add	r3, pc, #596	; (adr r3, 10002930 <_ftoa+0x2b8>)
100026da:	e9d3 2300 	ldrd	r2, r3, [r3]
100026de:	4640      	mov	r0, r8
100026e0:	4649      	mov	r1, r9
100026e2:	f7ff fbcb 	bl	10001e7c <__wrap___aeabi_dcmplt>
100026e6:	2800      	cmp	r0, #0
100026e8:	d146      	bne.n	10002778 <_ftoa+0x100>
100026ea:	2200      	movs	r2, #0
100026ec:	2300      	movs	r3, #0
100026ee:	4640      	mov	r0, r8
100026f0:	4649      	mov	r1, r9
100026f2:	f7ff fbc3 	bl	10001e7c <__wrap___aeabi_dcmplt>
100026f6:	2800      	cmp	r0, #0
100026f8:	d14c      	bne.n	10002794 <_ftoa+0x11c>
100026fa:	2300      	movs	r3, #0
100026fc:	930b      	str	r3, [sp, #44]	; 0x2c
100026fe:	9b24      	ldr	r3, [sp, #144]	; 0x90
10002700:	f413 6f80 	tst.w	r3, #1024	; 0x400
10002704:	f000 80b7 	beq.w	10002876 <_ftoa+0x1fe>
10002708:	2400      	movs	r4, #0
1000270a:	e056      	b.n	100027ba <_ftoa+0x142>
1000270c:	9b24      	ldr	r3, [sp, #144]	; 0x90
1000270e:	9303      	str	r3, [sp, #12]
10002710:	9b23      	ldr	r3, [sp, #140]	; 0x8c
10002712:	9302      	str	r3, [sp, #8]
10002714:	2303      	movs	r3, #3
10002716:	9301      	str	r3, [sp, #4]
10002718:	4b88      	ldr	r3, [pc, #544]	; (1000293c <_ftoa+0x2c4>)
1000271a:	9300      	str	r3, [sp, #0]
1000271c:	465b      	mov	r3, fp
1000271e:	4652      	mov	r2, sl
10002720:	990a      	ldr	r1, [sp, #40]	; 0x28
10002722:	9807      	ldr	r0, [sp, #28]
10002724:	f7ff fc10 	bl	10001f48 <_out_rev>
10002728:	e137      	b.n	1000299a <_ftoa+0x322>
1000272a:	9b24      	ldr	r3, [sp, #144]	; 0x90
1000272c:	9303      	str	r3, [sp, #12]
1000272e:	9b23      	ldr	r3, [sp, #140]	; 0x8c
10002730:	9302      	str	r3, [sp, #8]
10002732:	2304      	movs	r3, #4
10002734:	9301      	str	r3, [sp, #4]
10002736:	4b82      	ldr	r3, [pc, #520]	; (10002940 <_ftoa+0x2c8>)
10002738:	9300      	str	r3, [sp, #0]
1000273a:	465b      	mov	r3, fp
1000273c:	4652      	mov	r2, sl
1000273e:	990a      	ldr	r1, [sp, #40]	; 0x28
10002740:	9807      	ldr	r0, [sp, #28]
10002742:	f7ff fc01 	bl	10001f48 <_out_rev>
10002746:	e128      	b.n	1000299a <_ftoa+0x322>
10002748:	9b24      	ldr	r3, [sp, #144]	; 0x90
1000274a:	f013 0304 	ands.w	r3, r3, #4
1000274e:	d00f      	beq.n	10002770 <_ftoa+0xf8>
10002750:	4a7c      	ldr	r2, [pc, #496]	; (10002944 <_ftoa+0x2cc>)
10002752:	b17b      	cbz	r3, 10002774 <_ftoa+0xfc>
10002754:	2304      	movs	r3, #4
10002756:	9924      	ldr	r1, [sp, #144]	; 0x90
10002758:	9103      	str	r1, [sp, #12]
1000275a:	9923      	ldr	r1, [sp, #140]	; 0x8c
1000275c:	9102      	str	r1, [sp, #8]
1000275e:	9301      	str	r3, [sp, #4]
10002760:	9200      	str	r2, [sp, #0]
10002762:	465b      	mov	r3, fp
10002764:	4652      	mov	r2, sl
10002766:	990a      	ldr	r1, [sp, #40]	; 0x28
10002768:	9807      	ldr	r0, [sp, #28]
1000276a:	f7ff fbed 	bl	10001f48 <_out_rev>
1000276e:	e114      	b.n	1000299a <_ftoa+0x322>
10002770:	4a75      	ldr	r2, [pc, #468]	; (10002948 <_ftoa+0x2d0>)
10002772:	e7ee      	b.n	10002752 <_ftoa+0xda>
10002774:	2303      	movs	r3, #3
10002776:	e7ee      	b.n	10002756 <_ftoa+0xde>
10002778:	9b24      	ldr	r3, [sp, #144]	; 0x90
1000277a:	9304      	str	r3, [sp, #16]
1000277c:	9b23      	ldr	r3, [sp, #140]	; 0x8c
1000277e:	9303      	str	r3, [sp, #12]
10002780:	9502      	str	r5, [sp, #8]
10002782:	e9cd 8900 	strd	r8, r9, [sp]
10002786:	465b      	mov	r3, fp
10002788:	4652      	mov	r2, sl
1000278a:	990a      	ldr	r1, [sp, #40]	; 0x28
1000278c:	9807      	ldr	r0, [sp, #28]
1000278e:	f7ff fd63 	bl	10002258 <_etoa>
10002792:	e102      	b.n	1000299a <_ftoa+0x322>
10002794:	4642      	mov	r2, r8
10002796:	464b      	mov	r3, r9
10002798:	2000      	movs	r0, #0
1000279a:	2100      	movs	r1, #0
1000279c:	f7ff fa7e 	bl	10001c9c <__wrap___aeabi_dsub>
100027a0:	4680      	mov	r8, r0
100027a2:	4689      	mov	r9, r1
100027a4:	2301      	movs	r3, #1
100027a6:	930b      	str	r3, [sp, #44]	; 0x2c
100027a8:	e7a9      	b.n	100026fe <_ftoa+0x86>
100027aa:	f104 0350 	add.w	r3, r4, #80	; 0x50
100027ae:	446b      	add	r3, sp
100027b0:	2230      	movs	r2, #48	; 0x30
100027b2:	f803 2c20 	strb.w	r2, [r3, #-32]
100027b6:	3d01      	subs	r5, #1
100027b8:	3401      	adds	r4, #1
100027ba:	2c1f      	cmp	r4, #31
100027bc:	d801      	bhi.n	100027c2 <_ftoa+0x14a>
100027be:	2d09      	cmp	r5, #9
100027c0:	d8f3      	bhi.n	100027aa <_ftoa+0x132>
100027c2:	4640      	mov	r0, r8
100027c4:	4649      	mov	r1, r9
100027c6:	f7ff fb23 	bl	10001e10 <__wrap___aeabi_d2iz>
100027ca:	4606      	mov	r6, r0
100027cc:	f7ff fafc 	bl	10001dc8 <__wrap___aeabi_i2d>
100027d0:	4602      	mov	r2, r0
100027d2:	460b      	mov	r3, r1
100027d4:	4640      	mov	r0, r8
100027d6:	4649      	mov	r1, r9
100027d8:	f7ff fa60 	bl	10001c9c <__wrap___aeabi_dsub>
100027dc:	4b5b      	ldr	r3, [pc, #364]	; (1000294c <_ftoa+0x2d4>)
100027de:	eb03 03c5 	add.w	r3, r3, r5, lsl #3
100027e2:	ed93 8b00 	vldr	d8, [r3]
100027e6:	ec53 2b18 	vmov	r2, r3, d8
100027ea:	f7ff fa6b 	bl	10001cc4 <__wrap___aeabi_dmul>
100027ee:	4602      	mov	r2, r0
100027f0:	460b      	mov	r3, r1
100027f2:	e9cd 2308 	strd	r2, r3, [sp, #32]
100027f6:	f7ff fb1d 	bl	10001e34 <__wrap___aeabi_d2uiz>
100027fa:	4607      	mov	r7, r0
100027fc:	f7ff faf6 	bl	10001dec <__wrap___aeabi_ui2d>
10002800:	4602      	mov	r2, r0
10002802:	460b      	mov	r3, r1
10002804:	e9dd 0108 	ldrd	r0, r1, [sp, #32]
10002808:	f7ff fa48 	bl	10001c9c <__wrap___aeabi_dsub>
1000280c:	4602      	mov	r2, r0
1000280e:	460b      	mov	r3, r1
10002810:	e9cd 2308 	strd	r2, r3, [sp, #32]
10002814:	2200      	movs	r2, #0
10002816:	4b4e      	ldr	r3, [pc, #312]	; (10002950 <_ftoa+0x2d8>)
10002818:	f7ff fb6c 	bl	10001ef4 <__wrap___aeabi_dcmpgt>
1000281c:	b368      	cbz	r0, 1000287a <_ftoa+0x202>
1000281e:	3701      	adds	r7, #1
10002820:	4638      	mov	r0, r7
10002822:	f7ff fae3 	bl	10001dec <__wrap___aeabi_ui2d>
10002826:	4602      	mov	r2, r0
10002828:	460b      	mov	r3, r1
1000282a:	ec51 0b18 	vmov	r0, r1, d8
1000282e:	f7ff fb39 	bl	10001ea4 <__wrap___aeabi_dcmple>
10002832:	b108      	cbz	r0, 10002838 <_ftoa+0x1c0>
10002834:	3601      	adds	r6, #1
10002836:	2700      	movs	r7, #0
10002838:	bb6d      	cbnz	r5, 10002896 <_ftoa+0x21e>
1000283a:	4630      	mov	r0, r6
1000283c:	f7ff fac4 	bl	10001dc8 <__wrap___aeabi_i2d>
10002840:	4602      	mov	r2, r0
10002842:	460b      	mov	r3, r1
10002844:	4640      	mov	r0, r8
10002846:	4649      	mov	r1, r9
10002848:	f7ff fa28 	bl	10001c9c <__wrap___aeabi_dsub>
1000284c:	4607      	mov	r7, r0
1000284e:	4688      	mov	r8, r1
10002850:	2200      	movs	r2, #0
10002852:	4b3f      	ldr	r3, [pc, #252]	; (10002950 <_ftoa+0x2d8>)
10002854:	f7ff fb12 	bl	10001e7c <__wrap___aeabi_dcmplt>
10002858:	2800      	cmp	r0, #0
1000285a:	d14c      	bne.n	100028f6 <_ftoa+0x27e>
1000285c:	2200      	movs	r2, #0
1000285e:	4b3c      	ldr	r3, [pc, #240]	; (10002950 <_ftoa+0x2d8>)
10002860:	4638      	mov	r0, r7
10002862:	4641      	mov	r1, r8
10002864:	f7ff fb46 	bl	10001ef4 <__wrap___aeabi_dcmpgt>
10002868:	2800      	cmp	r0, #0
1000286a:	d144      	bne.n	100028f6 <_ftoa+0x27e>
1000286c:	f016 0f01 	tst.w	r6, #1
10002870:	d041      	beq.n	100028f6 <_ftoa+0x27e>
10002872:	3601      	adds	r6, #1
10002874:	e03f      	b.n	100028f6 <_ftoa+0x27e>
10002876:	2506      	movs	r5, #6
10002878:	e746      	b.n	10002708 <_ftoa+0x90>
1000287a:	2200      	movs	r2, #0
1000287c:	4b34      	ldr	r3, [pc, #208]	; (10002950 <_ftoa+0x2d8>)
1000287e:	e9dd 0108 	ldrd	r0, r1, [sp, #32]
10002882:	f7ff fafb 	bl	10001e7c <__wrap___aeabi_dcmplt>
10002886:	2800      	cmp	r0, #0
10002888:	d1d6      	bne.n	10002838 <_ftoa+0x1c0>
1000288a:	b117      	cbz	r7, 10002892 <_ftoa+0x21a>
1000288c:	f017 0f01 	tst.w	r7, #1
10002890:	d0d2      	beq.n	10002838 <_ftoa+0x1c0>
10002892:	3701      	adds	r7, #1
10002894:	e7d0      	b.n	10002838 <_ftoa+0x1c0>
10002896:	2c1f      	cmp	r4, #31
10002898:	d817      	bhi.n	100028ca <_ftoa+0x252>
1000289a:	3d01      	subs	r5, #1
1000289c:	4b2d      	ldr	r3, [pc, #180]	; (10002954 <_ftoa+0x2dc>)
1000289e:	fba3 2307 	umull	r2, r3, r3, r7
100028a2:	08db      	lsrs	r3, r3, #3
100028a4:	4619      	mov	r1, r3
100028a6:	eb03 0383 	add.w	r3, r3, r3, lsl #2
100028aa:	eba7 0343 	sub.w	r3, r7, r3, lsl #1
100028ae:	1c62      	adds	r2, r4, #1
100028b0:	3330      	adds	r3, #48	; 0x30
100028b2:	f104 0050 	add.w	r0, r4, #80	; 0x50
100028b6:	eb0d 0400 	add.w	r4, sp, r0
100028ba:	f804 3c20 	strb.w	r3, [r4, #-32]
100028be:	2f09      	cmp	r7, #9
100028c0:	d902      	bls.n	100028c8 <_ftoa+0x250>
100028c2:	460f      	mov	r7, r1
100028c4:	4614      	mov	r4, r2
100028c6:	e7e6      	b.n	10002896 <_ftoa+0x21e>
100028c8:	4614      	mov	r4, r2
100028ca:	2c1f      	cmp	r4, #31
100028cc:	d80a      	bhi.n	100028e4 <_ftoa+0x26c>
100028ce:	1e6b      	subs	r3, r5, #1
100028d0:	b145      	cbz	r5, 100028e4 <_ftoa+0x26c>
100028d2:	f104 0250 	add.w	r2, r4, #80	; 0x50
100028d6:	446a      	add	r2, sp
100028d8:	2130      	movs	r1, #48	; 0x30
100028da:	f802 1c20 	strb.w	r1, [r2, #-32]
100028de:	461d      	mov	r5, r3
100028e0:	3401      	adds	r4, #1
100028e2:	e7f2      	b.n	100028ca <_ftoa+0x252>
100028e4:	2c1f      	cmp	r4, #31
100028e6:	d806      	bhi.n	100028f6 <_ftoa+0x27e>
100028e8:	f104 0350 	add.w	r3, r4, #80	; 0x50
100028ec:	446b      	add	r3, sp
100028ee:	222e      	movs	r2, #46	; 0x2e
100028f0:	f803 2c20 	strb.w	r2, [r3, #-32]
100028f4:	3401      	adds	r4, #1
100028f6:	2c1f      	cmp	r4, #31
100028f8:	d831      	bhi.n	1000295e <_ftoa+0x2e6>
100028fa:	4a17      	ldr	r2, [pc, #92]	; (10002958 <_ftoa+0x2e0>)
100028fc:	fb82 3206 	smull	r3, r2, r2, r6
10002900:	17f3      	asrs	r3, r6, #31
10002902:	ebc3 03a2 	rsb	r3, r3, r2, asr #2
10002906:	461a      	mov	r2, r3
10002908:	eb03 0383 	add.w	r3, r3, r3, lsl #2
1000290c:	eba6 0343 	sub.w	r3, r6, r3, lsl #1
10002910:	1c61      	adds	r1, r4, #1
10002912:	3330      	adds	r3, #48	; 0x30
10002914:	f104 0050 	add.w	r0, r4, #80	; 0x50
10002918:	eb0d 0400 	add.w	r4, sp, r0
1000291c:	f804 3c20 	strb.w	r3, [r4, #-32]
10002920:	4616      	mov	r6, r2
10002922:	b1da      	cbz	r2, 1000295c <_ftoa+0x2e4>
10002924:	460c      	mov	r4, r1
10002926:	e7e6      	b.n	100028f6 <_ftoa+0x27e>
10002928:	00000000 	.word	0x00000000
1000292c:	41cdcd65 	.word	0x41cdcd65
10002930:	00000000 	.word	0x00000000
10002934:	c1cdcd65 	.word	0xc1cdcd65
10002938:	7fefffff 	.word	0x7fefffff
1000293c:	10006ec4 	.word	0x10006ec4
10002940:	10006ec8 	.word	0x10006ec8
10002944:	10006ebc 	.word	0x10006ebc
10002948:	10006eb8 	.word	0x10006eb8
1000294c:	10006ed0 	.word	0x10006ed0
10002950:	3fe00000 	.word	0x3fe00000
10002954:	cccccccd 	.word	0xcccccccd
10002958:	66666667 	.word	0x66666667
1000295c:	460c      	mov	r4, r1
1000295e:	9b24      	ldr	r3, [sp, #144]	; 0x90
10002960:	f003 0303 	and.w	r3, r3, #3
10002964:	2b01      	cmp	r3, #1
10002966:	d01d      	beq.n	100029a4 <_ftoa+0x32c>
10002968:	2c1f      	cmp	r4, #31
1000296a:	d809      	bhi.n	10002980 <_ftoa+0x308>
1000296c:	9b0b      	ldr	r3, [sp, #44]	; 0x2c
1000296e:	2b00      	cmp	r3, #0
10002970:	d035      	beq.n	100029de <_ftoa+0x366>
10002972:	f104 0350 	add.w	r3, r4, #80	; 0x50
10002976:	446b      	add	r3, sp
10002978:	222d      	movs	r2, #45	; 0x2d
1000297a:	f803 2c20 	strb.w	r2, [r3, #-32]
1000297e:	3401      	adds	r4, #1
10002980:	9b24      	ldr	r3, [sp, #144]	; 0x90
10002982:	9303      	str	r3, [sp, #12]
10002984:	9b23      	ldr	r3, [sp, #140]	; 0x8c
10002986:	9302      	str	r3, [sp, #8]
10002988:	9401      	str	r4, [sp, #4]
1000298a:	ab0c      	add	r3, sp, #48	; 0x30
1000298c:	9300      	str	r3, [sp, #0]
1000298e:	465b      	mov	r3, fp
10002990:	4652      	mov	r2, sl
10002992:	990a      	ldr	r1, [sp, #40]	; 0x28
10002994:	9807      	ldr	r0, [sp, #28]
10002996:	f7ff fad7 	bl	10001f48 <_out_rev>
1000299a:	b015      	add	sp, #84	; 0x54
1000299c:	ecbd 8b02 	vpop	{d8}
100029a0:	e8bd 8ff0 	ldmia.w	sp!, {r4, r5, r6, r7, r8, r9, sl, fp, pc}
100029a4:	9b23      	ldr	r3, [sp, #140]	; 0x8c
100029a6:	b1b3      	cbz	r3, 100029d6 <_ftoa+0x35e>
100029a8:	9b0b      	ldr	r3, [sp, #44]	; 0x2c
100029aa:	b91b      	cbnz	r3, 100029b4 <_ftoa+0x33c>
100029ac:	9b24      	ldr	r3, [sp, #144]	; 0x90
100029ae:	f013 0f0c 	tst.w	r3, #12
100029b2:	d012      	beq.n	100029da <_ftoa+0x362>
100029b4:	9b23      	ldr	r3, [sp, #140]	; 0x8c
100029b6:	3b01      	subs	r3, #1
100029b8:	9323      	str	r3, [sp, #140]	; 0x8c
100029ba:	4619      	mov	r1, r3
100029bc:	e006      	b.n	100029cc <_ftoa+0x354>
100029be:	f104 0350 	add.w	r3, r4, #80	; 0x50
100029c2:	446b      	add	r3, sp
100029c4:	2230      	movs	r2, #48	; 0x30
100029c6:	f803 2c20 	strb.w	r2, [r3, #-32]
100029ca:	3401      	adds	r4, #1
100029cc:	428c      	cmp	r4, r1
100029ce:	d2cb      	bcs.n	10002968 <_ftoa+0x2f0>
100029d0:	2c1f      	cmp	r4, #31
100029d2:	d9f4      	bls.n	100029be <_ftoa+0x346>
100029d4:	e7c8      	b.n	10002968 <_ftoa+0x2f0>
100029d6:	9923      	ldr	r1, [sp, #140]	; 0x8c
100029d8:	e7f8      	b.n	100029cc <_ftoa+0x354>
100029da:	9923      	ldr	r1, [sp, #140]	; 0x8c
100029dc:	e7f6      	b.n	100029cc <_ftoa+0x354>
100029de:	9b24      	ldr	r3, [sp, #144]	; 0x90
100029e0:	f013 0f04 	tst.w	r3, #4
100029e4:	d007      	beq.n	100029f6 <_ftoa+0x37e>
100029e6:	f104 0350 	add.w	r3, r4, #80	; 0x50
100029ea:	446b      	add	r3, sp
100029ec:	222b      	movs	r2, #43	; 0x2b
100029ee:	f803 2c20 	strb.w	r2, [r3, #-32]
100029f2:	3401      	adds	r4, #1
100029f4:	e7c4      	b.n	10002980 <_ftoa+0x308>
100029f6:	9b24      	ldr	r3, [sp, #144]	; 0x90
100029f8:	f013 0f08 	tst.w	r3, #8
100029fc:	d0c0      	beq.n	10002980 <_ftoa+0x308>
100029fe:	f104 0350 	add.w	r3, r4, #80	; 0x50
10002a02:	446b      	add	r3, sp
10002a04:	2220      	movs	r2, #32
10002a06:	f803 2c20 	strb.w	r2, [r3, #-32]
10002a0a:	3401      	adds	r4, #1
10002a0c:	e7b8      	b.n	10002980 <_ftoa+0x308>
10002a0e:	bf00      	nop

10002a10 <_vsnprintf>:
10002a10:	e92d 4ff0 	stmdb	sp!, {r4, r5, r6, r7, r8, r9, sl, fp, lr}
10002a14:	b08f      	sub	sp, #60	; 0x3c
10002a16:	4607      	mov	r7, r0
10002a18:	4616      	mov	r6, r2
10002a1a:	930d      	str	r3, [sp, #52]	; 0x34
10002a1c:	4688      	mov	r8, r1
10002a1e:	2900      	cmp	r1, #0
10002a20:	f000 8324 	beq.w	1000306c <_vsnprintf+0x65c>
10002a24:	2400      	movs	r4, #0
10002a26:	9b0d      	ldr	r3, [sp, #52]	; 0x34
10002a28:	7818      	ldrb	r0, [r3, #0]
10002a2a:	2800      	cmp	r0, #0
10002a2c:	f000 8320 	beq.w	10003070 <_vsnprintf+0x660>
10002a30:	2825      	cmp	r0, #37	; 0x25
10002a32:	d009      	beq.n	10002a48 <_vsnprintf+0x38>
10002a34:	1c65      	adds	r5, r4, #1
10002a36:	4633      	mov	r3, r6
10002a38:	4622      	mov	r2, r4
10002a3a:	4641      	mov	r1, r8
10002a3c:	47b8      	blx	r7
10002a3e:	9b0d      	ldr	r3, [sp, #52]	; 0x34
10002a40:	3301      	adds	r3, #1
10002a42:	930d      	str	r3, [sp, #52]	; 0x34
10002a44:	462c      	mov	r4, r5
10002a46:	e7ee      	b.n	10002a26 <_vsnprintf+0x16>
10002a48:	3301      	adds	r3, #1
10002a4a:	930d      	str	r3, [sp, #52]	; 0x34
10002a4c:	2500      	movs	r5, #0
10002a4e:	9b0d      	ldr	r3, [sp, #52]	; 0x34
10002a50:	7819      	ldrb	r1, [r3, #0]
10002a52:	f1a1 0220 	sub.w	r2, r1, #32
10002a56:	2a10      	cmp	r2, #16
10002a58:	d80a      	bhi.n	10002a70 <_vsnprintf+0x60>
10002a5a:	e8df f002 	tbb	[pc, r2]
10002a5e:	0938      	.short	0x0938
10002a60:	09093d09 	.word	0x09093d09
10002a64:	09090909 	.word	0x09090909
10002a68:	2e093309 	.word	0x2e093309
10002a6c:	0909      	.short	0x0909
10002a6e:	29          	.byte	0x29
10002a6f:	00          	.byte	0x00
10002a70:	f1a1 0330 	sub.w	r3, r1, #48	; 0x30
10002a74:	b2db      	uxtb	r3, r3
10002a76:	2b09      	cmp	r3, #9
10002a78:	d933      	bls.n	10002ae2 <_vsnprintf+0xd2>
10002a7a:	292a      	cmp	r1, #42	; 0x2a
10002a7c:	d036      	beq.n	10002aec <_vsnprintf+0xdc>
10002a7e:	2300      	movs	r3, #0
10002a80:	930a      	str	r3, [sp, #40]	; 0x28
10002a82:	9b0d      	ldr	r3, [sp, #52]	; 0x34
10002a84:	781a      	ldrb	r2, [r3, #0]
10002a86:	2a2e      	cmp	r2, #46	; 0x2e
10002a88:	d040      	beq.n	10002b0c <_vsnprintf+0xfc>
10002a8a:	f04f 0b00 	mov.w	fp, #0
10002a8e:	9a0d      	ldr	r2, [sp, #52]	; 0x34
10002a90:	7813      	ldrb	r3, [r2, #0]
10002a92:	3b68      	subs	r3, #104	; 0x68
10002a94:	2b12      	cmp	r3, #18
10002a96:	d877      	bhi.n	10002b88 <_vsnprintf+0x178>
10002a98:	e8df f003 	tbb	[pc, r3]
10002a9c:	76d37664 	.word	0x76d37664
10002aa0:	76767656 	.word	0x76767656
10002aa4:	76767676 	.word	0x76767676
10002aa8:	76767672 	.word	0x76767672
10002aac:	7676      	.short	0x7676
10002aae:	d8          	.byte	0xd8
10002aaf:	00          	.byte	0x00
10002ab0:	f045 0501 	orr.w	r5, r5, #1
10002ab4:	3301      	adds	r3, #1
10002ab6:	930d      	str	r3, [sp, #52]	; 0x34
10002ab8:	e7c9      	b.n	10002a4e <_vsnprintf+0x3e>
10002aba:	f045 0502 	orr.w	r5, r5, #2
10002abe:	3301      	adds	r3, #1
10002ac0:	930d      	str	r3, [sp, #52]	; 0x34
10002ac2:	e7c4      	b.n	10002a4e <_vsnprintf+0x3e>
10002ac4:	f045 0504 	orr.w	r5, r5, #4
10002ac8:	3301      	adds	r3, #1
10002aca:	930d      	str	r3, [sp, #52]	; 0x34
10002acc:	e7bf      	b.n	10002a4e <_vsnprintf+0x3e>
10002ace:	f045 0508 	orr.w	r5, r5, #8
10002ad2:	3301      	adds	r3, #1
10002ad4:	930d      	str	r3, [sp, #52]	; 0x34
10002ad6:	e7ba      	b.n	10002a4e <_vsnprintf+0x3e>
10002ad8:	f045 0510 	orr.w	r5, r5, #16
10002adc:	3301      	adds	r3, #1
10002ade:	930d      	str	r3, [sp, #52]	; 0x34
10002ae0:	e7b5      	b.n	10002a4e <_vsnprintf+0x3e>
10002ae2:	a80d      	add	r0, sp, #52	; 0x34
10002ae4:	f7ff fa1e 	bl	10001f24 <_atoi>
10002ae8:	900a      	str	r0, [sp, #40]	; 0x28
10002aea:	e7ca      	b.n	10002a82 <_vsnprintf+0x72>
10002aec:	9b18      	ldr	r3, [sp, #96]	; 0x60
10002aee:	1d1a      	adds	r2, r3, #4
10002af0:	9218      	str	r2, [sp, #96]	; 0x60
10002af2:	6818      	ldr	r0, [r3, #0]
10002af4:	2800      	cmp	r0, #0
10002af6:	db04      	blt.n	10002b02 <_vsnprintf+0xf2>
10002af8:	900a      	str	r0, [sp, #40]	; 0x28
10002afa:	9b0d      	ldr	r3, [sp, #52]	; 0x34
10002afc:	3301      	adds	r3, #1
10002afe:	930d      	str	r3, [sp, #52]	; 0x34
10002b00:	e7bf      	b.n	10002a82 <_vsnprintf+0x72>
10002b02:	f045 0502 	orr.w	r5, r5, #2
10002b06:	4243      	negs	r3, r0
10002b08:	930a      	str	r3, [sp, #40]	; 0x28
10002b0a:	e7f6      	b.n	10002afa <_vsnprintf+0xea>
10002b0c:	f445 6580 	orr.w	r5, r5, #1024	; 0x400
10002b10:	1c5a      	adds	r2, r3, #1
10002b12:	920d      	str	r2, [sp, #52]	; 0x34
10002b14:	785a      	ldrb	r2, [r3, #1]
10002b16:	f1a2 0330 	sub.w	r3, r2, #48	; 0x30
10002b1a:	b2db      	uxtb	r3, r3
10002b1c:	2b09      	cmp	r3, #9
10002b1e:	d904      	bls.n	10002b2a <_vsnprintf+0x11a>
10002b20:	2a2a      	cmp	r2, #42	; 0x2a
10002b22:	d007      	beq.n	10002b34 <_vsnprintf+0x124>
10002b24:	f04f 0b00 	mov.w	fp, #0
10002b28:	e7b1      	b.n	10002a8e <_vsnprintf+0x7e>
10002b2a:	a80d      	add	r0, sp, #52	; 0x34
10002b2c:	f7ff f9fa 	bl	10001f24 <_atoi>
10002b30:	4683      	mov	fp, r0
10002b32:	e7ac      	b.n	10002a8e <_vsnprintf+0x7e>
10002b34:	9b18      	ldr	r3, [sp, #96]	; 0x60
10002b36:	1d1a      	adds	r2, r3, #4
10002b38:	9218      	str	r2, [sp, #96]	; 0x60
10002b3a:	681b      	ldr	r3, [r3, #0]
10002b3c:	ea23 7be3 	bic.w	fp, r3, r3, asr #31
10002b40:	9b0d      	ldr	r3, [sp, #52]	; 0x34
10002b42:	3301      	adds	r3, #1
10002b44:	930d      	str	r3, [sp, #52]	; 0x34
10002b46:	e7a2      	b.n	10002a8e <_vsnprintf+0x7e>
10002b48:	f445 7180 	orr.w	r1, r5, #256	; 0x100
10002b4c:	1c53      	adds	r3, r2, #1
10002b4e:	930d      	str	r3, [sp, #52]	; 0x34
10002b50:	7852      	ldrb	r2, [r2, #1]
10002b52:	2a6c      	cmp	r2, #108	; 0x6c
10002b54:	d001      	beq.n	10002b5a <_vsnprintf+0x14a>
10002b56:	460d      	mov	r5, r1
10002b58:	e016      	b.n	10002b88 <_vsnprintf+0x178>
10002b5a:	f445 7540 	orr.w	r5, r5, #768	; 0x300
10002b5e:	3301      	adds	r3, #1
10002b60:	930d      	str	r3, [sp, #52]	; 0x34
10002b62:	e011      	b.n	10002b88 <_vsnprintf+0x178>
10002b64:	f045 0180 	orr.w	r1, r5, #128	; 0x80
10002b68:	1c53      	adds	r3, r2, #1
10002b6a:	930d      	str	r3, [sp, #52]	; 0x34
10002b6c:	7852      	ldrb	r2, [r2, #1]
10002b6e:	2a68      	cmp	r2, #104	; 0x68
10002b70:	d001      	beq.n	10002b76 <_vsnprintf+0x166>
10002b72:	460d      	mov	r5, r1
10002b74:	e008      	b.n	10002b88 <_vsnprintf+0x178>
10002b76:	f045 05c0 	orr.w	r5, r5, #192	; 0xc0
10002b7a:	3301      	adds	r3, #1
10002b7c:	930d      	str	r3, [sp, #52]	; 0x34
10002b7e:	e003      	b.n	10002b88 <_vsnprintf+0x178>
10002b80:	f445 7580 	orr.w	r5, r5, #256	; 0x100
10002b84:	3201      	adds	r2, #1
10002b86:	920d      	str	r2, [sp, #52]	; 0x34
10002b88:	9b0d      	ldr	r3, [sp, #52]	; 0x34
10002b8a:	7818      	ldrb	r0, [r3, #0]
10002b8c:	f1a0 0325 	sub.w	r3, r0, #37	; 0x25
10002b90:	2b53      	cmp	r3, #83	; 0x53
10002b92:	f200 8261 	bhi.w	10003058 <_vsnprintf+0x648>
10002b96:	e8df f013 	tbh	[pc, r3, lsl #1]
10002b9a:	0254      	.short	0x0254
10002b9c:	025f025f 	.word	0x025f025f
10002ba0:	025f025f 	.word	0x025f025f
10002ba4:	025f025f 	.word	0x025f025f
10002ba8:	025f025f 	.word	0x025f025f
10002bac:	025f025f 	.word	0x025f025f
10002bb0:	025f025f 	.word	0x025f025f
10002bb4:	025f025f 	.word	0x025f025f
10002bb8:	025f025f 	.word	0x025f025f
10002bbc:	025f025f 	.word	0x025f025f
10002bc0:	025f025f 	.word	0x025f025f
10002bc4:	025f025f 	.word	0x025f025f
10002bc8:	025f025f 	.word	0x025f025f
10002bcc:	025f025f 	.word	0x025f025f
10002bd0:	025f025f 	.word	0x025f025f
10002bd4:	025f025f 	.word	0x025f025f
10002bd8:	0174025f 	.word	0x0174025f
10002bdc:	01740154 	.word	0x01740154
10002be0:	025f025f 	.word	0x025f025f
10002be4:	025f025f 	.word	0x025f025f
10002be8:	025f025f 	.word	0x025f025f
10002bec:	025f025f 	.word	0x025f025f
10002bf0:	025f025f 	.word	0x025f025f
10002bf4:	025f025f 	.word	0x025f025f
10002bf8:	025f025f 	.word	0x025f025f
10002bfc:	025f025f 	.word	0x025f025f
10002c00:	025f005e 	.word	0x025f005e
10002c04:	025f025f 	.word	0x025f025f
10002c08:	025f025f 	.word	0x025f025f
10002c0c:	025f025f 	.word	0x025f025f
10002c10:	025f025f 	.word	0x025f025f
10002c14:	019b005e 	.word	0x019b005e
10002c18:	0174005e 	.word	0x0174005e
10002c1c:	01740154 	.word	0x01740154
10002c20:	005e025f 	.word	0x005e025f
10002c24:	025f025f 	.word	0x025f025f
10002c28:	025f025f 	.word	0x025f025f
10002c2c:	005e025f 	.word	0x005e025f
10002c30:	025f0239 	.word	0x025f0239
10002c34:	01d4025f 	.word	0x01d4025f
10002c38:	005e025f 	.word	0x005e025f
10002c3c:	025f025f 	.word	0x025f025f
10002c40:	005e      	.short	0x005e
10002c42:	f445 7500 	orr.w	r5, r5, #512	; 0x200
10002c46:	3201      	adds	r2, #1
10002c48:	920d      	str	r2, [sp, #52]	; 0x34
10002c4a:	e79d      	b.n	10002b88 <_vsnprintf+0x178>
10002c4c:	f445 7580 	orr.w	r5, r5, #256	; 0x100
10002c50:	3201      	adds	r2, #1
10002c52:	920d      	str	r2, [sp, #52]	; 0x34
10002c54:	e798      	b.n	10002b88 <_vsnprintf+0x178>
10002c56:	2878      	cmp	r0, #120	; 0x78
10002c58:	d009      	beq.n	10002c6e <_vsnprintf+0x25e>
10002c5a:	2858      	cmp	r0, #88	; 0x58
10002c5c:	d03a      	beq.n	10002cd4 <_vsnprintf+0x2c4>
10002c5e:	286f      	cmp	r0, #111	; 0x6f
10002c60:	d03a      	beq.n	10002cd8 <_vsnprintf+0x2c8>
10002c62:	2862      	cmp	r0, #98	; 0x62
10002c64:	d03a      	beq.n	10002cdc <_vsnprintf+0x2cc>
10002c66:	f025 0510 	bic.w	r5, r5, #16
10002c6a:	230a      	movs	r3, #10
10002c6c:	e000      	b.n	10002c70 <_vsnprintf+0x260>
10002c6e:	2310      	movs	r3, #16
10002c70:	2858      	cmp	r0, #88	; 0x58
10002c72:	d035      	beq.n	10002ce0 <_vsnprintf+0x2d0>
10002c74:	2869      	cmp	r0, #105	; 0x69
10002c76:	d003      	beq.n	10002c80 <_vsnprintf+0x270>
10002c78:	2864      	cmp	r0, #100	; 0x64
10002c7a:	d001      	beq.n	10002c80 <_vsnprintf+0x270>
10002c7c:	f025 050c 	bic.w	r5, r5, #12
10002c80:	f415 6f80 	tst.w	r5, #1024	; 0x400
10002c84:	d001      	beq.n	10002c8a <_vsnprintf+0x27a>
10002c86:	f025 0501 	bic.w	r5, r5, #1
10002c8a:	2869      	cmp	r0, #105	; 0x69
10002c8c:	d02b      	beq.n	10002ce6 <_vsnprintf+0x2d6>
10002c8e:	2864      	cmp	r0, #100	; 0x64
10002c90:	d029      	beq.n	10002ce6 <_vsnprintf+0x2d6>
10002c92:	f415 7f00 	tst.w	r5, #512	; 0x200
10002c96:	f040 8096 	bne.w	10002dc6 <_vsnprintf+0x3b6>
10002c9a:	f415 7f80 	tst.w	r5, #256	; 0x100
10002c9e:	f040 80ae 	bne.w	10002dfe <_vsnprintf+0x3ee>
10002ca2:	f015 0f40 	tst.w	r5, #64	; 0x40
10002ca6:	f000 80bf 	beq.w	10002e28 <_vsnprintf+0x418>
10002caa:	9a18      	ldr	r2, [sp, #96]	; 0x60
10002cac:	1d11      	adds	r1, r2, #4
10002cae:	9118      	str	r1, [sp, #96]	; 0x60
10002cb0:	7812      	ldrb	r2, [r2, #0]
10002cb2:	9505      	str	r5, [sp, #20]
10002cb4:	990a      	ldr	r1, [sp, #40]	; 0x28
10002cb6:	9104      	str	r1, [sp, #16]
10002cb8:	f8cd b00c 	str.w	fp, [sp, #12]
10002cbc:	9302      	str	r3, [sp, #8]
10002cbe:	2300      	movs	r3, #0
10002cc0:	9301      	str	r3, [sp, #4]
10002cc2:	9200      	str	r2, [sp, #0]
10002cc4:	4633      	mov	r3, r6
10002cc6:	4622      	mov	r2, r4
10002cc8:	4641      	mov	r1, r8
10002cca:	4638      	mov	r0, r7
10002ccc:	f7ff fa17 	bl	100020fe <_ntoa_long>
10002cd0:	4604      	mov	r4, r0
10002cd2:	e029      	b.n	10002d28 <_vsnprintf+0x318>
10002cd4:	2310      	movs	r3, #16
10002cd6:	e7cb      	b.n	10002c70 <_vsnprintf+0x260>
10002cd8:	2308      	movs	r3, #8
10002cda:	e7c9      	b.n	10002c70 <_vsnprintf+0x260>
10002cdc:	2302      	movs	r3, #2
10002cde:	e7c7      	b.n	10002c70 <_vsnprintf+0x260>
10002ce0:	f045 0520 	orr.w	r5, r5, #32
10002ce4:	e7c6      	b.n	10002c74 <_vsnprintf+0x264>
10002ce6:	f415 7f00 	tst.w	r5, #512	; 0x200
10002cea:	d121      	bne.n	10002d30 <_vsnprintf+0x320>
10002cec:	f415 7f80 	tst.w	r5, #256	; 0x100
10002cf0:	d142      	bne.n	10002d78 <_vsnprintf+0x368>
10002cf2:	f015 0f40 	tst.w	r5, #64	; 0x40
10002cf6:	d058      	beq.n	10002daa <_vsnprintf+0x39a>
10002cf8:	9a18      	ldr	r2, [sp, #96]	; 0x60
10002cfa:	1d11      	adds	r1, r2, #4
10002cfc:	9118      	str	r1, [sp, #96]	; 0x60
10002cfe:	7812      	ldrb	r2, [r2, #0]
10002d00:	ea82 71e2 	eor.w	r1, r2, r2, asr #31
10002d04:	eba1 71e2 	sub.w	r1, r1, r2, asr #31
10002d08:	9505      	str	r5, [sp, #20]
10002d0a:	980a      	ldr	r0, [sp, #40]	; 0x28
10002d0c:	9004      	str	r0, [sp, #16]
10002d0e:	f8cd b00c 	str.w	fp, [sp, #12]
10002d12:	9302      	str	r3, [sp, #8]
10002d14:	0fd2      	lsrs	r2, r2, #31
10002d16:	9201      	str	r2, [sp, #4]
10002d18:	9100      	str	r1, [sp, #0]
10002d1a:	4633      	mov	r3, r6
10002d1c:	4622      	mov	r2, r4
10002d1e:	4641      	mov	r1, r8
10002d20:	4638      	mov	r0, r7
10002d22:	f7ff f9ec 	bl	100020fe <_ntoa_long>
10002d26:	4604      	mov	r4, r0
10002d28:	9b0d      	ldr	r3, [sp, #52]	; 0x34
10002d2a:	3301      	adds	r3, #1
10002d2c:	930d      	str	r3, [sp, #52]	; 0x34
10002d2e:	e67a      	b.n	10002a26 <_vsnprintf+0x16>
10002d30:	9a18      	ldr	r2, [sp, #96]	; 0x60
10002d32:	3207      	adds	r2, #7
10002d34:	f022 0207 	bic.w	r2, r2, #7
10002d38:	f102 0108 	add.w	r1, r2, #8
10002d3c:	9118      	str	r1, [sp, #96]	; 0x60
10002d3e:	6851      	ldr	r1, [r2, #4]
10002d40:	6812      	ldr	r2, [r2, #0]
10002d42:	4608      	mov	r0, r1
10002d44:	2900      	cmp	r1, #0
10002d46:	db13      	blt.n	10002d70 <_vsnprintf+0x360>
10002d48:	9508      	str	r5, [sp, #32]
10002d4a:	9d0a      	ldr	r5, [sp, #40]	; 0x28
10002d4c:	9507      	str	r5, [sp, #28]
10002d4e:	f8cd b018 	str.w	fp, [sp, #24]
10002d52:	9304      	str	r3, [sp, #16]
10002d54:	2300      	movs	r3, #0
10002d56:	9305      	str	r3, [sp, #20]
10002d58:	0fc9      	lsrs	r1, r1, #31
10002d5a:	9102      	str	r1, [sp, #8]
10002d5c:	9200      	str	r2, [sp, #0]
10002d5e:	9001      	str	r0, [sp, #4]
10002d60:	4633      	mov	r3, r6
10002d62:	4622      	mov	r2, r4
10002d64:	4641      	mov	r1, r8
10002d66:	4638      	mov	r0, r7
10002d68:	f7ff fa13 	bl	10002192 <_ntoa_long_long>
10002d6c:	4604      	mov	r4, r0
10002d6e:	e7db      	b.n	10002d28 <_vsnprintf+0x318>
10002d70:	4252      	negs	r2, r2
10002d72:	eb61 0041 	sbc.w	r0, r1, r1, lsl #1
10002d76:	e7e7      	b.n	10002d48 <_vsnprintf+0x338>
10002d78:	9a18      	ldr	r2, [sp, #96]	; 0x60
10002d7a:	1d11      	adds	r1, r2, #4
10002d7c:	9118      	str	r1, [sp, #96]	; 0x60
10002d7e:	6812      	ldr	r2, [r2, #0]
10002d80:	ea82 71e2 	eor.w	r1, r2, r2, asr #31
10002d84:	eba1 71e2 	sub.w	r1, r1, r2, asr #31
10002d88:	9505      	str	r5, [sp, #20]
10002d8a:	980a      	ldr	r0, [sp, #40]	; 0x28
10002d8c:	9004      	str	r0, [sp, #16]
10002d8e:	f8cd b00c 	str.w	fp, [sp, #12]
10002d92:	9302      	str	r3, [sp, #8]
10002d94:	0fd2      	lsrs	r2, r2, #31
10002d96:	9201      	str	r2, [sp, #4]
10002d98:	9100      	str	r1, [sp, #0]
10002d9a:	4633      	mov	r3, r6
10002d9c:	4622      	mov	r2, r4
10002d9e:	4641      	mov	r1, r8
10002da0:	4638      	mov	r0, r7
10002da2:	f7ff f9ac 	bl	100020fe <_ntoa_long>
10002da6:	4604      	mov	r4, r0
10002da8:	e7be      	b.n	10002d28 <_vsnprintf+0x318>
10002daa:	f015 0f80 	tst.w	r5, #128	; 0x80
10002dae:	d005      	beq.n	10002dbc <_vsnprintf+0x3ac>
10002db0:	9a18      	ldr	r2, [sp, #96]	; 0x60
10002db2:	1d11      	adds	r1, r2, #4
10002db4:	9118      	str	r1, [sp, #96]	; 0x60
10002db6:	f9b2 2000 	ldrsh.w	r2, [r2]
10002dba:	e7a1      	b.n	10002d00 <_vsnprintf+0x2f0>
10002dbc:	9a18      	ldr	r2, [sp, #96]	; 0x60
10002dbe:	1d11      	adds	r1, r2, #4
10002dc0:	9118      	str	r1, [sp, #96]	; 0x60
10002dc2:	6812      	ldr	r2, [r2, #0]
10002dc4:	e79c      	b.n	10002d00 <_vsnprintf+0x2f0>
10002dc6:	9a18      	ldr	r2, [sp, #96]	; 0x60
10002dc8:	3207      	adds	r2, #7
10002dca:	f022 0207 	bic.w	r2, r2, #7
10002dce:	f102 0108 	add.w	r1, r2, #8
10002dd2:	9118      	str	r1, [sp, #96]	; 0x60
10002dd4:	9508      	str	r5, [sp, #32]
10002dd6:	990a      	ldr	r1, [sp, #40]	; 0x28
10002dd8:	9107      	str	r1, [sp, #28]
10002dda:	f8cd b018 	str.w	fp, [sp, #24]
10002dde:	2100      	movs	r1, #0
10002de0:	9304      	str	r3, [sp, #16]
10002de2:	9105      	str	r1, [sp, #20]
10002de4:	9102      	str	r1, [sp, #8]
10002de6:	e9d2 2300 	ldrd	r2, r3, [r2]
10002dea:	e9cd 2300 	strd	r2, r3, [sp]
10002dee:	4633      	mov	r3, r6
10002df0:	4622      	mov	r2, r4
10002df2:	4641      	mov	r1, r8
10002df4:	4638      	mov	r0, r7
10002df6:	f7ff f9cc 	bl	10002192 <_ntoa_long_long>
10002dfa:	4604      	mov	r4, r0
10002dfc:	e794      	b.n	10002d28 <_vsnprintf+0x318>
10002dfe:	9a18      	ldr	r2, [sp, #96]	; 0x60
10002e00:	1d11      	adds	r1, r2, #4
10002e02:	9118      	str	r1, [sp, #96]	; 0x60
10002e04:	9505      	str	r5, [sp, #20]
10002e06:	990a      	ldr	r1, [sp, #40]	; 0x28
10002e08:	9104      	str	r1, [sp, #16]
10002e0a:	f8cd b00c 	str.w	fp, [sp, #12]
10002e0e:	9302      	str	r3, [sp, #8]
10002e10:	2300      	movs	r3, #0
10002e12:	9301      	str	r3, [sp, #4]
10002e14:	6813      	ldr	r3, [r2, #0]
10002e16:	9300      	str	r3, [sp, #0]
10002e18:	4633      	mov	r3, r6
10002e1a:	4622      	mov	r2, r4
10002e1c:	4641      	mov	r1, r8
10002e1e:	4638      	mov	r0, r7
10002e20:	f7ff f96d 	bl	100020fe <_ntoa_long>
10002e24:	4604      	mov	r4, r0
10002e26:	e77f      	b.n	10002d28 <_vsnprintf+0x318>
10002e28:	f015 0f80 	tst.w	r5, #128	; 0x80
10002e2c:	d004      	beq.n	10002e38 <_vsnprintf+0x428>
10002e2e:	9a18      	ldr	r2, [sp, #96]	; 0x60
10002e30:	1d11      	adds	r1, r2, #4
10002e32:	9118      	str	r1, [sp, #96]	; 0x60
10002e34:	8812      	ldrh	r2, [r2, #0]
10002e36:	e73c      	b.n	10002cb2 <_vsnprintf+0x2a2>
10002e38:	9a18      	ldr	r2, [sp, #96]	; 0x60
10002e3a:	1d11      	adds	r1, r2, #4
10002e3c:	9118      	str	r1, [sp, #96]	; 0x60
10002e3e:	6812      	ldr	r2, [r2, #0]
10002e40:	e737      	b.n	10002cb2 <_vsnprintf+0x2a2>
10002e42:	2846      	cmp	r0, #70	; 0x46
10002e44:	d01a      	beq.n	10002e7c <_vsnprintf+0x46c>
10002e46:	9b18      	ldr	r3, [sp, #96]	; 0x60
10002e48:	3307      	adds	r3, #7
10002e4a:	f023 0307 	bic.w	r3, r3, #7
10002e4e:	f103 0208 	add.w	r2, r3, #8
10002e52:	9218      	str	r2, [sp, #96]	; 0x60
10002e54:	9504      	str	r5, [sp, #16]
10002e56:	9a0a      	ldr	r2, [sp, #40]	; 0x28
10002e58:	9203      	str	r2, [sp, #12]
10002e5a:	f8cd b008 	str.w	fp, [sp, #8]
10002e5e:	e9d3 2300 	ldrd	r2, r3, [r3]
10002e62:	e9cd 2300 	strd	r2, r3, [sp]
10002e66:	4633      	mov	r3, r6
10002e68:	4622      	mov	r2, r4
10002e6a:	4641      	mov	r1, r8
10002e6c:	4638      	mov	r0, r7
10002e6e:	f7ff fc03 	bl	10002678 <_ftoa>
10002e72:	4604      	mov	r4, r0
10002e74:	9b0d      	ldr	r3, [sp, #52]	; 0x34
10002e76:	3301      	adds	r3, #1
10002e78:	930d      	str	r3, [sp, #52]	; 0x34
10002e7a:	e5d4      	b.n	10002a26 <_vsnprintf+0x16>
10002e7c:	f045 0520 	orr.w	r5, r5, #32
10002e80:	e7e1      	b.n	10002e46 <_vsnprintf+0x436>
10002e82:	2867      	cmp	r0, #103	; 0x67
10002e84:	d001      	beq.n	10002e8a <_vsnprintf+0x47a>
10002e86:	2847      	cmp	r0, #71	; 0x47
10002e88:	d101      	bne.n	10002e8e <_vsnprintf+0x47e>
10002e8a:	f445 6500 	orr.w	r5, r5, #2048	; 0x800
10002e8e:	2845      	cmp	r0, #69	; 0x45
10002e90:	d001      	beq.n	10002e96 <_vsnprintf+0x486>
10002e92:	2847      	cmp	r0, #71	; 0x47
10002e94:	d101      	bne.n	10002e9a <_vsnprintf+0x48a>
10002e96:	f045 0520 	orr.w	r5, r5, #32
10002e9a:	9b18      	ldr	r3, [sp, #96]	; 0x60
10002e9c:	3307      	adds	r3, #7
10002e9e:	f023 0307 	bic.w	r3, r3, #7
10002ea2:	f103 0208 	add.w	r2, r3, #8
10002ea6:	9218      	str	r2, [sp, #96]	; 0x60
10002ea8:	9504      	str	r5, [sp, #16]
10002eaa:	9a0a      	ldr	r2, [sp, #40]	; 0x28
10002eac:	9203      	str	r2, [sp, #12]
10002eae:	f8cd b008 	str.w	fp, [sp, #8]
10002eb2:	e9d3 2300 	ldrd	r2, r3, [r3]
10002eb6:	e9cd 2300 	strd	r2, r3, [sp]
10002eba:	4633      	mov	r3, r6
10002ebc:	4622      	mov	r2, r4
10002ebe:	4641      	mov	r1, r8
10002ec0:	4638      	mov	r0, r7
10002ec2:	f7ff f9c9 	bl	10002258 <_etoa>
10002ec6:	4604      	mov	r4, r0
10002ec8:	9b0d      	ldr	r3, [sp, #52]	; 0x34
10002eca:	3301      	adds	r3, #1
10002ecc:	930d      	str	r3, [sp, #52]	; 0x34
10002ece:	e5aa      	b.n	10002a26 <_vsnprintf+0x16>
10002ed0:	f015 0502 	ands.w	r5, r5, #2
10002ed4:	d01f      	beq.n	10002f16 <_vsnprintf+0x506>
10002ed6:	f04f 0901 	mov.w	r9, #1
10002eda:	9818      	ldr	r0, [sp, #96]	; 0x60
10002edc:	1d03      	adds	r3, r0, #4
10002ede:	9318      	str	r3, [sp, #96]	; 0x60
10002ee0:	f104 0a01 	add.w	sl, r4, #1
10002ee4:	4633      	mov	r3, r6
10002ee6:	4622      	mov	r2, r4
10002ee8:	4641      	mov	r1, r8
10002eea:	7800      	ldrb	r0, [r0, #0]
10002eec:	47b8      	blx	r7
10002eee:	b9bd      	cbnz	r5, 10002f20 <_vsnprintf+0x510>
10002ef0:	9b0d      	ldr	r3, [sp, #52]	; 0x34
10002ef2:	3301      	adds	r3, #1
10002ef4:	930d      	str	r3, [sp, #52]	; 0x34
10002ef6:	4654      	mov	r4, sl
10002ef8:	e595      	b.n	10002a26 <_vsnprintf+0x16>
10002efa:	f102 0a01 	add.w	sl, r2, #1
10002efe:	4633      	mov	r3, r6
10002f00:	4641      	mov	r1, r8
10002f02:	2020      	movs	r0, #32
10002f04:	47b8      	blx	r7
10002f06:	464b      	mov	r3, r9
10002f08:	4652      	mov	r2, sl
10002f0a:	f103 0901 	add.w	r9, r3, #1
10002f0e:	459b      	cmp	fp, r3
10002f10:	d8f3      	bhi.n	10002efa <_vsnprintf+0x4ea>
10002f12:	4614      	mov	r4, r2
10002f14:	e7e1      	b.n	10002eda <_vsnprintf+0x4ca>
10002f16:	2301      	movs	r3, #1
10002f18:	f8dd b028 	ldr.w	fp, [sp, #40]	; 0x28
10002f1c:	4622      	mov	r2, r4
10002f1e:	e7f4      	b.n	10002f0a <_vsnprintf+0x4fa>
10002f20:	4652      	mov	r2, sl
10002f22:	f8dd a028 	ldr.w	sl, [sp, #40]	; 0x28
10002f26:	e006      	b.n	10002f36 <_vsnprintf+0x526>
10002f28:	1c55      	adds	r5, r2, #1
10002f2a:	4633      	mov	r3, r6
10002f2c:	4641      	mov	r1, r8
10002f2e:	2020      	movs	r0, #32
10002f30:	47b8      	blx	r7
10002f32:	46a1      	mov	r9, r4
10002f34:	462a      	mov	r2, r5
10002f36:	f109 0401 	add.w	r4, r9, #1
10002f3a:	45ca      	cmp	sl, r9
10002f3c:	d8f4      	bhi.n	10002f28 <_vsnprintf+0x518>
10002f3e:	4692      	mov	sl, r2
10002f40:	e7d6      	b.n	10002ef0 <_vsnprintf+0x4e0>
10002f42:	9b18      	ldr	r3, [sp, #96]	; 0x60
10002f44:	1d1a      	adds	r2, r3, #4
10002f46:	9218      	str	r2, [sp, #96]	; 0x60
10002f48:	f8d3 a000 	ldr.w	sl, [r3]
10002f4c:	f1bb 0f00 	cmp.w	fp, #0
10002f50:	d11e      	bne.n	10002f90 <_vsnprintf+0x580>
10002f52:	f04f 33ff 	mov.w	r3, #4294967295
10002f56:	46d1      	mov	r9, sl
10002f58:	e002      	b.n	10002f60 <_vsnprintf+0x550>
10002f5a:	f109 0901 	add.w	r9, r9, #1
10002f5e:	4613      	mov	r3, r2
10002f60:	f899 2000 	ldrb.w	r2, [r9]
10002f64:	b112      	cbz	r2, 10002f6c <_vsnprintf+0x55c>
10002f66:	1e5a      	subs	r2, r3, #1
10002f68:	2b00      	cmp	r3, #0
10002f6a:	d1f6      	bne.n	10002f5a <_vsnprintf+0x54a>
10002f6c:	eba9 090a 	sub.w	r9, r9, sl
10002f70:	f415 6380 	ands.w	r3, r5, #1024	; 0x400
10002f74:	930b      	str	r3, [sp, #44]	; 0x2c
10002f76:	d002      	beq.n	10002f7e <_vsnprintf+0x56e>
10002f78:	45d9      	cmp	r9, fp
10002f7a:	bf28      	it	cs
10002f7c:	46d9      	movcs	r9, fp
10002f7e:	f015 0302 	ands.w	r3, r5, #2
10002f82:	930c      	str	r3, [sp, #48]	; 0x30
10002f84:	d006      	beq.n	10002f94 <_vsnprintf+0x584>
10002f86:	4622      	mov	r2, r4
10002f88:	465c      	mov	r4, fp
10002f8a:	46b3      	mov	fp, r6
10002f8c:	9e0b      	ldr	r6, [sp, #44]	; 0x2c
10002f8e:	e01d      	b.n	10002fcc <_vsnprintf+0x5bc>
10002f90:	465b      	mov	r3, fp
10002f92:	e7e0      	b.n	10002f56 <_vsnprintf+0x546>
10002f94:	4622      	mov	r2, r4
10002f96:	9c0a      	ldr	r4, [sp, #40]	; 0x28
10002f98:	464b      	mov	r3, r9
10002f9a:	e007      	b.n	10002fac <_vsnprintf+0x59c>
10002f9c:	f102 0901 	add.w	r9, r2, #1
10002fa0:	4633      	mov	r3, r6
10002fa2:	4641      	mov	r1, r8
10002fa4:	2020      	movs	r0, #32
10002fa6:	47b8      	blx	r7
10002fa8:	462b      	mov	r3, r5
10002faa:	464a      	mov	r2, r9
10002fac:	1c5d      	adds	r5, r3, #1
10002fae:	429c      	cmp	r4, r3
10002fb0:	d8f4      	bhi.n	10002f9c <_vsnprintf+0x58c>
10002fb2:	46a9      	mov	r9, r5
10002fb4:	465c      	mov	r4, fp
10002fb6:	46b3      	mov	fp, r6
10002fb8:	9e0b      	ldr	r6, [sp, #44]	; 0x2c
10002fba:	e007      	b.n	10002fcc <_vsnprintf+0x5bc>
10002fbc:	461c      	mov	r4, r3
10002fbe:	f10a 0a01 	add.w	sl, sl, #1
10002fc2:	1c55      	adds	r5, r2, #1
10002fc4:	465b      	mov	r3, fp
10002fc6:	4641      	mov	r1, r8
10002fc8:	47b8      	blx	r7
10002fca:	462a      	mov	r2, r5
10002fcc:	f89a 0000 	ldrb.w	r0, [sl]
10002fd0:	b120      	cbz	r0, 10002fdc <_vsnprintf+0x5cc>
10002fd2:	2e00      	cmp	r6, #0
10002fd4:	d0f3      	beq.n	10002fbe <_vsnprintf+0x5ae>
10002fd6:	1e63      	subs	r3, r4, #1
10002fd8:	2c00      	cmp	r4, #0
10002fda:	d1ef      	bne.n	10002fbc <_vsnprintf+0x5ac>
10002fdc:	4614      	mov	r4, r2
10002fde:	465e      	mov	r6, fp
10002fe0:	9b0c      	ldr	r3, [sp, #48]	; 0x30
10002fe2:	b91b      	cbnz	r3, 10002fec <_vsnprintf+0x5dc>
10002fe4:	9b0d      	ldr	r3, [sp, #52]	; 0x34
10002fe6:	3301      	adds	r3, #1
10002fe8:	930d      	str	r3, [sp, #52]	; 0x34
10002fea:	e51c      	b.n	10002a26 <_vsnprintf+0x16>
10002fec:	f8dd a028 	ldr.w	sl, [sp, #40]	; 0x28
10002ff0:	e006      	b.n	10003000 <_vsnprintf+0x5f0>
10002ff2:	1c55      	adds	r5, r2, #1
10002ff4:	4633      	mov	r3, r6
10002ff6:	4641      	mov	r1, r8
10002ff8:	2020      	movs	r0, #32
10002ffa:	47b8      	blx	r7
10002ffc:	46a1      	mov	r9, r4
10002ffe:	462a      	mov	r2, r5
10003000:	f109 0401 	add.w	r4, r9, #1
10003004:	45ca      	cmp	sl, r9
10003006:	d8f4      	bhi.n	10002ff2 <_vsnprintf+0x5e2>
10003008:	4614      	mov	r4, r2
1000300a:	e7eb      	b.n	10002fe4 <_vsnprintf+0x5d4>
1000300c:	f045 0521 	orr.w	r5, r5, #33	; 0x21
10003010:	9b18      	ldr	r3, [sp, #96]	; 0x60
10003012:	1d1a      	adds	r2, r3, #4
10003014:	9218      	str	r2, [sp, #96]	; 0x60
10003016:	681b      	ldr	r3, [r3, #0]
10003018:	9505      	str	r5, [sp, #20]
1000301a:	2208      	movs	r2, #8
1000301c:	9204      	str	r2, [sp, #16]
1000301e:	f8cd b00c 	str.w	fp, [sp, #12]
10003022:	2210      	movs	r2, #16
10003024:	9202      	str	r2, [sp, #8]
10003026:	2200      	movs	r2, #0
10003028:	9201      	str	r2, [sp, #4]
1000302a:	9300      	str	r3, [sp, #0]
1000302c:	4633      	mov	r3, r6
1000302e:	4622      	mov	r2, r4
10003030:	4641      	mov	r1, r8
10003032:	4638      	mov	r0, r7
10003034:	f7ff f863 	bl	100020fe <_ntoa_long>
10003038:	4604      	mov	r4, r0
1000303a:	9b0d      	ldr	r3, [sp, #52]	; 0x34
1000303c:	3301      	adds	r3, #1
1000303e:	930d      	str	r3, [sp, #52]	; 0x34
10003040:	e4f1      	b.n	10002a26 <_vsnprintf+0x16>
10003042:	1c65      	adds	r5, r4, #1
10003044:	4633      	mov	r3, r6
10003046:	4622      	mov	r2, r4
10003048:	4641      	mov	r1, r8
1000304a:	2025      	movs	r0, #37	; 0x25
1000304c:	47b8      	blx	r7
1000304e:	9b0d      	ldr	r3, [sp, #52]	; 0x34
10003050:	3301      	adds	r3, #1
10003052:	930d      	str	r3, [sp, #52]	; 0x34
10003054:	462c      	mov	r4, r5
10003056:	e4e6      	b.n	10002a26 <_vsnprintf+0x16>
10003058:	1c65      	adds	r5, r4, #1
1000305a:	4633      	mov	r3, r6
1000305c:	4622      	mov	r2, r4
1000305e:	4641      	mov	r1, r8
10003060:	47b8      	blx	r7
10003062:	9b0d      	ldr	r3, [sp, #52]	; 0x34
10003064:	3301      	adds	r3, #1
10003066:	930d      	str	r3, [sp, #52]	; 0x34
10003068:	462c      	mov	r4, r5
1000306a:	e4dc      	b.n	10002a26 <_vsnprintf+0x16>
1000306c:	4f07      	ldr	r7, [pc, #28]	; (1000308c <_vsnprintf+0x67c>)
1000306e:	e4d9      	b.n	10002a24 <_vsnprintf+0x14>
10003070:	42b4      	cmp	r4, r6
10003072:	d301      	bcc.n	10003078 <_vsnprintf+0x668>
10003074:	1e72      	subs	r2, r6, #1
10003076:	e000      	b.n	1000307a <_vsnprintf+0x66a>
10003078:	4622      	mov	r2, r4
1000307a:	4633      	mov	r3, r6
1000307c:	4641      	mov	r1, r8
1000307e:	2000      	movs	r0, #0
10003080:	47b8      	blx	r7
10003082:	4620      	mov	r0, r4
10003084:	b00f      	add	sp, #60	; 0x3c
10003086:	e8bd 8ff0 	ldmia.w	sp!, {r4, r5, r6, r7, r8, r9, sl, fp, pc}
1000308a:	bf00      	nop
1000308c:	10001f15 	.word	0x10001f15

10003090 <vfctprintf>:
10003090:	b500      	push	{lr}
10003092:	b085      	sub	sp, #20
10003094:	9002      	str	r0, [sp, #8]
10003096:	9103      	str	r1, [sp, #12]
10003098:	9300      	str	r3, [sp, #0]
1000309a:	4613      	mov	r3, r2
1000309c:	f04f 32ff 	mov.w	r2, #4294967295
100030a0:	a902      	add	r1, sp, #8
100030a2:	4803      	ldr	r0, [pc, #12]	; (100030b0 <vfctprintf+0x20>)
100030a4:	f7ff fcb4 	bl	10002a10 <_vsnprintf>
100030a8:	b005      	add	sp, #20
100030aa:	f85d fb04 	ldr.w	pc, [sp], #4
100030ae:	bf00      	nop
100030b0:	10001f17 	.word	0x10001f17

100030b4 <_exit>:
100030b4:	be00      	bkpt	0x0000
100030b6:	e7fd      	b.n	100030b4 <_exit>

100030b8 <exit>:
100030b8:	b508      	push	{r3, lr}
100030ba:	f7ff fffb 	bl	100030b4 <_exit>
	...

100030c0 <__assert_func>:
100030c0:	b500      	push	{lr}
100030c2:	b083      	sub	sp, #12
100030c4:	468c      	mov	ip, r1
100030c6:	4619      	mov	r1, r3
100030c8:	4613      	mov	r3, r2
100030ca:	b15a      	cbz	r2, 100030e4 <__assert_func+0x24>
100030cc:	4a07      	ldr	r2, [pc, #28]	; (100030ec <__assert_func+0x2c>)
100030ce:	b15b      	cbz	r3, 100030e8 <__assert_func+0x28>
100030d0:	9301      	str	r3, [sp, #4]
100030d2:	9200      	str	r2, [sp, #0]
100030d4:	4663      	mov	r3, ip
100030d6:	4602      	mov	r2, r0
100030d8:	4805      	ldr	r0, [pc, #20]	; (100030f0 <__assert_func+0x30>)
100030da:	f000 f953 	bl	10003384 <__wrap_printf>
100030de:	2001      	movs	r0, #1
100030e0:	f7ff ffe8 	bl	100030b4 <_exit>
100030e4:	4a03      	ldr	r2, [pc, #12]	; (100030f4 <__assert_func+0x34>)
100030e6:	e7f2      	b.n	100030ce <__assert_func+0xe>
100030e8:	4b02      	ldr	r3, [pc, #8]	; (100030f4 <__assert_func+0x34>)
100030ea:	e7f1      	b.n	100030d0 <__assert_func+0x10>
100030ec:	10006f20 	.word	0x10006f20
100030f0:	10006f30 	.word	0x10006f30
100030f4:	10006f2c 	.word	0x10006f2c

100030f8 <runtime_init>:
100030f8:	b510      	push	{r4, lr}
100030fa:	f3ef 8305 	mrs	r3, IPSR
100030fe:	b2db      	uxtb	r3, r3
10003100:	b103      	cbz	r3, 10003104 <runtime_init+0xc>
10003102:	be00      	bkpt	0x0000
10003104:	f7fe fcac 	bl	10001a60 <runtime_run_initializers>
10003108:	4c04      	ldr	r4, [pc, #16]	; (1000311c <runtime_init+0x24>)
1000310a:	e002      	b.n	10003112 <runtime_init+0x1a>
1000310c:	f854 3b04 	ldr.w	r3, [r4], #4
10003110:	4798      	blx	r3
10003112:	4b03      	ldr	r3, [pc, #12]	; (10003120 <runtime_init+0x28>)
10003114:	429c      	cmp	r4, r3
10003116:	d3f9      	bcc.n	1000310c <runtime_init+0x14>
10003118:	bd10      	pop	{r4, pc}
1000311a:	bf00      	nop
1000311c:	10006828 	.word	0x10006828
10003120:	10006830 	.word	0x10006830

10003124 <stdio_out_chars_no_crlf>:
10003124:	b508      	push	{r3, lr}
10003126:	4603      	mov	r3, r0
10003128:	4608      	mov	r0, r1
1000312a:	681b      	ldr	r3, [r3, #0]
1000312c:	4611      	mov	r1, r2
1000312e:	4798      	blx	r3
10003130:	bd08      	pop	{r3, pc}
	...

10003134 <stdio_out_chars_crlf>:
10003134:	b5f8      	push	{r3, r4, r5, r6, r7, lr}
10003136:	4607      	mov	r7, r0
10003138:	460d      	mov	r5, r1
1000313a:	4616      	mov	r6, r2
1000313c:	7d43      	ldrb	r3, [r0, #21]
1000313e:	b113      	cbz	r3, 10003146 <stdio_out_chars_crlf+0x12>
10003140:	2400      	movs	r4, #0
10003142:	4620      	mov	r0, r4
10003144:	e00c      	b.n	10003160 <stdio_out_chars_crlf+0x2c>
10003146:	6803      	ldr	r3, [r0, #0]
10003148:	4611      	mov	r1, r2
1000314a:	4628      	mov	r0, r5
1000314c:	4798      	blx	r3
1000314e:	e02e      	b.n	100031ae <stdio_out_chars_crlf+0x7a>
10003150:	7d3b      	ldrb	r3, [r7, #20]
10003152:	e010      	b.n	10003176 <stdio_out_chars_crlf+0x42>
10003154:	683b      	ldr	r3, [r7, #0]
10003156:	2102      	movs	r1, #2
10003158:	4815      	ldr	r0, [pc, #84]	; (100031b0 <stdio_out_chars_crlf+0x7c>)
1000315a:	4798      	blx	r3
1000315c:	1c60      	adds	r0, r4, #1
1000315e:	3401      	adds	r4, #1
10003160:	42b4      	cmp	r4, r6
10003162:	da14      	bge.n	1000318e <stdio_out_chars_crlf+0x5a>
10003164:	2c00      	cmp	r4, #0
10003166:	ddf3      	ble.n	10003150 <stdio_out_chars_crlf+0x1c>
10003168:	192b      	adds	r3, r5, r4
1000316a:	f813 3c01 	ldrb.w	r3, [r3, #-1]
1000316e:	2b0d      	cmp	r3, #13
10003170:	bf14      	ite	ne
10003172:	2300      	movne	r3, #0
10003174:	2301      	moveq	r3, #1
10003176:	5d2a      	ldrb	r2, [r5, r4]
10003178:	2a0a      	cmp	r2, #10
1000317a:	d1f0      	bne.n	1000315e <stdio_out_chars_crlf+0x2a>
1000317c:	2b00      	cmp	r3, #0
1000317e:	d1ee      	bne.n	1000315e <stdio_out_chars_crlf+0x2a>
10003180:	42a0      	cmp	r0, r4
10003182:	dae7      	bge.n	10003154 <stdio_out_chars_crlf+0x20>
10003184:	683b      	ldr	r3, [r7, #0]
10003186:	1a21      	subs	r1, r4, r0
10003188:	4428      	add	r0, r5
1000318a:	4798      	blx	r3
1000318c:	e7e2      	b.n	10003154 <stdio_out_chars_crlf+0x20>
1000318e:	42b0      	cmp	r0, r6
10003190:	da03      	bge.n	1000319a <stdio_out_chars_crlf+0x66>
10003192:	683b      	ldr	r3, [r7, #0]
10003194:	1a31      	subs	r1, r6, r0
10003196:	4428      	add	r0, r5
10003198:	4798      	blx	r3
1000319a:	2e00      	cmp	r6, #0
1000319c:	dd07      	ble.n	100031ae <stdio_out_chars_crlf+0x7a>
1000319e:	4435      	add	r5, r6
100031a0:	f815 3c01 	ldrb.w	r3, [r5, #-1]
100031a4:	2b0d      	cmp	r3, #13
100031a6:	bf14      	ite	ne
100031a8:	2300      	movne	r3, #0
100031aa:	2301      	moveq	r3, #1
100031ac:	753b      	strb	r3, [r7, #20]
100031ae:	bdf8      	pop	{r3, r4, r5, r6, r7, pc}
100031b0:	10006f60 	.word	0x10006f60

100031b4 <stdio_stack_buffer_flush>:
100031b4:	b538      	push	{r3, r4, r5, lr}
100031b6:	6803      	ldr	r3, [r0, #0]
100031b8:	b1bb      	cbz	r3, 100031ea <stdio_stack_buffer_flush+0x36>
100031ba:	4605      	mov	r5, r0
100031bc:	4b0b      	ldr	r3, [pc, #44]	; (100031ec <stdio_stack_buffer_flush+0x38>)
100031be:	681c      	ldr	r4, [r3, #0]
100031c0:	e006      	b.n	100031d0 <stdio_stack_buffer_flush+0x1c>
100031c2:	4629      	mov	r1, r5
100031c4:	f851 2b04 	ldr.w	r2, [r1], #4
100031c8:	4620      	mov	r0, r4
100031ca:	f7ff ffb3 	bl	10003134 <stdio_out_chars_crlf>
100031ce:	6924      	ldr	r4, [r4, #16]
100031d0:	b14c      	cbz	r4, 100031e6 <stdio_stack_buffer_flush+0x32>
100031d2:	6823      	ldr	r3, [r4, #0]
100031d4:	2b00      	cmp	r3, #0
100031d6:	d0fa      	beq.n	100031ce <stdio_stack_buffer_flush+0x1a>
100031d8:	4b05      	ldr	r3, [pc, #20]	; (100031f0 <stdio_stack_buffer_flush+0x3c>)
100031da:	681b      	ldr	r3, [r3, #0]
100031dc:	2b00      	cmp	r3, #0
100031de:	d0f0      	beq.n	100031c2 <stdio_stack_buffer_flush+0xe>
100031e0:	42a3      	cmp	r3, r4
100031e2:	d1f4      	bne.n	100031ce <stdio_stack_buffer_flush+0x1a>
100031e4:	e7ed      	b.n	100031c2 <stdio_stack_buffer_flush+0xe>
100031e6:	2300      	movs	r3, #0
100031e8:	602b      	str	r3, [r5, #0]
100031ea:	bd38      	pop	{r3, r4, r5, pc}
100031ec:	20001b78 	.word	0x20001b78
100031f0:	20001b80 	.word	0x20001b80

100031f4 <stdio_buffered_printer>:
100031f4:	b538      	push	{r3, r4, r5, lr}
100031f6:	4605      	mov	r5, r0
100031f8:	460c      	mov	r4, r1
100031fa:	680b      	ldr	r3, [r1, #0]
100031fc:	2b80      	cmp	r3, #128	; 0x80
100031fe:	d005      	beq.n	1000320c <stdio_buffered_printer+0x18>
10003200:	6821      	ldr	r1, [r4, #0]
10003202:	1c4b      	adds	r3, r1, #1
10003204:	6023      	str	r3, [r4, #0]
10003206:	440c      	add	r4, r1
10003208:	7125      	strb	r5, [r4, #4]
1000320a:	bd38      	pop	{r3, r4, r5, pc}
1000320c:	4608      	mov	r0, r1
1000320e:	f7ff ffd1 	bl	100031b4 <stdio_stack_buffer_flush>
10003212:	e7f5      	b.n	10003200 <stdio_buffered_printer+0xc>

10003214 <stdout_serialize_begin>:
10003214:	b508      	push	{r3, lr}
10003216:	f7fe fa33 	bl	10001680 <time_us_64>
1000321a:	4a07      	ldr	r2, [pc, #28]	; (10003238 <stdout_serialize_begin+0x24>)
1000321c:	1882      	adds	r2, r0, r2
1000321e:	f141 0300 	adc.w	r3, r1, #0
10003222:	2b00      	cmp	r3, #0
10003224:	db03      	blt.n	1000322e <stdout_serialize_begin+0x1a>
10003226:	4805      	ldr	r0, [pc, #20]	; (1000323c <stdout_serialize_begin+0x28>)
10003228:	f003 faae 	bl	10006788 <__mutex_try_enter_block_until_veneer>
1000322c:	bd08      	pop	{r3, pc}
1000322e:	f04f 32ff 	mov.w	r2, #4294967295
10003232:	f06f 4300 	mvn.w	r3, #2147483648	; 0x80000000
10003236:	e7f6      	b.n	10003226 <stdout_serialize_begin+0x12>
10003238:	000f4240 	.word	0x000f4240
1000323c:	20001234 	.word	0x20001234

10003240 <stdout_serialize_end>:
10003240:	b508      	push	{r3, lr}
10003242:	4802      	ldr	r0, [pc, #8]	; (1000324c <stdout_serialize_end+0xc>)
10003244:	f003 fa80 	bl	10006748 <__mutex_exit_veneer>
10003248:	bd08      	pop	{r3, pc}
1000324a:	bf00      	nop
1000324c:	20001234 	.word	0x20001234

10003250 <stdio_put_string>:
10003250:	e92d 43f0 	stmdb	sp!, {r4, r5, r6, r7, r8, r9, lr}
10003254:	b083      	sub	sp, #12
10003256:	4606      	mov	r6, r0
10003258:	460d      	mov	r5, r1
1000325a:	4690      	mov	r8, r2
1000325c:	461c      	mov	r4, r3
1000325e:	f7ff ffd9 	bl	10003214 <stdout_serialize_begin>
10003262:	4681      	mov	r9, r0
10003264:	f1b5 3fff 	cmp.w	r5, #4294967295
10003268:	d004      	beq.n	10003274 <stdio_put_string+0x24>
1000326a:	b144      	cbz	r4, 1000327e <stdio_put_string+0x2e>
1000326c:	4f17      	ldr	r7, [pc, #92]	; (100032cc <stdio_put_string+0x7c>)
1000326e:	4b18      	ldr	r3, [pc, #96]	; (100032d0 <stdio_put_string+0x80>)
10003270:	681c      	ldr	r4, [r3, #0]
10003272:	e007      	b.n	10003284 <stdio_put_string+0x34>
10003274:	4630      	mov	r0, r6
10003276:	f003 fa27 	bl	100066c8 <strlen>
1000327a:	4605      	mov	r5, r0
1000327c:	e7f5      	b.n	1000326a <stdio_put_string+0x1a>
1000327e:	4f15      	ldr	r7, [pc, #84]	; (100032d4 <stdio_put_string+0x84>)
10003280:	e7f5      	b.n	1000326e <stdio_put_string+0x1e>
10003282:	6924      	ldr	r4, [r4, #16]
10003284:	b1bc      	cbz	r4, 100032b6 <stdio_put_string+0x66>
10003286:	6823      	ldr	r3, [r4, #0]
10003288:	2b00      	cmp	r3, #0
1000328a:	d0fa      	beq.n	10003282 <stdio_put_string+0x32>
1000328c:	4b12      	ldr	r3, [pc, #72]	; (100032d8 <stdio_put_string+0x88>)
1000328e:	681b      	ldr	r3, [r3, #0]
10003290:	b10b      	cbz	r3, 10003296 <stdio_put_string+0x46>
10003292:	42a3      	cmp	r3, r4
10003294:	d1f5      	bne.n	10003282 <stdio_put_string+0x32>
10003296:	462a      	mov	r2, r5
10003298:	4631      	mov	r1, r6
1000329a:	4620      	mov	r0, r4
1000329c:	47b8      	blx	r7
1000329e:	f1b8 0f00 	cmp.w	r8, #0
100032a2:	d0ee      	beq.n	10003282 <stdio_put_string+0x32>
100032a4:	230a      	movs	r3, #10
100032a6:	f88d 3007 	strb.w	r3, [sp, #7]
100032aa:	2201      	movs	r2, #1
100032ac:	f10d 0107 	add.w	r1, sp, #7
100032b0:	4620      	mov	r0, r4
100032b2:	47b8      	blx	r7
100032b4:	e7e5      	b.n	10003282 <stdio_put_string+0x32>
100032b6:	f1b9 0f00 	cmp.w	r9, #0
100032ba:	d103      	bne.n	100032c4 <stdio_put_string+0x74>
100032bc:	4628      	mov	r0, r5
100032be:	b003      	add	sp, #12
100032c0:	e8bd 83f0 	ldmia.w	sp!, {r4, r5, r6, r7, r8, r9, pc}
100032c4:	f7ff ffbc 	bl	10003240 <stdout_serialize_end>
100032c8:	e7f8      	b.n	100032bc <stdio_put_string+0x6c>
100032ca:	bf00      	nop
100032cc:	10003135 	.word	0x10003135
100032d0:	20001b78 	.word	0x20001b78
100032d4:	10003125 	.word	0x10003125
100032d8:	20001b80 	.word	0x20001b80

100032dc <stdio_set_driver_enabled>:
100032dc:	4a08      	ldr	r2, [pc, #32]	; (10003300 <stdio_set_driver_enabled+0x24>)
100032de:	e001      	b.n	100032e4 <stdio_set_driver_enabled+0x8>
100032e0:	f103 0210 	add.w	r2, r3, #16
100032e4:	6813      	ldr	r3, [r2, #0]
100032e6:	b13b      	cbz	r3, 100032f8 <stdio_set_driver_enabled+0x1c>
100032e8:	4283      	cmp	r3, r0
100032ea:	d1f9      	bne.n	100032e0 <stdio_set_driver_enabled+0x4>
100032ec:	b931      	cbnz	r1, 100032fc <stdio_set_driver_enabled+0x20>
100032ee:	6903      	ldr	r3, [r0, #16]
100032f0:	6013      	str	r3, [r2, #0]
100032f2:	2300      	movs	r3, #0
100032f4:	6103      	str	r3, [r0, #16]
100032f6:	4770      	bx	lr
100032f8:	b101      	cbz	r1, 100032fc <stdio_set_driver_enabled+0x20>
100032fa:	6010      	str	r0, [r2, #0]
100032fc:	4770      	bx	lr
100032fe:	bf00      	nop
10003300:	20001b78 	.word	0x20001b78

10003304 <stdio_flush>:
10003304:	b510      	push	{r4, lr}
10003306:	4b05      	ldr	r3, [pc, #20]	; (1000331c <stdio_flush+0x18>)
10003308:	681c      	ldr	r4, [r3, #0]
1000330a:	e001      	b.n	10003310 <stdio_flush+0xc>
1000330c:	4798      	blx	r3
1000330e:	6924      	ldr	r4, [r4, #16]
10003310:	b11c      	cbz	r4, 1000331a <stdio_flush+0x16>
10003312:	6863      	ldr	r3, [r4, #4]
10003314:	2b00      	cmp	r3, #0
10003316:	d1f9      	bne.n	1000330c <stdio_flush+0x8>
10003318:	e7f9      	b.n	1000330e <stdio_flush+0xa>
1000331a:	bd10      	pop	{r4, pc}
1000331c:	20001b78 	.word	0x20001b78

10003320 <stdio_init_all>:
10003320:	b508      	push	{r3, lr}
10003322:	f000 f98f 	bl	10003644 <stdio_usb_init>
10003326:	bd08      	pop	{r3, pc}

10003328 <__wrap_puts>:
10003328:	b538      	push	{r3, r4, r5, lr}
1000332a:	4605      	mov	r5, r0
1000332c:	f003 f9cc 	bl	100066c8 <strlen>
10003330:	4604      	mov	r4, r0
10003332:	2301      	movs	r3, #1
10003334:	461a      	mov	r2, r3
10003336:	4601      	mov	r1, r0
10003338:	4628      	mov	r0, r5
1000333a:	f7ff ff89 	bl	10003250 <stdio_put_string>
1000333e:	f7ff ffe1 	bl	10003304 <stdio_flush>
10003342:	4620      	mov	r0, r4
10003344:	bd38      	pop	{r3, r4, r5, pc}
	...

10003348 <__wrap_vprintf>:
10003348:	b570      	push	{r4, r5, r6, lr}
1000334a:	b0a2      	sub	sp, #136	; 0x88
1000334c:	4604      	mov	r4, r0
1000334e:	460e      	mov	r6, r1
10003350:	f7ff ff60 	bl	10003214 <stdout_serialize_begin>
10003354:	4605      	mov	r5, r0
10003356:	2300      	movs	r3, #0
10003358:	9301      	str	r3, [sp, #4]
1000335a:	4633      	mov	r3, r6
1000335c:	4622      	mov	r2, r4
1000335e:	a901      	add	r1, sp, #4
10003360:	4807      	ldr	r0, [pc, #28]	; (10003380 <__wrap_vprintf+0x38>)
10003362:	f7ff fe95 	bl	10003090 <vfctprintf>
10003366:	4604      	mov	r4, r0
10003368:	a801      	add	r0, sp, #4
1000336a:	f7ff ff23 	bl	100031b4 <stdio_stack_buffer_flush>
1000336e:	f7ff ffc9 	bl	10003304 <stdio_flush>
10003372:	b915      	cbnz	r5, 1000337a <__wrap_vprintf+0x32>
10003374:	4620      	mov	r0, r4
10003376:	b022      	add	sp, #136	; 0x88
10003378:	bd70      	pop	{r4, r5, r6, pc}
1000337a:	f7ff ff61 	bl	10003240 <stdout_serialize_end>
1000337e:	e7f9      	b.n	10003374 <__wrap_vprintf+0x2c>
10003380:	100031f5 	.word	0x100031f5

10003384 <__wrap_printf>:
10003384:	b40f      	push	{r0, r1, r2, r3}
10003386:	b500      	push	{lr}
10003388:	b083      	sub	sp, #12
1000338a:	a904      	add	r1, sp, #16
1000338c:	f851 0b04 	ldr.w	r0, [r1], #4
10003390:	9101      	str	r1, [sp, #4]
10003392:	f7ff ffd9 	bl	10003348 <__wrap_vprintf>
10003396:	b003      	add	sp, #12
10003398:	f85d eb04 	ldr.w	lr, [sp], #4
1000339c:	b004      	add	sp, #16
1000339e:	4770      	bx	lr

100033a0 <resetd_init>:
100033a0:	4770      	bx	lr
	...

100033a4 <resetd_reset>:
100033a4:	4b01      	ldr	r3, [pc, #4]	; (100033ac <resetd_reset+0x8>)
100033a6:	2200      	movs	r2, #0
100033a8:	701a      	strb	r2, [r3, #0]
100033aa:	4770      	bx	lr
100033ac:	20001fdd 	.word	0x20001fdd

100033b0 <resetd_open>:
100033b0:	794b      	ldrb	r3, [r1, #5]
100033b2:	2bff      	cmp	r3, #255	; 0xff
100033b4:	d10b      	bne.n	100033ce <resetd_open+0x1e>
100033b6:	798b      	ldrb	r3, [r1, #6]
100033b8:	b95b      	cbnz	r3, 100033d2 <resetd_open+0x22>
100033ba:	79cb      	ldrb	r3, [r1, #7]
100033bc:	2b01      	cmp	r3, #1
100033be:	d10a      	bne.n	100033d6 <resetd_open+0x26>
100033c0:	2a08      	cmp	r2, #8
100033c2:	d90a      	bls.n	100033da <resetd_open+0x2a>
100033c4:	788a      	ldrb	r2, [r1, #2]
100033c6:	4b06      	ldr	r3, [pc, #24]	; (100033e0 <resetd_open+0x30>)
100033c8:	701a      	strb	r2, [r3, #0]
100033ca:	2009      	movs	r0, #9
100033cc:	4770      	bx	lr
100033ce:	2000      	movs	r0, #0
100033d0:	4770      	bx	lr
100033d2:	2000      	movs	r0, #0
100033d4:	4770      	bx	lr
100033d6:	2000      	movs	r0, #0
100033d8:	4770      	bx	lr
100033da:	2000      	movs	r0, #0
100033dc:	4770      	bx	lr
100033de:	bf00      	nop
100033e0:	20001fdd 	.word	0x20001fdd

100033e4 <resetd_xfer_cb>:
100033e4:	2001      	movs	r0, #1
100033e6:	4770      	bx	lr

100033e8 <resetd_control_xfer_cb>:
100033e8:	2901      	cmp	r1, #1
100033ea:	d123      	bne.n	10003434 <resetd_control_xfer_cb+0x4c>
100033ec:	b508      	push	{r3, lr}
100033ee:	8891      	ldrh	r1, [r2, #4]
100033f0:	4b11      	ldr	r3, [pc, #68]	; (10003438 <resetd_control_xfer_cb+0x50>)
100033f2:	781b      	ldrb	r3, [r3, #0]
100033f4:	4299      	cmp	r1, r3
100033f6:	d001      	beq.n	100033fc <resetd_control_xfer_cb+0x14>
100033f8:	2000      	movs	r0, #0
100033fa:	bd08      	pop	{r3, pc}
100033fc:	7853      	ldrb	r3, [r2, #1]
100033fe:	2b01      	cmp	r3, #1
10003400:	d003      	beq.n	1000340a <resetd_control_xfer_cb+0x22>
10003402:	2b02      	cmp	r3, #2
10003404:	d00f      	beq.n	10003426 <resetd_control_xfer_cb+0x3e>
10003406:	2000      	movs	r0, #0
10003408:	e7f7      	b.n	100033fa <resetd_control_xfer_cb+0x12>
1000340a:	8851      	ldrh	r1, [r2, #2]
1000340c:	f411 7f80 	tst.w	r1, #256	; 0x100
10003410:	d006      	beq.n	10003420 <resetd_control_xfer_cb+0x38>
10003412:	0a48      	lsrs	r0, r1, #9
10003414:	f3c1 2240 	ubfx	r2, r1, #9, #1
10003418:	f001 017f 	and.w	r1, r1, #127	; 0x7f
1000341c:	f7fe facf 	bl	100019be <rom_reset_usb_boot_extra>
10003420:	f04f 30ff 	mov.w	r0, #4294967295
10003424:	e7f6      	b.n	10003414 <resetd_control_xfer_cb+0x2c>
10003426:	2264      	movs	r2, #100	; 0x64
10003428:	2100      	movs	r1, #0
1000342a:	4608      	mov	r0, r1
1000342c:	f7fe fa68 	bl	10001900 <watchdog_reboot>
10003430:	2001      	movs	r0, #1
10003432:	e7e2      	b.n	100033fa <resetd_control_xfer_cb+0x12>
10003434:	2001      	movs	r0, #1
10003436:	4770      	bx	lr
10003438:	20001fdd 	.word	0x20001fdd

1000343c <tud_descriptor_bos_cb>:
1000343c:	4800      	ldr	r0, [pc, #0]	; (10003440 <tud_descriptor_bos_cb+0x4>)
1000343e:	4770      	bx	lr
10003440:	10006f84 	.word	0x10006f84

10003444 <tud_vendor_control_xfer_cb>:
10003444:	2901      	cmp	r1, #1
10003446:	d10f      	bne.n	10003468 <tud_vendor_control_xfer_cb+0x24>
10003448:	b508      	push	{r3, lr}
1000344a:	4694      	mov	ip, r2
1000344c:	7853      	ldrb	r3, [r2, #1]
1000344e:	2b01      	cmp	r3, #1
10003450:	d10c      	bne.n	1000346c <tud_vendor_control_xfer_cb+0x28>
10003452:	8893      	ldrh	r3, [r2, #4]
10003454:	2b07      	cmp	r3, #7
10003456:	d001      	beq.n	1000345c <tud_vendor_control_xfer_cb+0x18>
10003458:	2000      	movs	r0, #0
1000345a:	e008      	b.n	1000346e <tud_vendor_control_xfer_cb+0x2a>
1000345c:	23a6      	movs	r3, #166	; 0xa6
1000345e:	4a04      	ldr	r2, [pc, #16]	; (10003470 <tud_vendor_control_xfer_cb+0x2c>)
10003460:	4661      	mov	r1, ip
10003462:	f001 fbbf 	bl	10004be4 <tud_control_xfer>
10003466:	e002      	b.n	1000346e <tud_vendor_control_xfer_cb+0x2a>
10003468:	2001      	movs	r0, #1
1000346a:	4770      	bx	lr
1000346c:	2000      	movs	r0, #0
1000346e:	bd08      	pop	{r3, pc}
10003470:	10006fa8 	.word	0x10006fa8

10003474 <usbd_app_driver_get_cb>:
10003474:	2301      	movs	r3, #1
10003476:	7003      	strb	r3, [r0, #0]
10003478:	4800      	ldr	r0, [pc, #0]	; (1000347c <usbd_app_driver_get_cb+0x8>)
1000347a:	4770      	bx	lr
1000347c:	10006f64 	.word	0x10006f64

10003480 <tud_cdc_line_coding_cb>:
10003480:	b508      	push	{r3, lr}
10003482:	680b      	ldr	r3, [r1, #0]
10003484:	f5b3 6f96 	cmp.w	r3, #1200	; 0x4b0
10003488:	d000      	beq.n	1000348c <tud_cdc_line_coding_cb+0xc>
1000348a:	bd08      	pop	{r3, pc}
1000348c:	2200      	movs	r2, #0
1000348e:	4611      	mov	r1, r2
10003490:	f04f 30ff 	mov.w	r0, #4294967295
10003494:	f7fe fa93 	bl	100019be <rom_reset_usb_boot_extra>

10003498 <stdio_usb_set_chars_available_callback>:
10003498:	4b02      	ldr	r3, [pc, #8]	; (100034a4 <stdio_usb_set_chars_available_callback+0xc>)
1000349a:	6018      	str	r0, [r3, #0]
1000349c:	4b02      	ldr	r3, [pc, #8]	; (100034a8 <stdio_usb_set_chars_available_callback+0x10>)
1000349e:	6019      	str	r1, [r3, #0]
100034a0:	4770      	bx	lr
100034a2:	bf00      	nop
100034a4:	20001b18 	.word	0x20001b18
100034a8:	20001b1c 	.word	0x20001b1c

100034ac <stdio_usb_out_flush>:
100034ac:	b508      	push	{r3, lr}
100034ae:	f7fe f8e7 	bl	10001680 <time_us_64>
100034b2:	4a0e      	ldr	r2, [pc, #56]	; (100034ec <stdio_usb_out_flush+0x40>)
100034b4:	1882      	adds	r2, r0, r2
100034b6:	f141 0300 	adc.w	r3, r1, #0
100034ba:	2b00      	cmp	r3, #0
100034bc:	db11      	blt.n	100034e2 <stdio_usb_out_flush+0x36>
100034be:	480c      	ldr	r0, [pc, #48]	; (100034f0 <stdio_usb_out_flush+0x44>)
100034c0:	f003 f962 	bl	10006788 <__mutex_try_enter_block_until_veneer>
100034c4:	b160      	cbz	r0, 100034e0 <stdio_usb_out_flush+0x34>
100034c6:	2100      	movs	r1, #0
100034c8:	f04f 30ff 	mov.w	r0, #4294967295
100034cc:	f001 fa16 	bl	100048fc <tud_task_ext>
100034d0:	2000      	movs	r0, #0
100034d2:	f001 fd13 	bl	10004efc <tud_cdc_n_write_flush>
100034d6:	2800      	cmp	r0, #0
100034d8:	d1f5      	bne.n	100034c6 <stdio_usb_out_flush+0x1a>
100034da:	4805      	ldr	r0, [pc, #20]	; (100034f0 <stdio_usb_out_flush+0x44>)
100034dc:	f003 f934 	bl	10006748 <__mutex_exit_veneer>
100034e0:	bd08      	pop	{r3, pc}
100034e2:	f04f 32ff 	mov.w	r2, #4294967295
100034e6:	f06f 4300 	mvn.w	r3, #2147483648	; 0x80000000
100034ea:	e7e8      	b.n	100034be <stdio_usb_out_flush+0x12>
100034ec:	000f4240 	.word	0x000f4240
100034f0:	20001fc0 	.word	0x20001fc0

100034f4 <usb_irq>:
100034f4:	b508      	push	{r3, lr}
100034f6:	4b02      	ldr	r3, [pc, #8]	; (10003500 <usb_irq+0xc>)
100034f8:	7818      	ldrb	r0, [r3, #0]
100034fa:	f7fd fa35 	bl	10000968 <irq_set_pending>
100034fe:	bd08      	pop	{r3, pc}
10003500:	20001fde 	.word	0x20001fde

10003504 <low_priority_worker_irq>:
10003504:	b510      	push	{r4, lr}
10003506:	b084      	sub	sp, #16
10003508:	2100      	movs	r1, #0
1000350a:	482b      	ldr	r0, [pc, #172]	; (100035b8 <low_priority_worker_irq+0xb4>)
1000350c:	f003 f92c 	bl	10006768 <__mutex_try_enter_veneer>
10003510:	bb08      	cbnz	r0, 10003556 <low_priority_worker_irq+0x52>
10003512:	4b2a      	ldr	r3, [pc, #168]	; (100035bc <low_priority_worker_irq+0xb8>)
10003514:	681b      	ldr	r3, [r3, #0]
10003516:	b1e3      	cbz	r3, 10003552 <low_priority_worker_irq+0x4e>
10003518:	4a28      	ldr	r2, [pc, #160]	; (100035bc <low_priority_worker_irq+0xb8>)
1000351a:	f3ef 8110 	mrs	r1, PRIMASK
1000351e:	b672      	cpsid	i
10003520:	e8d3 4fcf 	ldaexb	r4, [r3]
10003524:	2001      	movs	r0, #1
10003526:	2c00      	cmp	r4, #0
10003528:	d1fa      	bne.n	10003520 <low_priority_worker_irq+0x1c>
1000352a:	e8c3 0f44 	strexb	r4, r0, [r3]
1000352e:	2c00      	cmp	r4, #0
10003530:	d1f6      	bne.n	10003520 <low_priority_worker_irq+0x1c>
10003532:	f3bf 8f5f 	dmb	sy
10003536:	6051      	str	r1, [r2, #4]
10003538:	4821      	ldr	r0, [pc, #132]	; (100035c0 <low_priority_worker_irq+0xbc>)
1000353a:	7803      	ldrb	r3, [r0, #0]
1000353c:	f083 0301 	eor.w	r3, r3, #1
10003540:	2401      	movs	r4, #1
10003542:	7004      	strb	r4, [r0, #0]
10003544:	6810      	ldr	r0, [r2, #0]
10003546:	2200      	movs	r2, #0
10003548:	e8c0 2f8f 	stlb	r2, [r0]
1000354c:	f381 8810 	msr	PRIMASK, r1
10003550:	b9bb      	cbnz	r3, 10003582 <low_priority_worker_irq+0x7e>
10003552:	b004      	add	sp, #16
10003554:	bd10      	pop	{r4, pc}
10003556:	2100      	movs	r1, #0
10003558:	f04f 30ff 	mov.w	r0, #4294967295
1000355c:	f001 f9ce 	bl	100048fc <tud_task_ext>
10003560:	2000      	movs	r0, #0
10003562:	f001 fca1 	bl	10004ea8 <tud_cdc_n_available>
10003566:	4604      	mov	r4, r0
10003568:	4813      	ldr	r0, [pc, #76]	; (100035b8 <low_priority_worker_irq+0xb4>)
1000356a:	f003 f8ed 	bl	10006748 <__mutex_exit_veneer>
1000356e:	2c00      	cmp	r4, #0
10003570:	d0ef      	beq.n	10003552 <low_priority_worker_irq+0x4e>
10003572:	4b14      	ldr	r3, [pc, #80]	; (100035c4 <low_priority_worker_irq+0xc0>)
10003574:	681b      	ldr	r3, [r3, #0]
10003576:	2b00      	cmp	r3, #0
10003578:	d0eb      	beq.n	10003552 <low_priority_worker_irq+0x4e>
1000357a:	4a13      	ldr	r2, [pc, #76]	; (100035c8 <low_priority_worker_irq+0xc4>)
1000357c:	6810      	ldr	r0, [r2, #0]
1000357e:	4798      	blx	r3
10003580:	e7e7      	b.n	10003552 <low_priority_worker_irq+0x4e>
10003582:	f7fd fe5b 	bl	1000123c <alarm_pool_get_default>
10003586:	4604      	mov	r4, r0
10003588:	f7fe f87a 	bl	10001680 <time_us_64>
1000358c:	f510 727a 	adds.w	r2, r0, #1000	; 0x3e8
10003590:	f141 0300 	adc.w	r3, r1, #0
10003594:	2b00      	cmp	r3, #0
10003596:	db09      	blt.n	100035ac <low_priority_worker_irq+0xa8>
10003598:	2101      	movs	r1, #1
1000359a:	9102      	str	r1, [sp, #8]
1000359c:	2100      	movs	r1, #0
1000359e:	9101      	str	r1, [sp, #4]
100035a0:	490a      	ldr	r1, [pc, #40]	; (100035cc <low_priority_worker_irq+0xc8>)
100035a2:	9100      	str	r1, [sp, #0]
100035a4:	4620      	mov	r0, r4
100035a6:	f7fd feba 	bl	1000131e <alarm_pool_add_alarm_at>
100035aa:	e7d2      	b.n	10003552 <low_priority_worker_irq+0x4e>
100035ac:	f04f 32ff 	mov.w	r2, #4294967295
100035b0:	f06f 4300 	mvn.w	r3, #2147483648	; 0x80000000
100035b4:	e7f0      	b.n	10003598 <low_priority_worker_irq+0x94>
100035b6:	bf00      	nop
100035b8:	20001fc0 	.word	0x20001fc0
100035bc:	20001f8c 	.word	0x20001f8c
100035c0:	20001fdf 	.word	0x20001fdf
100035c4:	20001b18 	.word	0x20001b18
100035c8:	20001b1c 	.word	0x20001b1c
100035cc:	100035d1 	.word	0x100035d1

100035d0 <timer_task>:
100035d0:	b538      	push	{r3, r4, r5, lr}
100035d2:	4b19      	ldr	r3, [pc, #100]	; (10003638 <timer_task+0x68>)
100035d4:	681b      	ldr	r3, [r3, #0]
100035d6:	2b00      	cmp	r3, #0
100035d8:	d024      	beq.n	10003624 <timer_task+0x54>
100035da:	4b17      	ldr	r3, [pc, #92]	; (10003638 <timer_task+0x68>)
100035dc:	6819      	ldr	r1, [r3, #0]
100035de:	f3ef 8210 	mrs	r2, PRIMASK
100035e2:	b672      	cpsid	i
100035e4:	e8d1 4fcf 	ldaexb	r4, [r1]
100035e8:	2001      	movs	r0, #1
100035ea:	2c00      	cmp	r4, #0
100035ec:	d1fa      	bne.n	100035e4 <timer_task+0x14>
100035ee:	e8c1 0f44 	strexb	r4, r0, [r1]
100035f2:	2c00      	cmp	r4, #0
100035f4:	d1f6      	bne.n	100035e4 <timer_task+0x14>
100035f6:	f3bf 8f5f 	dmb	sy
100035fa:	605a      	str	r2, [r3, #4]
100035fc:	2100      	movs	r1, #0
100035fe:	480f      	ldr	r0, [pc, #60]	; (1000363c <timer_task+0x6c>)
10003600:	7001      	strb	r1, [r0, #0]
10003602:	681b      	ldr	r3, [r3, #0]
10003604:	e8c3 1f8f 	stlb	r1, [r3]
10003608:	f382 8810 	msr	PRIMASK, r2
1000360c:	2400      	movs	r4, #0
1000360e:	2500      	movs	r5, #0
10003610:	4b0b      	ldr	r3, [pc, #44]	; (10003640 <timer_task+0x70>)
10003612:	7818      	ldrb	r0, [r3, #0]
10003614:	f7fd f97e 	bl	10000914 <irq_is_enabled>
10003618:	b940      	cbnz	r0, 1000362c <timer_task+0x5c>
1000361a:	2400      	movs	r4, #0
1000361c:	2500      	movs	r5, #0
1000361e:	4620      	mov	r0, r4
10003620:	4629      	mov	r1, r5
10003622:	bd38      	pop	{r3, r4, r5, pc}
10003624:	f44f 747a 	mov.w	r4, #1000	; 0x3e8
10003628:	2500      	movs	r5, #0
1000362a:	e7f1      	b.n	10003610 <timer_task+0x40>
1000362c:	4b04      	ldr	r3, [pc, #16]	; (10003640 <timer_task+0x70>)
1000362e:	7818      	ldrb	r0, [r3, #0]
10003630:	f7fd f99a 	bl	10000968 <irq_set_pending>
10003634:	e7f3      	b.n	1000361e <timer_task+0x4e>
10003636:	bf00      	nop
10003638:	20001f8c 	.word	0x20001f8c
1000363c:	20001fdf 	.word	0x20001fdf
10003640:	20001fde 	.word	0x20001fde

10003644 <stdio_usb_init>:
10003644:	b510      	push	{r4, lr}
10003646:	b084      	sub	sp, #16
10003648:	f04f 4350 	mov.w	r3, #3489660928	; 0xd0000000
1000364c:	681c      	ldr	r4, [r3, #0]
1000364e:	f7fd fdf5 	bl	1000123c <alarm_pool_get_default>
10003652:	f7fd feb9 	bl	100013c8 <alarm_pool_core_num>
10003656:	42a0      	cmp	r0, r4
10003658:	d12b      	bne.n	100036b2 <stdio_usb_init+0x6e>
1000365a:	4b2c      	ldr	r3, [pc, #176]	; (1000370c <stdio_usb_init+0xc8>)
1000365c:	781b      	ldrb	r3, [r3, #0]
1000365e:	f002 f901 	bl	10005864 <tusb_init>
10003662:	4b2b      	ldr	r3, [pc, #172]	; (10003710 <stdio_usb_init+0xcc>)
10003664:	681b      	ldr	r3, [r3, #0]
10003666:	b353      	cbz	r3, 100036be <stdio_usb_init+0x7a>
10003668:	2001      	movs	r0, #1
1000366a:	f7fd fb83 	bl	10000d74 <user_irq_claim_unused>
1000366e:	b2c0      	uxtb	r0, r0
10003670:	4c28      	ldr	r4, [pc, #160]	; (10003714 <stdio_usb_init+0xd0>)
10003672:	7020      	strb	r0, [r4, #0]
10003674:	4928      	ldr	r1, [pc, #160]	; (10003718 <stdio_usb_init+0xd4>)
10003676:	f7fd f99b 	bl	100009b0 <irq_set_exclusive_handler>
1000367a:	2101      	movs	r1, #1
1000367c:	7820      	ldrb	r0, [r4, #0]
1000367e:	f7fd f969 	bl	10000954 <irq_set_enabled>
10003682:	200e      	movs	r0, #14
10003684:	f7fd f984 	bl	10000990 <irq_has_shared_handler>
10003688:	4604      	mov	r4, r0
1000368a:	b1e0      	cbz	r0, 100036c6 <stdio_usb_init+0x82>
1000368c:	2001      	movs	r0, #1
1000368e:	f7fd f8d7 	bl	10000840 <spin_lock_claim_unused>
10003692:	4601      	mov	r1, r0
10003694:	4821      	ldr	r0, [pc, #132]	; (1000371c <stdio_usb_init+0xd8>)
10003696:	f7fd fbcb 	bl	10000e30 <critical_section_init_with_lock_num>
1000369a:	2200      	movs	r2, #0
1000369c:	4920      	ldr	r1, [pc, #128]	; (10003720 <stdio_usb_init+0xdc>)
1000369e:	200e      	movs	r0, #14
100036a0:	f7fd f9b6 	bl	10000a10 <irq_add_shared_handler>
100036a4:	2101      	movs	r1, #1
100036a6:	481f      	ldr	r0, [pc, #124]	; (10003724 <stdio_usb_init+0xe0>)
100036a8:	f7ff fe18 	bl	100032dc <stdio_set_driver_enabled>
100036ac:	4620      	mov	r0, r4
100036ae:	b004      	add	sp, #16
100036b0:	bd10      	pop	{r4, pc}
100036b2:	4b1d      	ldr	r3, [pc, #116]	; (10003728 <stdio_usb_init+0xe4>)
100036b4:	4a1d      	ldr	r2, [pc, #116]	; (1000372c <stdio_usb_init+0xe8>)
100036b6:	21c1      	movs	r1, #193	; 0xc1
100036b8:	481d      	ldr	r0, [pc, #116]	; (10003730 <stdio_usb_init+0xec>)
100036ba:	f7ff fd01 	bl	100030c0 <__assert_func>
100036be:	4814      	ldr	r0, [pc, #80]	; (10003710 <stdio_usb_init+0xcc>)
100036c0:	f7fd fb74 	bl	10000dac <mutex_init>
100036c4:	e7d0      	b.n	10003668 <stdio_usb_init+0x24>
100036c6:	4b15      	ldr	r3, [pc, #84]	; (1000371c <stdio_usb_init+0xd8>)
100036c8:	2200      	movs	r2, #0
100036ca:	601a      	str	r2, [r3, #0]
100036cc:	605a      	str	r2, [r3, #4]
100036ce:	f7fd fdb5 	bl	1000123c <alarm_pool_get_default>
100036d2:	4604      	mov	r4, r0
100036d4:	f7fd ffd4 	bl	10001680 <time_us_64>
100036d8:	f510 727a 	adds.w	r2, r0, #1000	; 0x3e8
100036dc:	f141 0300 	adc.w	r3, r1, #0
100036e0:	2b00      	cmp	r3, #0
100036e2:	db0d      	blt.n	10003700 <stdio_usb_init+0xbc>
100036e4:	2101      	movs	r1, #1
100036e6:	9102      	str	r1, [sp, #8]
100036e8:	2100      	movs	r1, #0
100036ea:	9101      	str	r1, [sp, #4]
100036ec:	4911      	ldr	r1, [pc, #68]	; (10003734 <stdio_usb_init+0xf0>)
100036ee:	9100      	str	r1, [sp, #0]
100036f0:	4620      	mov	r0, r4
100036f2:	f7fd fe14 	bl	1000131e <alarm_pool_add_alarm_at>
100036f6:	43c4      	mvns	r4, r0
100036f8:	0fe4      	lsrs	r4, r4, #31
100036fa:	2c00      	cmp	r4, #0
100036fc:	d0d6      	beq.n	100036ac <stdio_usb_init+0x68>
100036fe:	e7d1      	b.n	100036a4 <stdio_usb_init+0x60>
10003700:	f04f 32ff 	mov.w	r2, #4294967295
10003704:	f06f 4300 	mvn.w	r3, #2147483648	; 0x80000000
10003708:	e7ec      	b.n	100036e4 <stdio_usb_init+0xa0>
1000370a:	bf00      	nop
1000370c:	100076c8 	.word	0x100076c8
10003710:	20001fc0 	.word	0x20001fc0
10003714:	20001fde 	.word	0x20001fde
10003718:	10003505 	.word	0x10003505
1000371c:	20001f8c 	.word	0x20001f8c
10003720:	100034f5 	.word	0x100034f5
10003724:	200011ec 	.word	0x200011ec
10003728:	10007050 	.word	0x10007050
1000372c:	100070b4 	.word	0x100070b4
10003730:	10007058 	.word	0x10007058
10003734:	100035d1 	.word	0x100035d1

10003738 <stdio_usb_connected>:
10003738:	b508      	push	{r3, lr}
1000373a:	2000      	movs	r0, #0
1000373c:	f001 fb94 	bl	10004e68 <tud_cdc_n_connected>
10003740:	bd08      	pop	{r3, pc}
	...

10003744 <stdio_usb_in_chars>:
10003744:	b538      	push	{r3, r4, r5, lr}
10003746:	4604      	mov	r4, r0
10003748:	460d      	mov	r5, r1
1000374a:	f7ff fff5 	bl	10003738 <stdio_usb_connected>
1000374e:	b390      	cbz	r0, 100037b6 <stdio_usb_in_chars+0x72>
10003750:	2000      	movs	r0, #0
10003752:	f001 fba9 	bl	10004ea8 <tud_cdc_n_available>
10003756:	b388      	cbz	r0, 100037bc <stdio_usb_in_chars+0x78>
10003758:	f7fd ff92 	bl	10001680 <time_us_64>
1000375c:	4a1a      	ldr	r2, [pc, #104]	; (100037c8 <stdio_usb_in_chars+0x84>)
1000375e:	1882      	adds	r2, r0, r2
10003760:	f141 0300 	adc.w	r3, r1, #0
10003764:	2b00      	cmp	r3, #0
10003766:	db16      	blt.n	10003796 <stdio_usb_in_chars+0x52>
10003768:	4818      	ldr	r0, [pc, #96]	; (100037cc <stdio_usb_in_chars+0x88>)
1000376a:	f003 f80d 	bl	10006788 <__mutex_try_enter_block_until_veneer>
1000376e:	b340      	cbz	r0, 100037c2 <stdio_usb_in_chars+0x7e>
10003770:	f7ff ffe2 	bl	10003738 <stdio_usb_connected>
10003774:	b118      	cbz	r0, 1000377e <stdio_usb_in_chars+0x3a>
10003776:	2000      	movs	r0, #0
10003778:	f001 fb96 	bl	10004ea8 <tud_cdc_n_available>
1000377c:	b980      	cbnz	r0, 100037a0 <stdio_usb_in_chars+0x5c>
1000377e:	2100      	movs	r1, #0
10003780:	f04f 30ff 	mov.w	r0, #4294967295
10003784:	f001 f8ba 	bl	100048fc <tud_task_ext>
10003788:	f06f 0402 	mvn.w	r4, #2
1000378c:	480f      	ldr	r0, [pc, #60]	; (100037cc <stdio_usb_in_chars+0x88>)
1000378e:	f002 ffdb 	bl	10006748 <__mutex_exit_veneer>
10003792:	4620      	mov	r0, r4
10003794:	bd38      	pop	{r3, r4, r5, pc}
10003796:	f04f 32ff 	mov.w	r2, #4294967295
1000379a:	f06f 4300 	mvn.w	r3, #2147483648	; 0x80000000
1000379e:	e7e3      	b.n	10003768 <stdio_usb_in_chars+0x24>
100037a0:	462a      	mov	r2, r5
100037a2:	4621      	mov	r1, r4
100037a4:	2000      	movs	r0, #0
100037a6:	f001 fb8d 	bl	10004ec4 <tud_cdc_n_read>
100037aa:	4604      	mov	r4, r0
100037ac:	2800      	cmp	r0, #0
100037ae:	d1ed      	bne.n	1000378c <stdio_usb_in_chars+0x48>
100037b0:	f06f 0402 	mvn.w	r4, #2
100037b4:	e7ea      	b.n	1000378c <stdio_usb_in_chars+0x48>
100037b6:	f06f 0402 	mvn.w	r4, #2
100037ba:	e7ea      	b.n	10003792 <stdio_usb_in_chars+0x4e>
100037bc:	f06f 0402 	mvn.w	r4, #2
100037c0:	e7e7      	b.n	10003792 <stdio_usb_in_chars+0x4e>
100037c2:	f06f 0402 	mvn.w	r4, #2
100037c6:	e7e4      	b.n	10003792 <stdio_usb_in_chars+0x4e>
100037c8:	000f4240 	.word	0x000f4240
100037cc:	20001fc0 	.word	0x20001fc0

100037d0 <stdio_usb_out_chars>:
100037d0:	b5f8      	push	{r3, r4, r5, r6, r7, lr}
100037d2:	4607      	mov	r7, r0
100037d4:	460d      	mov	r5, r1
100037d6:	f7fd ff53 	bl	10001680 <time_us_64>
100037da:	4a2e      	ldr	r2, [pc, #184]	; (10003894 <stdio_usb_out_chars+0xc4>)
100037dc:	1882      	adds	r2, r0, r2
100037de:	f141 0300 	adc.w	r3, r1, #0
100037e2:	2b00      	cmp	r3, #0
100037e4:	db04      	blt.n	100037f0 <stdio_usb_out_chars+0x20>
100037e6:	482c      	ldr	r0, [pc, #176]	; (10003898 <stdio_usb_out_chars+0xc8>)
100037e8:	f002 ffce 	bl	10006788 <__mutex_try_enter_block_until_veneer>
100037ec:	b928      	cbnz	r0, 100037fa <stdio_usb_out_chars+0x2a>
100037ee:	bdf8      	pop	{r3, r4, r5, r6, r7, pc}
100037f0:	f04f 32ff 	mov.w	r2, #4294967295
100037f4:	f06f 4300 	mvn.w	r3, #2147483648	; 0x80000000
100037f8:	e7f5      	b.n	100037e6 <stdio_usb_out_chars+0x16>
100037fa:	f7ff ff9d 	bl	10003738 <stdio_usb_connected>
100037fe:	2800      	cmp	r0, #0
10003800:	d146      	bne.n	10003890 <stdio_usb_out_chars+0xc0>
10003802:	4b26      	ldr	r3, [pc, #152]	; (1000389c <stdio_usb_out_chars+0xcc>)
10003804:	2000      	movs	r0, #0
10003806:	2100      	movs	r1, #0
10003808:	e9c3 0100 	strd	r0, r1, [r3]
1000380c:	4822      	ldr	r0, [pc, #136]	; (10003898 <stdio_usb_out_chars+0xc8>)
1000380e:	f002 ff9b 	bl	10006748 <__mutex_exit_veneer>
10003812:	e7ec      	b.n	100037ee <stdio_usb_out_chars+0x1e>
10003814:	2100      	movs	r1, #0
10003816:	f04f 30ff 	mov.w	r0, #4294967295
1000381a:	f001 f86f 	bl	100048fc <tud_task_ext>
1000381e:	2000      	movs	r0, #0
10003820:	f001 fb6c 	bl	10004efc <tud_cdc_n_write_flush>
10003824:	f7ff ff88 	bl	10003738 <stdio_usb_connected>
10003828:	2800      	cmp	r0, #0
1000382a:	d0ef      	beq.n	1000380c <stdio_usb_out_chars+0x3c>
1000382c:	2000      	movs	r0, #0
1000382e:	f001 fbf1 	bl	10005014 <tud_cdc_n_write_available>
10003832:	b1f8      	cbz	r0, 10003874 <stdio_usb_out_chars+0xa4>
10003834:	42ac      	cmp	r4, r5
10003836:	dae9      	bge.n	1000380c <stdio_usb_out_chars+0x3c>
10003838:	1b2e      	subs	r6, r5, r4
1000383a:	2000      	movs	r0, #0
1000383c:	f001 fbea 	bl	10005014 <tud_cdc_n_write_available>
10003840:	4286      	cmp	r6, r0
10003842:	dc00      	bgt.n	10003846 <stdio_usb_out_chars+0x76>
10003844:	4630      	mov	r0, r6
10003846:	2800      	cmp	r0, #0
10003848:	d0e4      	beq.n	10003814 <stdio_usb_out_chars+0x44>
1000384a:	4602      	mov	r2, r0
1000384c:	1939      	adds	r1, r7, r4
1000384e:	2000      	movs	r0, #0
10003850:	f001 fbbc 	bl	10004fcc <tud_cdc_n_write>
10003854:	4606      	mov	r6, r0
10003856:	2100      	movs	r1, #0
10003858:	f04f 30ff 	mov.w	r0, #4294967295
1000385c:	f001 f84e 	bl	100048fc <tud_task_ext>
10003860:	2000      	movs	r0, #0
10003862:	f001 fb4b 	bl	10004efc <tud_cdc_n_write_flush>
10003866:	4434      	add	r4, r6
10003868:	f7fd ff0a 	bl	10001680 <time_us_64>
1000386c:	4b0b      	ldr	r3, [pc, #44]	; (1000389c <stdio_usb_out_chars+0xcc>)
1000386e:	e9c3 0100 	strd	r0, r1, [r3]
10003872:	e7df      	b.n	10003834 <stdio_usb_out_chars+0x64>
10003874:	f7fd ff04 	bl	10001680 <time_us_64>
10003878:	4a08      	ldr	r2, [pc, #32]	; (1000389c <stdio_usb_out_chars+0xcc>)
1000387a:	6813      	ldr	r3, [r2, #0]
1000387c:	6852      	ldr	r2, [r2, #4]
1000387e:	4e08      	ldr	r6, [pc, #32]	; (100038a0 <stdio_usb_out_chars+0xd0>)
10003880:	199b      	adds	r3, r3, r6
10003882:	f142 0200 	adc.w	r2, r2, #0
10003886:	4283      	cmp	r3, r0
10003888:	eb72 0301 	sbcs.w	r3, r2, r1
1000388c:	d2d2      	bcs.n	10003834 <stdio_usb_out_chars+0x64>
1000388e:	e7bd      	b.n	1000380c <stdio_usb_out_chars+0x3c>
10003890:	2400      	movs	r4, #0
10003892:	e7cf      	b.n	10003834 <stdio_usb_out_chars+0x64>
10003894:	000f4240 	.word	0x000f4240
10003898:	20001fc0 	.word	0x20001fc0
1000389c:	200013c0 	.word	0x200013c0
100038a0:	0007a120 	.word	0x0007a120

100038a4 <tud_descriptor_device_cb>:
100038a4:	4800      	ldr	r0, [pc, #0]	; (100038a8 <tud_descriptor_device_cb+0x4>)
100038a6:	4770      	bx	lr
100038a8:	10007144 	.word	0x10007144

100038ac <tud_descriptor_configuration_cb>:
100038ac:	4800      	ldr	r0, [pc, #0]	; (100038b0 <tud_descriptor_configuration_cb+0x4>)
100038ae:	4770      	bx	lr
100038b0:	100070f0 	.word	0x100070f0

100038b4 <tud_descriptor_string_cb>:
100038b4:	b510      	push	{r4, lr}
100038b6:	4604      	mov	r4, r0
100038b8:	4b14      	ldr	r3, [pc, #80]	; (1000390c <tud_descriptor_string_cb+0x58>)
100038ba:	781b      	ldrb	r3, [r3, #0]
100038bc:	b16b      	cbz	r3, 100038da <tud_descriptor_string_cb+0x26>
100038be:	b98c      	cbnz	r4, 100038e4 <tud_descriptor_string_cb+0x30>
100038c0:	4b13      	ldr	r3, [pc, #76]	; (10003910 <tud_descriptor_string_cb+0x5c>)
100038c2:	f240 4209 	movw	r2, #1033	; 0x409
100038c6:	805a      	strh	r2, [r3, #2]
100038c8:	2301      	movs	r3, #1
100038ca:	3301      	adds	r3, #1
100038cc:	005b      	lsls	r3, r3, #1
100038ce:	b21b      	sxth	r3, r3
100038d0:	f443 7340 	orr.w	r3, r3, #768	; 0x300
100038d4:	480e      	ldr	r0, [pc, #56]	; (10003910 <tud_descriptor_string_cb+0x5c>)
100038d6:	8003      	strh	r3, [r0, #0]
100038d8:	bd10      	pop	{r4, pc}
100038da:	2111      	movs	r1, #17
100038dc:	480b      	ldr	r0, [pc, #44]	; (1000390c <tud_descriptor_string_cb+0x58>)
100038de:	f000 f847 	bl	10003970 <pico_get_unique_board_id_string>
100038e2:	e7ec      	b.n	100038be <tud_descriptor_string_cb+0xa>
100038e4:	2c05      	cmp	r4, #5
100038e6:	d80e      	bhi.n	10003906 <tud_descriptor_string_cb+0x52>
100038e8:	4b0a      	ldr	r3, [pc, #40]	; (10003914 <tud_descriptor_string_cb+0x60>)
100038ea:	f853 0024 	ldr.w	r0, [r3, r4, lsl #2]
100038ee:	2300      	movs	r3, #0
100038f0:	2b12      	cmp	r3, #18
100038f2:	d8ea      	bhi.n	100038ca <tud_descriptor_string_cb+0x16>
100038f4:	5cc2      	ldrb	r2, [r0, r3]
100038f6:	2a00      	cmp	r2, #0
100038f8:	d0e7      	beq.n	100038ca <tud_descriptor_string_cb+0x16>
100038fa:	3301      	adds	r3, #1
100038fc:	4904      	ldr	r1, [pc, #16]	; (10003910 <tud_descriptor_string_cb+0x5c>)
100038fe:	f821 2013 	strh.w	r2, [r1, r3, lsl #1]
10003902:	b2db      	uxtb	r3, r3
10003904:	e7f4      	b.n	100038f0 <tud_descriptor_string_cb+0x3c>
10003906:	2000      	movs	r0, #0
10003908:	e7e6      	b.n	100038d8 <tud_descriptor_string_cb+0x24>
1000390a:	bf00      	nop
1000390c:	20001fc8 	.word	0x20001fc8
10003910:	20001b50 	.word	0x20001b50
10003914:	10007158 	.word	0x10007158

10003918 <_retrieve_unique_id_on_boot>:
10003918:	b500      	push	{lr}
1000391a:	b08b      	sub	sp, #44	; 0x2c
1000391c:	f245 3047 	movw	r0, #21319	; 0x5347
10003920:	f7fe f83e 	bl	100019a0 <rom_func_lookup>
10003924:	4603      	mov	r3, r0
10003926:	2201      	movs	r2, #1
10003928:	2109      	movs	r1, #9
1000392a:	a801      	add	r0, sp, #4
1000392c:	4798      	blx	r3
1000392e:	2804      	cmp	r0, #4
10003930:	d101      	bne.n	10003936 <_retrieve_unique_id_on_boot+0x1e>
10003932:	2300      	movs	r3, #0
10003934:	e00e      	b.n	10003954 <_retrieve_unique_id_on_boot+0x3c>
10003936:	4b0a      	ldr	r3, [pc, #40]	; (10003960 <_retrieve_unique_id_on_boot+0x48>)
10003938:	4a0a      	ldr	r2, [pc, #40]	; (10003964 <_retrieve_unique_id_on_boot+0x4c>)
1000393a:	2129      	movs	r1, #41	; 0x29
1000393c:	480a      	ldr	r0, [pc, #40]	; (10003968 <_retrieve_unique_id_on_boot+0x50>)
1000393e:	f7ff fbbf 	bl	100030c0 <__assert_func>
10003942:	f1c3 020f 	rsb	r2, r3, #15
10003946:	3228      	adds	r2, #40	; 0x28
10003948:	446a      	add	r2, sp
1000394a:	f812 1c24 	ldrb.w	r1, [r2, #-36]
1000394e:	4a07      	ldr	r2, [pc, #28]	; (1000396c <_retrieve_unique_id_on_boot+0x54>)
10003950:	54d1      	strb	r1, [r2, r3]
10003952:	3301      	adds	r3, #1
10003954:	2b07      	cmp	r3, #7
10003956:	ddf4      	ble.n	10003942 <_retrieve_unique_id_on_boot+0x2a>
10003958:	b00b      	add	sp, #44	; 0x2c
1000395a:	f85d fb04 	ldr.w	pc, [sp], #4
1000395e:	bf00      	nop
10003960:	10007170 	.word	0x10007170
10003964:	100071dc 	.word	0x100071dc
10003968:	10007178 	.word	0x10007178
1000396c:	20001fb4 	.word	0x20001fb4

10003970 <pico_get_unique_board_id_string>:
10003970:	b508      	push	{r3, lr}
10003972:	b111      	cbz	r1, 1000397a <pico_get_unique_board_id_string+0xa>
10003974:	468c      	mov	ip, r1
10003976:	2200      	movs	r2, #0
10003978:	e00a      	b.n	10003990 <pico_get_unique_board_id_string+0x20>
1000397a:	4b11      	ldr	r3, [pc, #68]	; (100039c0 <pico_get_unique_board_id_string+0x50>)
1000397c:	4a11      	ldr	r2, [pc, #68]	; (100039c4 <pico_get_unique_board_id_string+0x54>)
1000397e:	2135      	movs	r1, #53	; 0x35
10003980:	4811      	ldr	r0, [pc, #68]	; (100039c8 <pico_get_unique_board_id_string+0x58>)
10003982:	f7ff fb9d 	bl	100030c0 <__assert_func>
10003986:	2100      	movs	r1, #0
10003988:	e00f      	b.n	100039aa <pico_get_unique_board_id_string+0x3a>
1000398a:	3337      	adds	r3, #55	; 0x37
1000398c:	5483      	strb	r3, [r0, r2]
1000398e:	3201      	adds	r2, #1
10003990:	f10c 33ff 	add.w	r3, ip, #4294967295
10003994:	4293      	cmp	r3, r2
10003996:	d90f      	bls.n	100039b8 <pico_get_unique_board_id_string+0x48>
10003998:	2a0f      	cmp	r2, #15
1000399a:	d80d      	bhi.n	100039b8 <pico_get_unique_board_id_string+0x48>
1000399c:	0853      	lsrs	r3, r2, #1
1000399e:	490b      	ldr	r1, [pc, #44]	; (100039cc <pico_get_unique_board_id_string+0x5c>)
100039a0:	5ccb      	ldrb	r3, [r1, r3]
100039a2:	f012 0f01 	tst.w	r2, #1
100039a6:	d1ee      	bne.n	10003986 <pico_get_unique_board_id_string+0x16>
100039a8:	2104      	movs	r1, #4
100039aa:	410b      	asrs	r3, r1
100039ac:	f003 030f 	and.w	r3, r3, #15
100039b0:	2b09      	cmp	r3, #9
100039b2:	dcea      	bgt.n	1000398a <pico_get_unique_board_id_string+0x1a>
100039b4:	3330      	adds	r3, #48	; 0x30
100039b6:	e7e9      	b.n	1000398c <pico_get_unique_board_id_string+0x1c>
100039b8:	2300      	movs	r3, #0
100039ba:	5483      	strb	r3, [r0, r2]
100039bc:	bd08      	pop	{r3, pc}
100039be:	bf00      	nop
100039c0:	100071b4 	.word	0x100071b4
100039c4:	100071bc 	.word	0x100071bc
100039c8:	10007178 	.word	0x10007178
100039cc:	20001fb4 	.word	0x20001fb4

100039d0 <_hw_endpoint_alloc>:
100039d0:	b510      	push	{r4, lr}
100039d2:	8b03      	ldrh	r3, [r0, #24]
100039d4:	333f      	adds	r3, #63	; 0x3f
100039d6:	f023 033f 	bic.w	r3, r3, #63	; 0x3f
100039da:	2902      	cmp	r1, #2
100039dc:	d019      	beq.n	10003a12 <_hw_endpoint_alloc+0x42>
100039de:	4c14      	ldr	r4, [pc, #80]	; (10003a30 <_hw_endpoint_alloc+0x60>)
100039e0:	6822      	ldr	r2, [r4, #0]
100039e2:	60c2      	str	r2, [r0, #12]
100039e4:	4413      	add	r3, r2
100039e6:	6023      	str	r3, [r4, #0]
100039e8:	f013 0f3f 	tst.w	r3, #63	; 0x3f
100039ec:	d113      	bne.n	10003a16 <_hw_endpoint_alloc+0x46>
100039ee:	f082 42a0 	eor.w	r2, r2, #1342177280	; 0x50000000
100039f2:	f482 1280 	eor.w	r2, r2, #1048576	; 0x100000
100039f6:	f083 43a0 	eor.w	r3, r3, #1342177280	; 0x50000000
100039fa:	f483 1380 	eor.w	r3, r3, #1048576	; 0x100000
100039fe:	f5b3 5f80 	cmp.w	r3, #4096	; 0x1000
10003a02:	d80e      	bhi.n	10003a22 <_hw_endpoint_alloc+0x52>
10003a04:	ea42 6281 	orr.w	r2, r2, r1, lsl #26
10003a08:	f042 4200 	orr.w	r2, r2, #2147483648	; 0x80000000
10003a0c:	6843      	ldr	r3, [r0, #4]
10003a0e:	601a      	str	r2, [r3, #0]
10003a10:	bd10      	pop	{r4, pc}
10003a12:	005b      	lsls	r3, r3, #1
10003a14:	e7e3      	b.n	100039de <_hw_endpoint_alloc+0xe>
10003a16:	4b07      	ldr	r3, [pc, #28]	; (10003a34 <_hw_endpoint_alloc+0x64>)
10003a18:	4a07      	ldr	r2, [pc, #28]	; (10003a38 <_hw_endpoint_alloc+0x68>)
10003a1a:	2151      	movs	r1, #81	; 0x51
10003a1c:	4807      	ldr	r0, [pc, #28]	; (10003a3c <_hw_endpoint_alloc+0x6c>)
10003a1e:	f7ff fb4f 	bl	100030c0 <__assert_func>
10003a22:	4b07      	ldr	r3, [pc, #28]	; (10003a40 <_hw_endpoint_alloc+0x70>)
10003a24:	4a04      	ldr	r2, [pc, #16]	; (10003a38 <_hw_endpoint_alloc+0x68>)
10003a26:	2153      	movs	r1, #83	; 0x53
10003a28:	4804      	ldr	r0, [pc, #16]	; (10003a3c <_hw_endpoint_alloc+0x6c>)
10003a2a:	f7ff fb49 	bl	100030c0 <__assert_func>
10003a2e:	bf00      	nop
10003a30:	20001f88 	.word	0x20001f88
10003a34:	100071f8 	.word	0x100071f8
10003a38:	10007308 	.word	0x10007308
10003a3c:	10007228 	.word	0x10007228
10003a40:	10007274 	.word	0x10007274

10003a44 <hw_endpoint_init>:
10003a44:	b570      	push	{r4, r5, r6, lr}
10003a46:	4603      	mov	r3, r0
10003a48:	f000 047f 	and.w	r4, r0, #127	; 0x7f
10003a4c:	0060      	lsls	r0, r4, #1
10003a4e:	eb00 10d3 	add.w	r0, r0, r3, lsr #7
10003a52:	4d24      	ldr	r5, [pc, #144]	; (10003ae4 <hw_endpoint_init+0xa0>)
10003a54:	eb05 1040 	add.w	r0, r5, r0, lsl #5
10003a58:	7083      	strb	r3, [r0, #2]
10003a5a:	09db      	lsrs	r3, r3, #7
10003a5c:	bf0c      	ite	eq
10003a5e:	2501      	moveq	r5, #1
10003a60:	2500      	movne	r5, #0
10003a62:	7045      	strb	r5, [r0, #1]
10003a64:	2500      	movs	r5, #0
10003a66:	70c5      	strb	r5, [r0, #3]
10003a68:	8301      	strh	r1, [r0, #24]
10003a6a:	76c2      	strb	r2, [r0, #27]
10003a6c:	b9d3      	cbnz	r3, 10003aa4 <hw_endpoint_init+0x60>
10003a6e:	00e1      	lsls	r1, r4, #3
10003a70:	4e1d      	ldr	r6, [pc, #116]	; (10003ae8 <hw_endpoint_init+0xa4>)
10003a72:	440e      	add	r6, r1
10003a74:	eb03 0144 	add.w	r1, r3, r4, lsl #1
10003a78:	4d1a      	ldr	r5, [pc, #104]	; (10003ae4 <hw_endpoint_init+0xa0>)
10003a7a:	eb05 1141 	add.w	r1, r5, r1, lsl #5
10003a7e:	608e      	str	r6, [r1, #8]
10003a80:	eb03 0144 	add.w	r1, r3, r4, lsl #1
10003a84:	4d17      	ldr	r5, [pc, #92]	; (10003ae4 <hw_endpoint_init+0xa0>)
10003a86:	eb05 1141 	add.w	r1, r5, r1, lsl #5
10003a8a:	6889      	ldr	r1, [r1, #8]
10003a8c:	2500      	movs	r5, #0
10003a8e:	600d      	str	r5, [r1, #0]
10003a90:	b96c      	cbnz	r4, 10003aae <hw_endpoint_init+0x6a>
10003a92:	eb03 0344 	add.w	r3, r3, r4, lsl #1
10003a96:	4a13      	ldr	r2, [pc, #76]	; (10003ae4 <hw_endpoint_init+0xa0>)
10003a98:	eb02 1343 	add.w	r3, r2, r3, lsl #5
10003a9c:	605d      	str	r5, [r3, #4]
10003a9e:	4a13      	ldr	r2, [pc, #76]	; (10003aec <hw_endpoint_init+0xa8>)
10003aa0:	60da      	str	r2, [r3, #12]
10003aa2:	bd70      	pop	{r4, r5, r6, pc}
10003aa4:	4e12      	ldr	r6, [pc, #72]	; (10003af0 <hw_endpoint_init+0xac>)
10003aa6:	eb06 06c4 	add.w	r6, r6, r4, lsl #3
10003aaa:	6086      	str	r6, [r0, #8]
10003aac:	e7e8      	b.n	10003a80 <hw_endpoint_init+0x3c>
10003aae:	b96b      	cbnz	r3, 10003acc <hw_endpoint_init+0x88>
10003ab0:	1e61      	subs	r1, r4, #1
10003ab2:	00c9      	lsls	r1, r1, #3
10003ab4:	4d0f      	ldr	r5, [pc, #60]	; (10003af4 <hw_endpoint_init+0xb0>)
10003ab6:	440d      	add	r5, r1
10003ab8:	eb03 0344 	add.w	r3, r3, r4, lsl #1
10003abc:	4909      	ldr	r1, [pc, #36]	; (10003ae4 <hw_endpoint_init+0xa0>)
10003abe:	eb01 1343 	add.w	r3, r1, r3, lsl #5
10003ac2:	605d      	str	r5, [r3, #4]
10003ac4:	4611      	mov	r1, r2
10003ac6:	f7ff ff83 	bl	100039d0 <_hw_endpoint_alloc>
10003aca:	e7ea      	b.n	10003aa2 <hw_endpoint_init+0x5e>
10003acc:	1e61      	subs	r1, r4, #1
10003ace:	4d0a      	ldr	r5, [pc, #40]	; (10003af8 <hw_endpoint_init+0xb4>)
10003ad0:	eb05 05c1 	add.w	r5, r5, r1, lsl #3
10003ad4:	eb03 0344 	add.w	r3, r3, r4, lsl #1
10003ad8:	4902      	ldr	r1, [pc, #8]	; (10003ae4 <hw_endpoint_init+0xa0>)
10003ada:	eb01 1343 	add.w	r3, r1, r3, lsl #5
10003ade:	605d      	str	r5, [r3, #4]
10003ae0:	e7f0      	b.n	10003ac4 <hw_endpoint_init+0x80>
10003ae2:	bf00      	nop
10003ae4:	20001b84 	.word	0x20001b84
10003ae8:	50100084 	.word	0x50100084
10003aec:	50100100 	.word	0x50100100
10003af0:	50100080 	.word	0x50100080
10003af4:	5010000c 	.word	0x5010000c
10003af8:	50100008 	.word	0x50100008

10003afc <hw_endpoint_xfer>:
10003afc:	b508      	push	{r3, lr}
10003afe:	f000 037f 	and.w	r3, r0, #127	; 0x7f
10003b02:	005b      	lsls	r3, r3, #1
10003b04:	eb03 10d0 	add.w	r0, r3, r0, lsr #7
10003b08:	4b02      	ldr	r3, [pc, #8]	; (10003b14 <hw_endpoint_xfer+0x18>)
10003b0a:	eb03 1040 	add.w	r0, r3, r0, lsl #5
10003b0e:	f000 f923 	bl	10003d58 <hw_endpoint_xfer_start>
10003b12:	bd08      	pop	{r3, pc}
10003b14:	20001b84 	.word	0x20001b84

10003b18 <dcd_int_enable>:
10003b18:	b508      	push	{r3, lr}
10003b1a:	b920      	cbnz	r0, 10003b26 <dcd_int_enable+0xe>
10003b1c:	2101      	movs	r1, #1
10003b1e:	200e      	movs	r0, #14
10003b20:	f7fc ff18 	bl	10000954 <irq_set_enabled>
10003b24:	bd08      	pop	{r3, pc}
10003b26:	4b03      	ldr	r3, [pc, #12]	; (10003b34 <dcd_int_enable+0x1c>)
10003b28:	4a03      	ldr	r2, [pc, #12]	; (10003b38 <dcd_int_enable+0x20>)
10003b2a:	f44f 71d4 	mov.w	r1, #424	; 0x1a8
10003b2e:	4803      	ldr	r0, [pc, #12]	; (10003b3c <dcd_int_enable+0x24>)
10003b30:	f7ff fac6 	bl	100030c0 <__assert_func>
10003b34:	100072bc 	.word	0x100072bc
10003b38:	100072f8 	.word	0x100072f8
10003b3c:	10007228 	.word	0x10007228

10003b40 <dcd_set_address>:
10003b40:	b508      	push	{r3, lr}
10003b42:	b928      	cbnz	r0, 10003b50 <dcd_set_address+0x10>
10003b44:	2200      	movs	r2, #0
10003b46:	4611      	mov	r1, r2
10003b48:	2080      	movs	r0, #128	; 0x80
10003b4a:	f7ff ffd7 	bl	10003afc <hw_endpoint_xfer>
10003b4e:	bd08      	pop	{r3, pc}
10003b50:	4b03      	ldr	r3, [pc, #12]	; (10003b60 <dcd_set_address+0x20>)
10003b52:	4a04      	ldr	r2, [pc, #16]	; (10003b64 <dcd_set_address+0x24>)
10003b54:	f44f 71d9 	mov.w	r1, #434	; 0x1b2
10003b58:	4803      	ldr	r0, [pc, #12]	; (10003b68 <dcd_set_address+0x28>)
10003b5a:	f7ff fab1 	bl	100030c0 <__assert_func>
10003b5e:	bf00      	nop
10003b60:	100072bc 	.word	0x100072bc
10003b64:	100072e8 	.word	0x100072e8
10003b68:	10007228 	.word	0x10007228

10003b6c <dcd_connect>:
10003b6c:	4b02      	ldr	r3, [pc, #8]	; (10003b78 <dcd_connect+0xc>)
10003b6e:	f44f 3280 	mov.w	r2, #65536	; 0x10000
10003b72:	64da      	str	r2, [r3, #76]	; 0x4c
10003b74:	4770      	bx	lr
10003b76:	bf00      	nop
10003b78:	50112000 	.word	0x50112000

10003b7c <dcd_init>:
10003b7c:	b570      	push	{r4, r5, r6, lr}
10003b7e:	bb40      	cbnz	r0, 10003bd2 <dcd_init+0x56>
10003b80:	4606      	mov	r6, r0
10003b82:	f000 f8c9 	bl	10003d18 <rp2040_usb_init>
10003b86:	4c16      	ldr	r4, [pc, #88]	; (10003be0 <dcd_init+0x64>)
10003b88:	230c      	movs	r3, #12
10003b8a:	67a3      	str	r3, [r4, #120]	; 0x78
10003b8c:	22ff      	movs	r2, #255	; 0xff
10003b8e:	4915      	ldr	r1, [pc, #84]	; (10003be4 <dcd_init+0x68>)
10003b90:	200e      	movs	r0, #14
10003b92:	f7fc ff3d 	bl	10000a10 <irq_add_shared_handler>
10003b96:	2540      	movs	r5, #64	; 0x40
10003b98:	462a      	mov	r2, r5
10003b9a:	2100      	movs	r1, #0
10003b9c:	4812      	ldr	r0, [pc, #72]	; (10003be8 <dcd_init+0x6c>)
10003b9e:	f002 fd41 	bl	10006624 <memset>
10003ba2:	2200      	movs	r2, #0
10003ba4:	4629      	mov	r1, r5
10003ba6:	4610      	mov	r0, r2
10003ba8:	f7ff ff4c 	bl	10003a44 <hw_endpoint_init>
10003bac:	2200      	movs	r2, #0
10003bae:	4629      	mov	r1, r5
10003bb0:	2080      	movs	r0, #128	; 0x80
10003bb2:	f7ff ff47 	bl	10003a44 <hw_endpoint_init>
10003bb6:	f002 fdf7 	bl	100067a8 <__reset_non_control_endpoints_veneer>
10003bba:	2301      	movs	r3, #1
10003bbc:	6423      	str	r3, [r4, #64]	; 0x40
10003bbe:	f04f 5300 	mov.w	r3, #536870912	; 0x20000000
10003bc2:	64e3      	str	r3, [r4, #76]	; 0x4c
10003bc4:	4b09      	ldr	r3, [pc, #36]	; (10003bec <dcd_init+0x70>)
10003bc6:	f8c4 3090 	str.w	r3, [r4, #144]	; 0x90
10003bca:	4630      	mov	r0, r6
10003bcc:	f7ff ffce 	bl	10003b6c <dcd_connect>
10003bd0:	bd70      	pop	{r4, r5, r6, pc}
10003bd2:	4b07      	ldr	r3, [pc, #28]	; (10003bf0 <dcd_init+0x74>)
10003bd4:	4a07      	ldr	r2, [pc, #28]	; (10003bf4 <dcd_init+0x78>)
10003bd6:	f240 1175 	movw	r1, #373	; 0x175
10003bda:	4807      	ldr	r0, [pc, #28]	; (10003bf8 <dcd_init+0x7c>)
10003bdc:	f7ff fa70 	bl	100030c0 <__assert_func>
10003be0:	50110000 	.word	0x50110000
10003be4:	20000399 	.word	0x20000399
10003be8:	20001b84 	.word	0x20001b84
10003bec:	0001d010 	.word	0x0001d010
10003bf0:	100072bc 	.word	0x100072bc
10003bf4:	1000731c 	.word	0x1000731c
10003bf8:	10007228 	.word	0x10007228

10003bfc <dcd_sof_enable>:
10003bfc:	4b04      	ldr	r3, [pc, #16]	; (10003c10 <dcd_sof_enable+0x14>)
10003bfe:	7019      	strb	r1, [r3, #0]
10003c00:	b121      	cbz	r1, 10003c0c <dcd_sof_enable+0x10>
10003c02:	4b04      	ldr	r3, [pc, #16]	; (10003c14 <dcd_sof_enable+0x18>)
10003c04:	f44f 3200 	mov.w	r2, #131072	; 0x20000
10003c08:	f8c3 2090 	str.w	r2, [r3, #144]	; 0x90
10003c0c:	4770      	bx	lr
10003c0e:	bf00      	nop
10003c10:	20001fda 	.word	0x20001fda
10003c14:	50112000 	.word	0x50112000

10003c18 <dcd_edpt0_status_complete>:
10003c18:	780b      	ldrb	r3, [r1, #0]
10003c1a:	f013 0f7f 	tst.w	r3, #127	; 0x7f
10003c1e:	d102      	bne.n	10003c26 <dcd_edpt0_status_complete+0xe>
10003c20:	784b      	ldrb	r3, [r1, #1]
10003c22:	2b05      	cmp	r3, #5
10003c24:	d000      	beq.n	10003c28 <dcd_edpt0_status_complete+0x10>
10003c26:	4770      	bx	lr
10003c28:	884b      	ldrh	r3, [r1, #2]
10003c2a:	b2db      	uxtb	r3, r3
10003c2c:	4a01      	ldr	r2, [pc, #4]	; (10003c34 <dcd_edpt0_status_complete+0x1c>)
10003c2e:	6013      	str	r3, [r2, #0]
10003c30:	e7f9      	b.n	10003c26 <dcd_edpt0_status_complete+0xe>
10003c32:	bf00      	nop
10003c34:	50110000 	.word	0x50110000

10003c38 <dcd_edpt_open>:
10003c38:	b508      	push	{r3, lr}
10003c3a:	b958      	cbnz	r0, 10003c54 <dcd_edpt_open+0x1c>
10003c3c:	460b      	mov	r3, r1
10003c3e:	8889      	ldrh	r1, [r1, #4]
10003c40:	78da      	ldrb	r2, [r3, #3]
10003c42:	f002 0203 	and.w	r2, r2, #3
10003c46:	f3c1 010a 	ubfx	r1, r1, #0, #11
10003c4a:	7898      	ldrb	r0, [r3, #2]
10003c4c:	f7ff fefa 	bl	10003a44 <hw_endpoint_init>
10003c50:	2001      	movs	r0, #1
10003c52:	bd08      	pop	{r3, pc}
10003c54:	4b03      	ldr	r3, [pc, #12]	; (10003c64 <dcd_edpt_open+0x2c>)
10003c56:	4a04      	ldr	r2, [pc, #16]	; (10003c68 <dcd_edpt_open+0x30>)
10003c58:	f240 11ef 	movw	r1, #495	; 0x1ef
10003c5c:	4803      	ldr	r0, [pc, #12]	; (10003c6c <dcd_edpt_open+0x34>)
10003c5e:	f7ff fa2f 	bl	100030c0 <__assert_func>
10003c62:	bf00      	nop
10003c64:	100072bc 	.word	0x100072bc
10003c68:	100072d8 	.word	0x100072d8
10003c6c:	10007228 	.word	0x10007228

10003c70 <dcd_edpt_close_all>:
10003c70:	b508      	push	{r3, lr}
10003c72:	f002 fd99 	bl	100067a8 <__reset_non_control_endpoints_veneer>
10003c76:	bd08      	pop	{r3, pc}

10003c78 <dcd_edpt_xfer>:
10003c78:	b510      	push	{r4, lr}
10003c7a:	b930      	cbnz	r0, 10003c8a <dcd_edpt_xfer+0x12>
10003c7c:	4608      	mov	r0, r1
10003c7e:	4611      	mov	r1, r2
10003c80:	461a      	mov	r2, r3
10003c82:	f7ff ff3b 	bl	10003afc <hw_endpoint_xfer>
10003c86:	2001      	movs	r0, #1
10003c88:	bd10      	pop	{r4, pc}
10003c8a:	4b03      	ldr	r3, [pc, #12]	; (10003c98 <dcd_edpt_xfer+0x20>)
10003c8c:	4a03      	ldr	r2, [pc, #12]	; (10003c9c <dcd_edpt_xfer+0x24>)
10003c8e:	f44f 71fe 	mov.w	r1, #508	; 0x1fc
10003c92:	4803      	ldr	r0, [pc, #12]	; (10003ca0 <dcd_edpt_xfer+0x28>)
10003c94:	f7ff fa14 	bl	100030c0 <__assert_func>
10003c98:	100072bc 	.word	0x100072bc
10003c9c:	100072c8 	.word	0x100072c8
10003ca0:	10007228 	.word	0x10007228

10003ca4 <dcd_edpt_stall>:
10003ca4:	b508      	push	{r3, lr}
10003ca6:	f011 007f 	ands.w	r0, r1, #127	; 0x7f
10003caa:	d104      	bne.n	10003cb6 <dcd_edpt_stall+0x12>
10003cac:	09cb      	lsrs	r3, r1, #7
10003cae:	d10e      	bne.n	10003cce <dcd_edpt_stall+0x2a>
10003cb0:	2202      	movs	r2, #2
10003cb2:	4b08      	ldr	r3, [pc, #32]	; (10003cd4 <dcd_edpt_stall+0x30>)
10003cb4:	669a      	str	r2, [r3, #104]	; 0x68
10003cb6:	0040      	lsls	r0, r0, #1
10003cb8:	eb00 10d1 	add.w	r0, r0, r1, lsr #7
10003cbc:	f44f 6200 	mov.w	r2, #2048	; 0x800
10003cc0:	2100      	movs	r1, #0
10003cc2:	4b05      	ldr	r3, [pc, #20]	; (10003cd8 <dcd_edpt_stall+0x34>)
10003cc4:	eb03 1040 	add.w	r0, r3, r0, lsl #5
10003cc8:	f002 fd86 	bl	100067d8 <___hw_endpoint_buffer_control_update32_veneer>
10003ccc:	bd08      	pop	{r3, pc}
10003cce:	2201      	movs	r2, #1
10003cd0:	e7ef      	b.n	10003cb2 <dcd_edpt_stall+0xe>
10003cd2:	bf00      	nop
10003cd4:	50112000 	.word	0x50112000
10003cd8:	20001b84 	.word	0x20001b84

10003cdc <dcd_edpt_clear_stall>:
10003cdc:	f011 007f 	ands.w	r0, r1, #127	; 0x7f
10003ce0:	d100      	bne.n	10003ce4 <dcd_edpt_clear_stall+0x8>
10003ce2:	4770      	bx	lr
10003ce4:	b508      	push	{r3, lr}
10003ce6:	0040      	lsls	r0, r0, #1
10003ce8:	eb00 11d1 	add.w	r1, r0, r1, lsr #7
10003cec:	4804      	ldr	r0, [pc, #16]	; (10003d00 <dcd_edpt_clear_stall+0x24>)
10003cee:	eb00 1041 	add.w	r0, r0, r1, lsl #5
10003cf2:	2200      	movs	r2, #0
10003cf4:	70c2      	strb	r2, [r0, #3]
10003cf6:	f46f 6100 	mvn.w	r1, #2048	; 0x800
10003cfa:	f002 fd6d 	bl	100067d8 <___hw_endpoint_buffer_control_update32_veneer>
10003cfe:	bd08      	pop	{r3, pc}
10003d00:	20001b84 	.word	0x20001b84

10003d04 <unaligned_memcpy>:
10003d04:	e004      	b.n	10003d10 <unaligned_memcpy+0xc>
10003d06:	f811 2b01 	ldrb.w	r2, [r1], #1
10003d0a:	f800 2b01 	strb.w	r2, [r0], #1
10003d0e:	461a      	mov	r2, r3
10003d10:	1e53      	subs	r3, r2, #1
10003d12:	2a00      	cmp	r2, #0
10003d14:	d1f7      	bne.n	10003d06 <unaligned_memcpy+0x2>
10003d16:	4770      	bx	lr

10003d18 <rp2040_usb_init>:
10003d18:	b508      	push	{r3, lr}
10003d1a:	f04f 5380 	mov.w	r3, #268435456	; 0x10000000
10003d1e:	4a0a      	ldr	r2, [pc, #40]	; (10003d48 <rp2040_usb_init+0x30>)
10003d20:	6013      	str	r3, [r2, #0]
10003d22:	f502 5280 	add.w	r2, r2, #4096	; 0x1000
10003d26:	6013      	str	r3, [r2, #0]
10003d28:	4b08      	ldr	r3, [pc, #32]	; (10003d4c <rp2040_usb_init+0x34>)
10003d2a:	689b      	ldr	r3, [r3, #8]
10003d2c:	f013 5f80 	tst.w	r3, #268435456	; 0x10000000
10003d30:	d0fa      	beq.n	10003d28 <rp2040_usb_init+0x10>
10003d32:	f44f 5280 	mov.w	r2, #4096	; 0x1000
10003d36:	2100      	movs	r1, #0
10003d38:	4805      	ldr	r0, [pc, #20]	; (10003d50 <rp2040_usb_init+0x38>)
10003d3a:	f002 fc73 	bl	10006624 <memset>
10003d3e:	4b05      	ldr	r3, [pc, #20]	; (10003d54 <rp2040_usb_init+0x3c>)
10003d40:	2209      	movs	r2, #9
10003d42:	675a      	str	r2, [r3, #116]	; 0x74
10003d44:	bd08      	pop	{r3, pc}
10003d46:	bf00      	nop
10003d48:	40022000 	.word	0x40022000
10003d4c:	40020000 	.word	0x40020000
10003d50:	50100000 	.word	0x50100000
10003d54:	50110000 	.word	0x50110000

10003d58 <hw_endpoint_xfer_start>:
10003d58:	b570      	push	{r4, r5, r6, lr}
10003d5a:	4604      	mov	r4, r0
10003d5c:	460d      	mov	r5, r1
10003d5e:	4616      	mov	r6, r2
10003d60:	7e83      	ldrb	r3, [r0, #26]
10003d62:	b9ab      	cbnz	r3, 10003d90 <hw_endpoint_xfer_start+0x38>
10003d64:	82a6      	strh	r6, [r4, #20]
10003d66:	2300      	movs	r3, #0
10003d68:	82e3      	strh	r3, [r4, #22]
10003d6a:	2301      	movs	r3, #1
10003d6c:	76a3      	strb	r3, [r4, #26]
10003d6e:	6125      	str	r5, [r4, #16]
10003d70:	4620      	mov	r0, r4
10003d72:	f002 fcf1 	bl	10006758 <__e15_is_bulkin_ep_veneer>
10003d76:	b120      	cbz	r0, 10003d82 <hw_endpoint_xfer_start+0x2a>
10003d78:	4b0b      	ldr	r3, [pc, #44]	; (10003da8 <hw_endpoint_xfer_start+0x50>)
10003d7a:	f44f 3200 	mov.w	r2, #131072	; 0x20000
10003d7e:	f8c3 2090 	str.w	r2, [r3, #144]	; 0x90
10003d82:	4620      	mov	r0, r4
10003d84:	f002 fd20 	bl	100067c8 <__e15_is_critical_frame_period_veneer>
10003d88:	b150      	cbz	r0, 10003da0 <hw_endpoint_xfer_start+0x48>
10003d8a:	2301      	movs	r3, #1
10003d8c:	7723      	strb	r3, [r4, #28]
10003d8e:	bd70      	pop	{r4, r5, r6, pc}
10003d90:	7881      	ldrb	r1, [r0, #2]
10003d92:	4806      	ldr	r0, [pc, #24]	; (10003dac <hw_endpoint_xfer_start+0x54>)
10003d94:	f7ff faf6 	bl	10003384 <__wrap_printf>
10003d98:	4620      	mov	r0, r4
10003d9a:	f002 fd0d 	bl	100067b8 <__hw_endpoint_reset_transfer_veneer>
10003d9e:	e7e1      	b.n	10003d64 <hw_endpoint_xfer_start+0xc>
10003da0:	4620      	mov	r0, r4
10003da2:	f002 fcf9 	bl	10006798 <__hw_endpoint_start_next_buffer_veneer>
10003da6:	e7f2      	b.n	10003d8e <hw_endpoint_xfer_start+0x36>
10003da8:	50112000 	.word	0x50112000
10003dac:	100073fc 	.word	0x100073fc

10003db0 <configuration_reset>:
10003db0:	b538      	push	{r3, r4, r5, lr}
10003db2:	4605      	mov	r5, r0
10003db4:	2400      	movs	r4, #0
10003db6:	e009      	b.n	10003dcc <configuration_reset+0x1c>
10003db8:	1ad2      	subs	r2, r2, r3
10003dba:	4b1c      	ldr	r3, [pc, #112]	; (10003e2c <configuration_reset+0x7c>)
10003dbc:	eb03 1342 	add.w	r3, r3, r2, lsl #5
10003dc0:	b18b      	cbz	r3, 10003de6 <configuration_reset+0x36>
10003dc2:	68db      	ldr	r3, [r3, #12]
10003dc4:	4628      	mov	r0, r5
10003dc6:	4798      	blx	r3
10003dc8:	3401      	adds	r4, #1
10003dca:	b2e4      	uxtb	r4, r4
10003dcc:	4b18      	ldr	r3, [pc, #96]	; (10003e30 <configuration_reset+0x80>)
10003dce:	781b      	ldrb	r3, [r3, #0]
10003dd0:	1c59      	adds	r1, r3, #1
10003dd2:	4622      	mov	r2, r4
10003dd4:	42a1      	cmp	r1, r4
10003dd6:	db15      	blt.n	10003e04 <configuration_reset+0x54>
10003dd8:	42a3      	cmp	r3, r4
10003dda:	d9ed      	bls.n	10003db8 <configuration_reset+0x8>
10003ddc:	4b15      	ldr	r3, [pc, #84]	; (10003e34 <configuration_reset+0x84>)
10003dde:	681b      	ldr	r3, [r3, #0]
10003de0:	eb03 1344 	add.w	r3, r3, r4, lsl #5
10003de4:	e7ec      	b.n	10003dc0 <configuration_reset+0x10>
10003de6:	f240 2216 	movw	r2, #534	; 0x216
10003dea:	4913      	ldr	r1, [pc, #76]	; (10003e38 <configuration_reset+0x88>)
10003dec:	4813      	ldr	r0, [pc, #76]	; (10003e3c <configuration_reset+0x8c>)
10003dee:	f7ff fac9 	bl	10003384 <__wrap_printf>
10003df2:	f04f 23e0 	mov.w	r3, #3758153728	; 0xe000e000
10003df6:	f8d3 3df0 	ldr.w	r3, [r3, #3568]	; 0xdf0
10003dfa:	f013 0f01 	tst.w	r3, #1
10003dfe:	d013      	beq.n	10003e28 <configuration_reset+0x78>
10003e00:	be00      	bkpt	0x0000
10003e02:	e011      	b.n	10003e28 <configuration_reset+0x78>
10003e04:	4c0e      	ldr	r4, [pc, #56]	; (10003e40 <configuration_reset+0x90>)
10003e06:	2254      	movs	r2, #84	; 0x54
10003e08:	2100      	movs	r1, #0
10003e0a:	4620      	mov	r0, r4
10003e0c:	f002 fc0a 	bl	10006624 <memset>
10003e10:	f04f 33ff 	mov.w	r3, #4294967295
10003e14:	6063      	str	r3, [r4, #4]
10003e16:	60a3      	str	r3, [r4, #8]
10003e18:	60e3      	str	r3, [r4, #12]
10003e1a:	6123      	str	r3, [r4, #16]
10003e1c:	2220      	movs	r2, #32
10003e1e:	21ff      	movs	r1, #255	; 0xff
10003e20:	f104 0014 	add.w	r0, r4, #20
10003e24:	f002 fbfe 	bl	10006624 <memset>
10003e28:	bd38      	pop	{r3, r4, r5, pc}
10003e2a:	bf00      	nop
10003e2c:	10007510 	.word	0x10007510
10003e30:	20001fd9 	.word	0x20001fd9
10003e34:	200013e4 	.word	0x200013e4
10003e38:	100074ec 	.word	0x100074ec
10003e3c:	10007444 	.word	0x10007444
10003e40:	20001730 	.word	0x20001730

10003e44 <usbd_reset>:
10003e44:	b508      	push	{r3, lr}
10003e46:	f7ff ffb3 	bl	10003db0 <configuration_reset>
10003e4a:	f000 ff29 	bl	10004ca0 <usbd_control_reset>
10003e4e:	bd08      	pop	{r3, pc}

10003e50 <invoke_class_control>:
10003e50:	b570      	push	{r4, r5, r6, lr}
10003e52:	4605      	mov	r5, r0
10003e54:	460c      	mov	r4, r1
10003e56:	4616      	mov	r6, r2
10003e58:	6948      	ldr	r0, [r1, #20]
10003e5a:	f000 ff2b 	bl	10004cb4 <usbd_control_set_complete_callback>
10003e5e:	6963      	ldr	r3, [r4, #20]
10003e60:	4632      	mov	r2, r6
10003e62:	2101      	movs	r1, #1
10003e64:	4628      	mov	r0, r5
10003e66:	4798      	blx	r3
10003e68:	bd70      	pop	{r4, r5, r6, pc}
	...

10003e6c <process_set_config>:
10003e6c:	e92d 4ff0 	stmdb	sp!, {r4, r5, r6, r7, r8, r9, sl, fp, lr}
10003e70:	b083      	sub	sp, #12
10003e72:	4682      	mov	sl, r0
10003e74:	1e48      	subs	r0, r1, #1
10003e76:	b2c0      	uxtb	r0, r0
10003e78:	f7ff fd18 	bl	100038ac <tud_descriptor_configuration_cb>
10003e7c:	b120      	cbz	r0, 10003e88 <process_set_config+0x1c>
10003e7e:	4603      	mov	r3, r0
10003e80:	7842      	ldrb	r2, [r0, #1]
10003e82:	9201      	str	r2, [sp, #4]
10003e84:	2a02      	cmp	r2, #2
10003e86:	d011      	beq.n	10003eac <process_set_config+0x40>
10003e88:	f240 32c7 	movw	r2, #967	; 0x3c7
10003e8c:	4963      	ldr	r1, [pc, #396]	; (1000401c <process_set_config+0x1b0>)
10003e8e:	4864      	ldr	r0, [pc, #400]	; (10004020 <process_set_config+0x1b4>)
10003e90:	f7ff fa78 	bl	10003384 <__wrap_printf>
10003e94:	f04f 23e0 	mov.w	r3, #3758153728	; 0xe000e000
10003e98:	f8d3 3df0 	ldr.w	r3, [r3, #3568]	; 0xdf0
10003e9c:	f013 0f01 	tst.w	r3, #1
10003ea0:	d000      	beq.n	10003ea4 <process_set_config+0x38>
10003ea2:	be00      	bkpt	0x0000
10003ea4:	2000      	movs	r0, #0
10003ea6:	b003      	add	sp, #12
10003ea8:	e8bd 8ff0 	ldmia.w	sp!, {r4, r5, r6, r7, r8, r9, sl, fp, pc}
10003eac:	79c1      	ldrb	r1, [r0, #7]
10003eae:	f3c1 1440 	ubfx	r4, r1, #5, #1
10003eb2:	4a5c      	ldr	r2, [pc, #368]	; (10004024 <process_set_config+0x1b8>)
10003eb4:	7810      	ldrb	r0, [r2, #0]
10003eb6:	f364 1004 	bfi	r0, r4, #4, #1
10003eba:	7010      	strb	r0, [r2, #0]
10003ebc:	f3c1 1180 	ubfx	r1, r1, #6, #1
10003ec0:	b2c0      	uxtb	r0, r0
10003ec2:	f361 1045 	bfi	r0, r1, #5, #1
10003ec6:	7010      	strb	r0, [r2, #0]
10003ec8:	f103 0809 	add.w	r8, r3, #9
10003ecc:	885a      	ldrh	r2, [r3, #2]
10003ece:	4413      	add	r3, r2
10003ed0:	9300      	str	r3, [sp, #0]
10003ed2:	9b00      	ldr	r3, [sp, #0]
10003ed4:	4598      	cmp	r8, r3
10003ed6:	f080 809e 	bcs.w	10004016 <process_set_config+0x1aa>
10003eda:	f898 3001 	ldrb.w	r3, [r8, #1]
10003ede:	2b0b      	cmp	r3, #11
10003ee0:	d00b      	beq.n	10003efa <process_set_config+0x8e>
10003ee2:	f04f 0b01 	mov.w	fp, #1
10003ee6:	f898 3001 	ldrb.w	r3, [r8, #1]
10003eea:	2b04      	cmp	r3, #4
10003eec:	d10b      	bne.n	10003f06 <process_set_config+0x9a>
10003eee:	9b00      	ldr	r3, [sp, #0]
10003ef0:	eba3 0708 	sub.w	r7, r3, r8
10003ef4:	b2bf      	uxth	r7, r7
10003ef6:	2400      	movs	r4, #0
10003ef8:	e060      	b.n	10003fbc <process_set_config+0x150>
10003efa:	f898 b003 	ldrb.w	fp, [r8, #3]
10003efe:	f898 3000 	ldrb.w	r3, [r8]
10003f02:	4498      	add	r8, r3
10003f04:	e7ef      	b.n	10003ee6 <process_set_config+0x7a>
10003f06:	f240 32e2 	movw	r2, #994	; 0x3e2
10003f0a:	4944      	ldr	r1, [pc, #272]	; (1000401c <process_set_config+0x1b0>)
10003f0c:	4844      	ldr	r0, [pc, #272]	; (10004020 <process_set_config+0x1b4>)
10003f0e:	f7ff fa39 	bl	10003384 <__wrap_printf>
10003f12:	f04f 23e0 	mov.w	r3, #3758153728	; 0xe000e000
10003f16:	f8d3 3df0 	ldr.w	r3, [r3, #3568]	; 0xdf0
10003f1a:	f013 0f01 	tst.w	r3, #1
10003f1e:	d000      	beq.n	10003f22 <process_set_config+0xb6>
10003f20:	be00      	bkpt	0x0000
10003f22:	2000      	movs	r0, #0
10003f24:	e7bf      	b.n	10003ea6 <process_set_config+0x3a>
10003f26:	eba9 0505 	sub.w	r5, r9, r5
10003f2a:	4b3f      	ldr	r3, [pc, #252]	; (10004028 <process_set_config+0x1bc>)
10003f2c:	eb03 1545 	add.w	r5, r3, r5, lsl #5
10003f30:	e050      	b.n	10003fd4 <process_set_config+0x168>
10003f32:	f240 32eb 	movw	r2, #1003	; 0x3eb
10003f36:	4939      	ldr	r1, [pc, #228]	; (1000401c <process_set_config+0x1b0>)
10003f38:	4839      	ldr	r0, [pc, #228]	; (10004020 <process_set_config+0x1b4>)
10003f3a:	f7ff fa23 	bl	10003384 <__wrap_printf>
10003f3e:	f04f 23e0 	mov.w	r3, #3758153728	; 0xe000e000
10003f42:	f8d3 3df0 	ldr.w	r3, [r3, #3568]	; 0xdf0
10003f46:	f013 0f01 	tst.w	r3, #1
10003f4a:	d000      	beq.n	10003f4e <process_set_config+0xe2>
10003f4c:	be00      	bkpt	0x0000
10003f4e:	2000      	movs	r0, #0
10003f50:	e7a9      	b.n	10003ea6 <process_set_config+0x3a>
10003f52:	692a      	ldr	r2, [r5, #16]
10003f54:	4b35      	ldr	r3, [pc, #212]	; (1000402c <process_set_config+0x1c0>)
10003f56:	429a      	cmp	r2, r3
10003f58:	d14b      	bne.n	10003ff2 <process_set_config+0x186>
10003f5a:	f8dd b004 	ldr.w	fp, [sp, #4]
10003f5e:	e048      	b.n	10003ff2 <process_set_config+0x186>
10003f60:	f240 420a 	movw	r2, #1034	; 0x40a
10003f64:	492d      	ldr	r1, [pc, #180]	; (1000401c <process_set_config+0x1b0>)
10003f66:	482e      	ldr	r0, [pc, #184]	; (10004020 <process_set_config+0x1b4>)
10003f68:	f7ff fa0c 	bl	10003384 <__wrap_printf>
10003f6c:	f04f 23e0 	mov.w	r3, #3758153728	; 0xe000e000
10003f70:	f8d3 3df0 	ldr.w	r3, [r3, #3568]	; 0xdf0
10003f74:	f013 0f01 	tst.w	r3, #1
10003f78:	d000      	beq.n	10003f7c <process_set_config+0x110>
10003f7a:	be00      	bkpt	0x0000
10003f7c:	2000      	movs	r0, #0
10003f7e:	e792      	b.n	10003ea6 <process_set_config+0x3a>
10003f80:	4623      	mov	r3, r4
10003f82:	4632      	mov	r2, r6
10003f84:	4641      	mov	r1, r8
10003f86:	482a      	ldr	r0, [pc, #168]	; (10004030 <process_set_config+0x1c4>)
10003f88:	f001 fd40 	bl	10005a0c <tu_edpt_bind_driver>
10003f8c:	44b0      	add	r8, r6
10003f8e:	4b29      	ldr	r3, [pc, #164]	; (10004034 <process_set_config+0x1c8>)
10003f90:	781b      	ldrb	r3, [r3, #0]
10003f92:	3301      	adds	r3, #1
10003f94:	4599      	cmp	r9, r3
10003f96:	dd9c      	ble.n	10003ed2 <process_set_config+0x66>
10003f98:	f240 4219 	movw	r2, #1049	; 0x419
10003f9c:	491f      	ldr	r1, [pc, #124]	; (1000401c <process_set_config+0x1b0>)
10003f9e:	4820      	ldr	r0, [pc, #128]	; (10004020 <process_set_config+0x1b4>)
10003fa0:	f7ff f9f0 	bl	10003384 <__wrap_printf>
10003fa4:	f04f 23e0 	mov.w	r3, #3758153728	; 0xe000e000
10003fa8:	f8d3 3df0 	ldr.w	r3, [r3, #3568]	; 0xdf0
10003fac:	f013 0f01 	tst.w	r3, #1
10003fb0:	d000      	beq.n	10003fb4 <process_set_config+0x148>
10003fb2:	be00      	bkpt	0x0000
10003fb4:	2000      	movs	r0, #0
10003fb6:	e776      	b.n	10003ea6 <process_set_config+0x3a>
10003fb8:	3401      	adds	r4, #1
10003fba:	b2e4      	uxtb	r4, r4
10003fbc:	4b1d      	ldr	r3, [pc, #116]	; (10004034 <process_set_config+0x1c8>)
10003fbe:	781d      	ldrb	r5, [r3, #0]
10003fc0:	1c6b      	adds	r3, r5, #1
10003fc2:	46a1      	mov	r9, r4
10003fc4:	42a3      	cmp	r3, r4
10003fc6:	dbe2      	blt.n	10003f8e <process_set_config+0x122>
10003fc8:	42a5      	cmp	r5, r4
10003fca:	d9ac      	bls.n	10003f26 <process_set_config+0xba>
10003fcc:	4b1a      	ldr	r3, [pc, #104]	; (10004038 <process_set_config+0x1cc>)
10003fce:	681d      	ldr	r5, [r3, #0]
10003fd0:	eb05 1544 	add.w	r5, r5, r4, lsl #5
10003fd4:	2d00      	cmp	r5, #0
10003fd6:	d0ac      	beq.n	10003f32 <process_set_config+0xc6>
10003fd8:	692b      	ldr	r3, [r5, #16]
10003fda:	463a      	mov	r2, r7
10003fdc:	4641      	mov	r1, r8
10003fde:	4650      	mov	r0, sl
10003fe0:	4798      	blx	r3
10003fe2:	2808      	cmp	r0, #8
10003fe4:	d9e8      	bls.n	10003fb8 <process_set_config+0x14c>
10003fe6:	4287      	cmp	r7, r0
10003fe8:	d3e6      	bcc.n	10003fb8 <process_set_config+0x14c>
10003fea:	4606      	mov	r6, r0
10003fec:	f1bb 0f01 	cmp.w	fp, #1
10003ff0:	d0af      	beq.n	10003f52 <process_set_config+0xe6>
10003ff2:	2200      	movs	r2, #0
10003ff4:	4593      	cmp	fp, r2
10003ff6:	d9c3      	bls.n	10003f80 <process_set_config+0x114>
10003ff8:	f898 3002 	ldrb.w	r3, [r8, #2]
10003ffc:	4413      	add	r3, r2
10003ffe:	b2db      	uxtb	r3, r3
10004000:	4908      	ldr	r1, [pc, #32]	; (10004024 <process_set_config+0x1b8>)
10004002:	4419      	add	r1, r3
10004004:	7909      	ldrb	r1, [r1, #4]
10004006:	29ff      	cmp	r1, #255	; 0xff
10004008:	d1aa      	bne.n	10003f60 <process_set_config+0xf4>
1000400a:	4906      	ldr	r1, [pc, #24]	; (10004024 <process_set_config+0x1b8>)
1000400c:	440b      	add	r3, r1
1000400e:	711c      	strb	r4, [r3, #4]
10004010:	3201      	adds	r2, #1
10004012:	b2d2      	uxtb	r2, r2
10004014:	e7ee      	b.n	10003ff4 <process_set_config+0x188>
10004016:	2001      	movs	r0, #1
10004018:	e745      	b.n	10003ea6 <process_set_config+0x3a>
1000401a:	bf00      	nop
1000401c:	100074c0 	.word	0x100074c0
10004020:	10007444 	.word	0x10007444
10004024:	20001730 	.word	0x20001730
10004028:	10007510 	.word	0x10007510
1000402c:	100051b5 	.word	0x100051b5
10004030:	20001744 	.word	0x20001744
10004034:	20001fd9 	.word	0x20001fd9
10004038:	200013e4 	.word	0x200013e4

1000403c <tud_event_hook_cb>:
1000403c:	4770      	bx	lr

1000403e <tud_sof_cb>:
1000403e:	4770      	bx	lr

10004040 <tud_descriptor_device_qualifier_cb>:
10004040:	2000      	movs	r0, #0
10004042:	4770      	bx	lr

10004044 <tud_descriptor_other_speed_configuration_cb>:
10004044:	2000      	movs	r0, #0
10004046:	4770      	bx	lr

10004048 <process_get_descriptor>:
10004048:	b538      	push	{r3, r4, r5, lr}
1000404a:	4605      	mov	r5, r0
1000404c:	460c      	mov	r4, r1
1000404e:	884b      	ldrh	r3, [r1, #2]
10004050:	0a1a      	lsrs	r2, r3, #8
10004052:	b2d8      	uxtb	r0, r3
10004054:	1e53      	subs	r3, r2, #1
10004056:	2b0e      	cmp	r3, #14
10004058:	d864      	bhi.n	10004124 <process_get_descriptor+0xdc>
1000405a:	e8df f003 	tbb	[pc, r3]
1000405e:	2d08      	.short	0x2d08
10004060:	5963634e 	.word	0x5963634e
10004064:	6363632d 	.word	0x6363632d
10004068:	63636363 	.word	0x63636363
1000406c:	22          	.byte	0x22
1000406d:	00          	.byte	0x00
1000406e:	f7ff fc19 	bl	100038a4 <tud_descriptor_device_cb>
10004072:	4602      	mov	r2, r0
10004074:	b128      	cbz	r0, 10004082 <process_get_descriptor+0x3a>
10004076:	2312      	movs	r3, #18
10004078:	4621      	mov	r1, r4
1000407a:	4628      	mov	r0, r5
1000407c:	f000 fdb2 	bl	10004be4 <tud_control_xfer>
10004080:	e051      	b.n	10004126 <process_get_descriptor+0xde>
10004082:	f240 422b 	movw	r2, #1067	; 0x42b
10004086:	492c      	ldr	r1, [pc, #176]	; (10004138 <process_get_descriptor+0xf0>)
10004088:	482c      	ldr	r0, [pc, #176]	; (1000413c <process_get_descriptor+0xf4>)
1000408a:	f7ff f97b 	bl	10003384 <__wrap_printf>
1000408e:	f04f 23e0 	mov.w	r3, #3758153728	; 0xe000e000
10004092:	f8d3 3df0 	ldr.w	r3, [r3, #3568]	; 0xdf0
10004096:	f013 0f01 	tst.w	r3, #1
1000409a:	d000      	beq.n	1000409e <process_get_descriptor+0x56>
1000409c:	be00      	bkpt	0x0000
1000409e:	2000      	movs	r0, #0
100040a0:	e041      	b.n	10004126 <process_get_descriptor+0xde>
100040a2:	f7ff f9cb 	bl	1000343c <tud_descriptor_bos_cb>
100040a6:	4602      	mov	r2, r0
100040a8:	2800      	cmp	r0, #0
100040aa:	d03d      	beq.n	10004128 <process_get_descriptor+0xe0>
100040ac:	8843      	ldrh	r3, [r0, #2]
100040ae:	4621      	mov	r1, r4
100040b0:	4628      	mov	r0, r5
100040b2:	f000 fd97 	bl	10004be4 <tud_control_xfer>
100040b6:	e036      	b.n	10004126 <process_get_descriptor+0xde>
100040b8:	2a02      	cmp	r2, #2
100040ba:	d009      	beq.n	100040d0 <process_get_descriptor+0x88>
100040bc:	f7ff ffc2 	bl	10004044 <tud_descriptor_other_speed_configuration_cb>
100040c0:	4602      	mov	r2, r0
100040c2:	b398      	cbz	r0, 1000412c <process_get_descriptor+0xe4>
100040c4:	8853      	ldrh	r3, [r2, #2]
100040c6:	4621      	mov	r1, r4
100040c8:	4628      	mov	r0, r5
100040ca:	f000 fd8b 	bl	10004be4 <tud_control_xfer>
100040ce:	e02a      	b.n	10004126 <process_get_descriptor+0xde>
100040d0:	f7ff fbec 	bl	100038ac <tud_descriptor_configuration_cb>
100040d4:	4602      	mov	r2, r0
100040d6:	2800      	cmp	r0, #0
100040d8:	d1f4      	bne.n	100040c4 <process_get_descriptor+0x7c>
100040da:	f240 4252 	movw	r2, #1106	; 0x452
100040de:	4916      	ldr	r1, [pc, #88]	; (10004138 <process_get_descriptor+0xf0>)
100040e0:	4816      	ldr	r0, [pc, #88]	; (1000413c <process_get_descriptor+0xf4>)
100040e2:	f7ff f94f 	bl	10003384 <__wrap_printf>
100040e6:	f04f 23e0 	mov.w	r3, #3758153728	; 0xe000e000
100040ea:	f8d3 3df0 	ldr.w	r3, [r3, #3568]	; 0xdf0
100040ee:	f013 0f01 	tst.w	r3, #1
100040f2:	d000      	beq.n	100040f6 <process_get_descriptor+0xae>
100040f4:	be00      	bkpt	0x0000
100040f6:	2000      	movs	r0, #0
100040f8:	e015      	b.n	10004126 <process_get_descriptor+0xde>
100040fa:	88a1      	ldrh	r1, [r4, #4]
100040fc:	f7ff fbda 	bl	100038b4 <tud_descriptor_string_cb>
10004100:	4602      	mov	r2, r0
10004102:	b1a8      	cbz	r0, 10004130 <process_get_descriptor+0xe8>
10004104:	7803      	ldrb	r3, [r0, #0]
10004106:	4621      	mov	r1, r4
10004108:	4628      	mov	r0, r5
1000410a:	f000 fd6b 	bl	10004be4 <tud_control_xfer>
1000410e:	e00a      	b.n	10004126 <process_get_descriptor+0xde>
10004110:	f7ff ff96 	bl	10004040 <tud_descriptor_device_qualifier_cb>
10004114:	4602      	mov	r2, r0
10004116:	b168      	cbz	r0, 10004134 <process_get_descriptor+0xec>
10004118:	7803      	ldrb	r3, [r0, #0]
1000411a:	4621      	mov	r1, r4
1000411c:	4628      	mov	r0, r5
1000411e:	f000 fd61 	bl	10004be4 <tud_control_xfer>
10004122:	e000      	b.n	10004126 <process_get_descriptor+0xde>
10004124:	2000      	movs	r0, #0
10004126:	bd38      	pop	{r3, r4, r5, pc}
10004128:	2000      	movs	r0, #0
1000412a:	e7fc      	b.n	10004126 <process_get_descriptor+0xde>
1000412c:	2000      	movs	r0, #0
1000412e:	e7fa      	b.n	10004126 <process_get_descriptor+0xde>
10004130:	2000      	movs	r0, #0
10004132:	e7f8      	b.n	10004126 <process_get_descriptor+0xde>
10004134:	2000      	movs	r0, #0
10004136:	e7f6      	b.n	10004126 <process_get_descriptor+0xde>
10004138:	100074a8 	.word	0x100074a8
1000413c:	10007444 	.word	0x10007444

10004140 <tud_mount_cb>:
10004140:	4770      	bx	lr

10004142 <tud_umount_cb>:
10004142:	4770      	bx	lr

10004144 <tud_suspend_cb>:
10004144:	4770      	bx	lr

10004146 <tud_resume_cb>:
10004146:	4770      	bx	lr

10004148 <tud_mounted>:
10004148:	4b02      	ldr	r3, [pc, #8]	; (10004154 <tud_mounted+0xc>)
1000414a:	7858      	ldrb	r0, [r3, #1]
1000414c:	3800      	subs	r0, #0
1000414e:	bf18      	it	ne
10004150:	2001      	movne	r0, #1
10004152:	4770      	bx	lr
10004154:	20001730 	.word	0x20001730

10004158 <tud_suspended>:
10004158:	4b02      	ldr	r3, [pc, #8]	; (10004164 <tud_suspended+0xc>)
1000415a:	7818      	ldrb	r0, [r3, #0]
1000415c:	f3c0 0080 	ubfx	r0, r0, #2, #1
10004160:	4770      	bx	lr
10004162:	bf00      	nop
10004164:	20001730 	.word	0x20001730

10004168 <tud_inited>:
10004168:	4b02      	ldr	r3, [pc, #8]	; (10004174 <tud_inited+0xc>)
1000416a:	7818      	ldrb	r0, [r3, #0]
1000416c:	38ff      	subs	r0, #255	; 0xff
1000416e:	bf18      	it	ne
10004170:	2001      	movne	r0, #1
10004172:	4770      	bx	lr
10004174:	20001220 	.word	0x20001220

10004178 <tud_init>:
10004178:	b570      	push	{r4, r5, r6, lr}
1000417a:	4605      	mov	r5, r0
1000417c:	f7ff fff4 	bl	10004168 <tud_inited>
10004180:	4606      	mov	r6, r0
10004182:	b108      	cbz	r0, 10004188 <tud_init+0x10>
10004184:	4630      	mov	r0, r6
10004186:	bd70      	pop	{r4, r5, r6, pc}
10004188:	2254      	movs	r2, #84	; 0x54
1000418a:	2100      	movs	r1, #0
1000418c:	4827      	ldr	r0, [pc, #156]	; (1000422c <tud_init+0xb4>)
1000418e:	f002 fa49 	bl	10006624 <memset>
10004192:	4b27      	ldr	r3, [pc, #156]	; (10004230 <tud_init+0xb8>)
10004194:	2200      	movs	r2, #0
10004196:	701a      	strb	r2, [r3, #0]
10004198:	4c26      	ldr	r4, [pc, #152]	; (10004234 <tud_init+0xbc>)
1000419a:	4620      	mov	r0, r4
1000419c:	f7fc fe06 	bl	10000dac <mutex_init>
100041a0:	4b25      	ldr	r3, [pc, #148]	; (10004238 <tud_init+0xc0>)
100041a2:	601c      	str	r4, [r3, #0]
100041a4:	4c25      	ldr	r4, [pc, #148]	; (1000423c <tud_init+0xc4>)
100041a6:	f104 0014 	add.w	r0, r4, #20
100041aa:	f7fc fe49 	bl	10000e40 <critical_section_init>
100041ae:	4620      	mov	r0, r4
100041b0:	f001 ffde 	bl	10006170 <tu_fifo_clear>
100041b4:	4b22      	ldr	r3, [pc, #136]	; (10004240 <tud_init+0xc8>)
100041b6:	601c      	str	r4, [r3, #0]
100041b8:	4b22      	ldr	r3, [pc, #136]	; (10004244 <tud_init+0xcc>)
100041ba:	b123      	cbz	r3, 100041c6 <tud_init+0x4e>
100041bc:	4822      	ldr	r0, [pc, #136]	; (10004248 <tud_init+0xd0>)
100041be:	f7ff f959 	bl	10003474 <usbd_app_driver_get_cb>
100041c2:	4b22      	ldr	r3, [pc, #136]	; (1000424c <tud_init+0xd4>)
100041c4:	6018      	str	r0, [r3, #0]
100041c6:	2400      	movs	r4, #0
100041c8:	e009      	b.n	100041de <tud_init+0x66>
100041ca:	1ad2      	subs	r2, r2, r3
100041cc:	4b20      	ldr	r3, [pc, #128]	; (10004250 <tud_init+0xd8>)
100041ce:	eb03 1342 	add.w	r3, r3, r2, lsl #5
100041d2:	b18b      	cbz	r3, 100041f8 <tud_init+0x80>
100041d4:	685b      	ldr	r3, [r3, #4]
100041d6:	b17b      	cbz	r3, 100041f8 <tud_init+0x80>
100041d8:	4798      	blx	r3
100041da:	3401      	adds	r4, #1
100041dc:	b2e4      	uxtb	r4, r4
100041de:	4b1a      	ldr	r3, [pc, #104]	; (10004248 <tud_init+0xd0>)
100041e0:	781b      	ldrb	r3, [r3, #0]
100041e2:	1c59      	adds	r1, r3, #1
100041e4:	4622      	mov	r2, r4
100041e6:	42a1      	cmp	r1, r4
100041e8:	db15      	blt.n	10004216 <tud_init+0x9e>
100041ea:	42a3      	cmp	r3, r4
100041ec:	d9ed      	bls.n	100041ca <tud_init+0x52>
100041ee:	4b17      	ldr	r3, [pc, #92]	; (1000424c <tud_init+0xd4>)
100041f0:	681b      	ldr	r3, [r3, #0]
100041f2:	eb03 1344 	add.w	r3, r3, r4, lsl #5
100041f6:	e7ec      	b.n	100041d2 <tud_init+0x5a>
100041f8:	f44f 72f1 	mov.w	r2, #482	; 0x1e2
100041fc:	4915      	ldr	r1, [pc, #84]	; (10004254 <tud_init+0xdc>)
100041fe:	4816      	ldr	r0, [pc, #88]	; (10004258 <tud_init+0xe0>)
10004200:	f7ff f8c0 	bl	10003384 <__wrap_printf>
10004204:	f04f 23e0 	mov.w	r3, #3758153728	; 0xe000e000
10004208:	f8d3 3df0 	ldr.w	r3, [r3, #3568]	; 0xdf0
1000420c:	f013 0f01 	tst.w	r3, #1
10004210:	d0b8      	beq.n	10004184 <tud_init+0xc>
10004212:	be00      	bkpt	0x0000
10004214:	e7b6      	b.n	10004184 <tud_init+0xc>
10004216:	4b11      	ldr	r3, [pc, #68]	; (1000425c <tud_init+0xe4>)
10004218:	701d      	strb	r5, [r3, #0]
1000421a:	4628      	mov	r0, r5
1000421c:	f7ff fcae 	bl	10003b7c <dcd_init>
10004220:	4628      	mov	r0, r5
10004222:	f7ff fc79 	bl	10003b18 <dcd_int_enable>
10004226:	2601      	movs	r6, #1
10004228:	e7ac      	b.n	10004184 <tud_init+0xc>
1000422a:	bf00      	nop
1000422c:	20001730 	.word	0x20001730
10004230:	20001fdb 	.word	0x20001fdb
10004234:	200016e8 	.word	0x200016e8
10004238:	20001784 	.word	0x20001784
1000423c:	20001204 	.word	0x20001204
10004240:	20001788 	.word	0x20001788
10004244:	10003475 	.word	0x10003475
10004248:	20001fd9 	.word	0x20001fd9
1000424c:	200013e4 	.word	0x200013e4
10004250:	10007510 	.word	0x10007510
10004254:	1000746c 	.word	0x1000746c
10004258:	10007444 	.word	0x10007444
1000425c:	20001220 	.word	0x20001220

10004260 <usbd_edpt_open>:
10004260:	b570      	push	{r4, r5, r6, lr}
10004262:	4b1a      	ldr	r3, [pc, #104]	; (100042cc <usbd_edpt_open+0x6c>)
10004264:	781e      	ldrb	r6, [r3, #0]
10004266:	788b      	ldrb	r3, [r1, #2]
10004268:	f013 0f70 	tst.w	r3, #112	; 0x70
1000426c:	d10e      	bne.n	1000428c <usbd_edpt_open+0x2c>
1000426e:	460c      	mov	r4, r1
10004270:	4b17      	ldr	r3, [pc, #92]	; (100042d0 <usbd_edpt_open+0x70>)
10004272:	7899      	ldrb	r1, [r3, #2]
10004274:	4620      	mov	r0, r4
10004276:	f001 fb59 	bl	1000592c <tu_edpt_validate>
1000427a:	4605      	mov	r5, r0
1000427c:	b1b0      	cbz	r0, 100042ac <usbd_edpt_open+0x4c>
1000427e:	4621      	mov	r1, r4
10004280:	4630      	mov	r0, r6
10004282:	f7ff fcd9 	bl	10003c38 <dcd_edpt_open>
10004286:	4605      	mov	r5, r0
10004288:	4628      	mov	r0, r5
1000428a:	bd70      	pop	{r4, r5, r6, pc}
1000428c:	f240 42fc 	movw	r2, #1276	; 0x4fc
10004290:	4910      	ldr	r1, [pc, #64]	; (100042d4 <usbd_edpt_open+0x74>)
10004292:	4811      	ldr	r0, [pc, #68]	; (100042d8 <usbd_edpt_open+0x78>)
10004294:	f7ff f876 	bl	10003384 <__wrap_printf>
10004298:	f04f 23e0 	mov.w	r3, #3758153728	; 0xe000e000
1000429c:	f8d3 3df0 	ldr.w	r3, [r3, #3568]	; 0xdf0
100042a0:	f013 0f01 	tst.w	r3, #1
100042a4:	d000      	beq.n	100042a8 <usbd_edpt_open+0x48>
100042a6:	be00      	bkpt	0x0000
100042a8:	2500      	movs	r5, #0
100042aa:	e7ed      	b.n	10004288 <usbd_edpt_open+0x28>
100042ac:	f240 42fd 	movw	r2, #1277	; 0x4fd
100042b0:	4908      	ldr	r1, [pc, #32]	; (100042d4 <usbd_edpt_open+0x74>)
100042b2:	4809      	ldr	r0, [pc, #36]	; (100042d8 <usbd_edpt_open+0x78>)
100042b4:	f7ff f866 	bl	10003384 <__wrap_printf>
100042b8:	f04f 23e0 	mov.w	r3, #3758153728	; 0xe000e000
100042bc:	f8d3 3df0 	ldr.w	r3, [r3, #3568]	; 0xdf0
100042c0:	f013 0f01 	tst.w	r3, #1
100042c4:	d0e0      	beq.n	10004288 <usbd_edpt_open+0x28>
100042c6:	be00      	bkpt	0x0000
100042c8:	e7de      	b.n	10004288 <usbd_edpt_open+0x28>
100042ca:	bf00      	nop
100042cc:	20001220 	.word	0x20001220
100042d0:	20001730 	.word	0x20001730
100042d4:	10007478 	.word	0x10007478
100042d8:	10007444 	.word	0x10007444

100042dc <usbd_open_edpt_pair>:
100042dc:	e92d 4ff8 	stmdb	sp!, {r3, r4, r5, r6, r7, r8, r9, sl, fp, lr}
100042e0:	4680      	mov	r8, r0
100042e2:	460c      	mov	r4, r1
100042e4:	4616      	mov	r6, r2
100042e6:	461f      	mov	r7, r3
100042e8:	f8dd 9028 	ldr.w	r9, [sp, #40]	; 0x28
100042ec:	f8dd a02c 	ldr.w	sl, [sp, #44]	; 0x2c
100042f0:	2500      	movs	r5, #0
100042f2:	e026      	b.n	10004342 <usbd_open_edpt_pair+0x66>
100042f4:	f44f 629b 	mov.w	r2, #1240	; 0x4d8
100042f8:	491f      	ldr	r1, [pc, #124]	; (10004378 <usbd_open_edpt_pair+0x9c>)
100042fa:	4820      	ldr	r0, [pc, #128]	; (1000437c <usbd_open_edpt_pair+0xa0>)
100042fc:	f7ff f842 	bl	10003384 <__wrap_printf>
10004300:	f04f 23e0 	mov.w	r3, #3758153728	; 0xe000e000
10004304:	f8d3 3df0 	ldr.w	r3, [r3, #3568]	; 0xdf0
10004308:	f013 0f01 	tst.w	r3, #1
1000430c:	d000      	beq.n	10004310 <usbd_open_edpt_pair+0x34>
1000430e:	be00      	bkpt	0x0000
10004310:	f04f 0b00 	mov.w	fp, #0
10004314:	4658      	mov	r0, fp
10004316:	e8bd 8ff8 	ldmia.w	sp!, {r3, r4, r5, r6, r7, r8, r9, sl, fp, pc}
1000431a:	f240 42d9 	movw	r2, #1241	; 0x4d9
1000431e:	4916      	ldr	r1, [pc, #88]	; (10004378 <usbd_open_edpt_pair+0x9c>)
10004320:	4816      	ldr	r0, [pc, #88]	; (1000437c <usbd_open_edpt_pair+0xa0>)
10004322:	f7ff f82f 	bl	10003384 <__wrap_printf>
10004326:	f04f 23e0 	mov.w	r3, #3758153728	; 0xe000e000
1000432a:	f8d3 3df0 	ldr.w	r3, [r3, #3568]	; 0xdf0
1000432e:	f013 0f01 	tst.w	r3, #1
10004332:	d0ef      	beq.n	10004314 <usbd_open_edpt_pair+0x38>
10004334:	be00      	bkpt	0x0000
10004336:	e7ed      	b.n	10004314 <usbd_open_edpt_pair+0x38>
10004338:	f88a 3000 	strb.w	r3, [sl]
1000433c:	7823      	ldrb	r3, [r4, #0]
1000433e:	441c      	add	r4, r3
10004340:	3501      	adds	r5, #1
10004342:	42ae      	cmp	r6, r5
10004344:	dd14      	ble.n	10004370 <usbd_open_edpt_pair+0x94>
10004346:	7863      	ldrb	r3, [r4, #1]
10004348:	2b05      	cmp	r3, #5
1000434a:	d1d3      	bne.n	100042f4 <usbd_open_edpt_pair+0x18>
1000434c:	78e1      	ldrb	r1, [r4, #3]
1000434e:	f001 0103 	and.w	r1, r1, #3
10004352:	42b9      	cmp	r1, r7
10004354:	d1ce      	bne.n	100042f4 <usbd_open_edpt_pair+0x18>
10004356:	4621      	mov	r1, r4
10004358:	4640      	mov	r0, r8
1000435a:	f7ff ff81 	bl	10004260 <usbd_edpt_open>
1000435e:	4683      	mov	fp, r0
10004360:	2800      	cmp	r0, #0
10004362:	d0da      	beq.n	1000431a <usbd_open_edpt_pair+0x3e>
10004364:	78a3      	ldrb	r3, [r4, #2]
10004366:	09da      	lsrs	r2, r3, #7
10004368:	d1e6      	bne.n	10004338 <usbd_open_edpt_pair+0x5c>
1000436a:	f889 3000 	strb.w	r3, [r9]
1000436e:	e7e5      	b.n	1000433c <usbd_open_edpt_pair+0x60>
10004370:	f04f 0b01 	mov.w	fp, #1
10004374:	e7ce      	b.n	10004314 <usbd_open_edpt_pair+0x38>
10004376:	bf00      	nop
10004378:	10007488 	.word	0x10007488
1000437c:	10007444 	.word	0x10007444

10004380 <usbd_edpt_claim>:
10004380:	b508      	push	{r3, lr}
10004382:	f001 007f 	and.w	r0, r1, #127	; 0x7f
10004386:	0040      	lsls	r0, r0, #1
10004388:	eb00 10d1 	add.w	r0, r0, r1, lsr #7
1000438c:	3030      	adds	r0, #48	; 0x30
1000438e:	4b04      	ldr	r3, [pc, #16]	; (100043a0 <usbd_edpt_claim+0x20>)
10004390:	4418      	add	r0, r3
10004392:	4b04      	ldr	r3, [pc, #16]	; (100043a4 <usbd_edpt_claim+0x24>)
10004394:	6819      	ldr	r1, [r3, #0]
10004396:	3004      	adds	r0, #4
10004398:	f001 fa7e 	bl	10005898 <tu_edpt_claim>
1000439c:	bd08      	pop	{r3, pc}
1000439e:	bf00      	nop
100043a0:	20001730 	.word	0x20001730
100043a4:	20001784 	.word	0x20001784

100043a8 <usbd_edpt_release>:
100043a8:	b508      	push	{r3, lr}
100043aa:	f001 007f 	and.w	r0, r1, #127	; 0x7f
100043ae:	0040      	lsls	r0, r0, #1
100043b0:	eb00 10d1 	add.w	r0, r0, r1, lsr #7
100043b4:	3030      	adds	r0, #48	; 0x30
100043b6:	4b04      	ldr	r3, [pc, #16]	; (100043c8 <usbd_edpt_release+0x20>)
100043b8:	4418      	add	r0, r3
100043ba:	4b04      	ldr	r3, [pc, #16]	; (100043cc <usbd_edpt_release+0x24>)
100043bc:	6819      	ldr	r1, [r3, #0]
100043be:	3004      	adds	r0, #4
100043c0:	f001 fa94 	bl	100058ec <tu_edpt_release>
100043c4:	bd08      	pop	{r3, pc}
100043c6:	bf00      	nop
100043c8:	20001730 	.word	0x20001730
100043cc:	20001784 	.word	0x20001784

100043d0 <usbd_edpt_xfer>:
100043d0:	b570      	push	{r4, r5, r6, lr}
100043d2:	481f      	ldr	r0, [pc, #124]	; (10004450 <usbd_edpt_xfer+0x80>)
100043d4:	7800      	ldrb	r0, [r0, #0]
100043d6:	f001 057f 	and.w	r5, r1, #127	; 0x7f
100043da:	4c1e      	ldr	r4, [pc, #120]	; (10004454 <usbd_edpt_xfer+0x84>)
100043dc:	eb04 0c45 	add.w	ip, r4, r5, lsl #1
100043e0:	eb0c 1cd1 	add.w	ip, ip, r1, lsr #7
100043e4:	f89c 4034 	ldrb.w	r4, [ip, #52]	; 0x34
100043e8:	f014 0f01 	tst.w	r4, #1
100043ec:	d11f      	bne.n	1000442e <usbd_edpt_xfer+0x5e>
100043ee:	09ce      	lsrs	r6, r1, #7
100043f0:	4c18      	ldr	r4, [pc, #96]	; (10004454 <usbd_edpt_xfer+0x84>)
100043f2:	eb04 0445 	add.w	r4, r4, r5, lsl #1
100043f6:	4434      	add	r4, r6
100043f8:	f894 c034 	ldrb.w	ip, [r4, #52]	; 0x34
100043fc:	f04c 0c01 	orr.w	ip, ip, #1
10004400:	f884 c034 	strb.w	ip, [r4, #52]	; 0x34
10004404:	3430      	adds	r4, #48	; 0x30
10004406:	f7ff fc37 	bl	10003c78 <dcd_edpt_xfer>
1000440a:	b9f8      	cbnz	r0, 1000444c <usbd_edpt_xfer+0x7c>
1000440c:	7923      	ldrb	r3, [r4, #4]
1000440e:	f36f 0300 	bfc	r3, #0, #1
10004412:	7123      	strb	r3, [r4, #4]
10004414:	7923      	ldrb	r3, [r4, #4]
10004416:	f36f 0382 	bfc	r3, #2, #1
1000441a:	7123      	strb	r3, [r4, #4]
1000441c:	f04f 23e0 	mov.w	r3, #3758153728	; 0xe000e000
10004420:	f8d3 3df0 	ldr.w	r3, [r3, #3568]	; 0xdf0
10004424:	f013 0f01 	tst.w	r3, #1
10004428:	d010      	beq.n	1000444c <usbd_edpt_xfer+0x7c>
1000442a:	be00      	bkpt	0x0000
1000442c:	e00e      	b.n	1000444c <usbd_edpt_xfer+0x7c>
1000442e:	f240 522a 	movw	r2, #1322	; 0x52a
10004432:	4909      	ldr	r1, [pc, #36]	; (10004458 <usbd_edpt_xfer+0x88>)
10004434:	4809      	ldr	r0, [pc, #36]	; (1000445c <usbd_edpt_xfer+0x8c>)
10004436:	f7fe ffa5 	bl	10003384 <__wrap_printf>
1000443a:	f04f 23e0 	mov.w	r3, #3758153728	; 0xe000e000
1000443e:	f8d3 3df0 	ldr.w	r3, [r3, #3568]	; 0xdf0
10004442:	f013 0f01 	tst.w	r3, #1
10004446:	d000      	beq.n	1000444a <usbd_edpt_xfer+0x7a>
10004448:	be00      	bkpt	0x0000
1000444a:	2000      	movs	r0, #0
1000444c:	bd70      	pop	{r4, r5, r6, pc}
1000444e:	bf00      	nop
10004450:	20001220 	.word	0x20001220
10004454:	20001730 	.word	0x20001730
10004458:	1000745c 	.word	0x1000745c
1000445c:	10007444 	.word	0x10007444

10004460 <usbd_edpt_stall>:
10004460:	b538      	push	{r3, r4, r5, lr}
10004462:	f001 057f 	and.w	r5, r1, #127	; 0x7f
10004466:	09cc      	lsrs	r4, r1, #7
10004468:	4b0a      	ldr	r3, [pc, #40]	; (10004494 <usbd_edpt_stall+0x34>)
1000446a:	7818      	ldrb	r0, [r3, #0]
1000446c:	f7ff fc1a 	bl	10003ca4 <dcd_edpt_stall>
10004470:	4b09      	ldr	r3, [pc, #36]	; (10004498 <usbd_edpt_stall+0x38>)
10004472:	eb03 0345 	add.w	r3, r3, r5, lsl #1
10004476:	4423      	add	r3, r4
10004478:	f893 2034 	ldrb.w	r2, [r3, #52]	; 0x34
1000447c:	f042 0202 	orr.w	r2, r2, #2
10004480:	f883 2034 	strb.w	r2, [r3, #52]	; 0x34
10004484:	f893 2034 	ldrb.w	r2, [r3, #52]	; 0x34
10004488:	f042 0201 	orr.w	r2, r2, #1
1000448c:	f883 2034 	strb.w	r2, [r3, #52]	; 0x34
10004490:	bd38      	pop	{r3, r4, r5, pc}
10004492:	bf00      	nop
10004494:	20001220 	.word	0x20001220
10004498:	20001730 	.word	0x20001730

1000449c <usbd_edpt_clear_stall>:
1000449c:	b538      	push	{r3, r4, r5, lr}
1000449e:	f001 057f 	and.w	r5, r1, #127	; 0x7f
100044a2:	09cc      	lsrs	r4, r1, #7
100044a4:	4b0a      	ldr	r3, [pc, #40]	; (100044d0 <usbd_edpt_clear_stall+0x34>)
100044a6:	7818      	ldrb	r0, [r3, #0]
100044a8:	f7ff fc18 	bl	10003cdc <dcd_edpt_clear_stall>
100044ac:	4b09      	ldr	r3, [pc, #36]	; (100044d4 <usbd_edpt_clear_stall+0x38>)
100044ae:	eb03 0345 	add.w	r3, r3, r5, lsl #1
100044b2:	4423      	add	r3, r4
100044b4:	f893 2034 	ldrb.w	r2, [r3, #52]	; 0x34
100044b8:	f36f 0241 	bfc	r2, #1, #1
100044bc:	f883 2034 	strb.w	r2, [r3, #52]	; 0x34
100044c0:	f893 2034 	ldrb.w	r2, [r3, #52]	; 0x34
100044c4:	f36f 0200 	bfc	r2, #0, #1
100044c8:	f883 2034 	strb.w	r2, [r3, #52]	; 0x34
100044cc:	bd38      	pop	{r3, r4, r5, pc}
100044ce:	bf00      	nop
100044d0:	20001220 	.word	0x20001220
100044d4:	20001730 	.word	0x20001730

100044d8 <usbd_edpt_stalled>:
100044d8:	f001 027f 	and.w	r2, r1, #127	; 0x7f
100044dc:	4b04      	ldr	r3, [pc, #16]	; (100044f0 <usbd_edpt_stalled+0x18>)
100044de:	eb03 0342 	add.w	r3, r3, r2, lsl #1
100044e2:	eb03 11d1 	add.w	r1, r3, r1, lsr #7
100044e6:	f891 0034 	ldrb.w	r0, [r1, #52]	; 0x34
100044ea:	f3c0 0040 	ubfx	r0, r0, #1, #1
100044ee:	4770      	bx	lr
100044f0:	20001730 	.word	0x20001730

100044f4 <process_control_request>:
100044f4:	e92d 41f0 	stmdb	sp!, {r4, r5, r6, r7, r8, lr}
100044f8:	b082      	sub	sp, #8
100044fa:	4606      	mov	r6, r0
100044fc:	460c      	mov	r4, r1
100044fe:	2000      	movs	r0, #0
10004500:	f000 fbd8 	bl	10004cb4 <usbd_control_set_complete_callback>
10004504:	7823      	ldrb	r3, [r4, #0]
10004506:	f003 0360 	and.w	r3, r3, #96	; 0x60
1000450a:	2b60      	cmp	r3, #96	; 0x60
1000450c:	d016      	beq.n	1000453c <process_control_request+0x48>
1000450e:	2b40      	cmp	r3, #64	; 0x40
10004510:	d027      	beq.n	10004562 <process_control_request+0x6e>
10004512:	7822      	ldrb	r2, [r4, #0]
10004514:	f002 021f 	and.w	r2, r2, #31
10004518:	2a01      	cmp	r2, #1
1000451a:	f000 8106 	beq.w	1000472a <process_control_request+0x236>
1000451e:	2a02      	cmp	r2, #2
10004520:	f000 8148 	beq.w	100047b4 <process_control_request+0x2c0>
10004524:	b33a      	cbz	r2, 10004576 <process_control_request+0x82>
10004526:	f04f 23e0 	mov.w	r3, #3758153728	; 0xe000e000
1000452a:	f8d3 3df0 	ldr.w	r3, [r3, #3568]	; 0xdf0
1000452e:	f013 0f01 	tst.w	r3, #1
10004532:	f000 81d8 	beq.w	100048e6 <process_control_request+0x3f2>
10004536:	be00      	bkpt	0x0000
10004538:	2500      	movs	r5, #0
1000453a:	e00e      	b.n	1000455a <process_control_request+0x66>
1000453c:	f240 22c5 	movw	r2, #709	; 0x2c5
10004540:	49ac      	ldr	r1, [pc, #688]	; (100047f4 <process_control_request+0x300>)
10004542:	48ad      	ldr	r0, [pc, #692]	; (100047f8 <process_control_request+0x304>)
10004544:	f7fe ff1e 	bl	10003384 <__wrap_printf>
10004548:	f04f 23e0 	mov.w	r3, #3758153728	; 0xe000e000
1000454c:	f8d3 3df0 	ldr.w	r3, [r3, #3568]	; 0xdf0
10004550:	f013 0f01 	tst.w	r3, #1
10004554:	d000      	beq.n	10004558 <process_control_request+0x64>
10004556:	be00      	bkpt	0x0000
10004558:	2500      	movs	r5, #0
1000455a:	4628      	mov	r0, r5
1000455c:	b002      	add	sp, #8
1000455e:	e8bd 81f0 	ldmia.w	sp!, {r4, r5, r6, r7, r8, pc}
10004562:	48a6      	ldr	r0, [pc, #664]	; (100047fc <process_control_request+0x308>)
10004564:	f000 fba6 	bl	10004cb4 <usbd_control_set_complete_callback>
10004568:	4622      	mov	r2, r4
1000456a:	2101      	movs	r1, #1
1000456c:	4630      	mov	r0, r6
1000456e:	f7fe ff69 	bl	10003444 <tud_vendor_control_xfer_cb>
10004572:	4605      	mov	r5, r0
10004574:	e7f1      	b.n	1000455a <process_control_request+0x66>
10004576:	2b20      	cmp	r3, #32
10004578:	d00b      	beq.n	10004592 <process_control_request+0x9e>
1000457a:	bb63      	cbnz	r3, 100045d6 <process_control_request+0xe2>
1000457c:	7863      	ldrb	r3, [r4, #1]
1000457e:	2b09      	cmp	r3, #9
10004580:	f200 80c8 	bhi.w	10004714 <process_control_request+0x220>
10004584:	e8df f003 	tbb	[pc, r3]
10004588:	93c6a3b3 	.word	0x93c6a3b3
1000458c:	c68d31c6 	.word	0xc68d31c6
10004590:	4d40      	.short	0x4d40
10004592:	88a3      	ldrh	r3, [r4, #4]
10004594:	b2db      	uxtb	r3, r3
10004596:	2b0f      	cmp	r3, #15
10004598:	f200 8193 	bhi.w	100048c2 <process_control_request+0x3ce>
1000459c:	4a98      	ldr	r2, [pc, #608]	; (10004800 <process_control_request+0x30c>)
1000459e:	4413      	add	r3, r2
100045a0:	7919      	ldrb	r1, [r3, #4]
100045a2:	4b98      	ldr	r3, [pc, #608]	; (10004804 <process_control_request+0x310>)
100045a4:	781b      	ldrb	r3, [r3, #0]
100045a6:	4299      	cmp	r1, r3
100045a8:	d20c      	bcs.n	100045c4 <process_control_request+0xd0>
100045aa:	4b97      	ldr	r3, [pc, #604]	; (10004808 <process_control_request+0x314>)
100045ac:	681b      	ldr	r3, [r3, #0]
100045ae:	eb03 1141 	add.w	r1, r3, r1, lsl #5
100045b2:	2900      	cmp	r1, #0
100045b4:	f000 8189 	beq.w	100048ca <process_control_request+0x3d6>
100045b8:	4622      	mov	r2, r4
100045ba:	4630      	mov	r0, r6
100045bc:	f7ff fc48 	bl	10003e50 <invoke_class_control>
100045c0:	4605      	mov	r5, r0
100045c2:	e7ca      	b.n	1000455a <process_control_request+0x66>
100045c4:	1c5a      	adds	r2, r3, #1
100045c6:	428a      	cmp	r2, r1
100045c8:	f2c0 817d 	blt.w	100048c6 <process_control_request+0x3d2>
100045cc:	1ac9      	subs	r1, r1, r3
100045ce:	4b8f      	ldr	r3, [pc, #572]	; (1000480c <process_control_request+0x318>)
100045d0:	eb03 1141 	add.w	r1, r3, r1, lsl #5
100045d4:	e7ed      	b.n	100045b2 <process_control_request+0xbe>
100045d6:	f04f 23e0 	mov.w	r3, #3758153728	; 0xe000e000
100045da:	f8d3 3df0 	ldr.w	r3, [r3, #3568]	; 0xdf0
100045de:	f013 0f01 	tst.w	r3, #1
100045e2:	d000      	beq.n	100045e6 <process_control_request+0xf2>
100045e4:	be00      	bkpt	0x0000
100045e6:	2500      	movs	r5, #0
100045e8:	e7b7      	b.n	1000455a <process_control_request+0x66>
100045ea:	4620      	mov	r0, r4
100045ec:	f000 fb68 	bl	10004cc0 <usbd_control_set_request>
100045f0:	8861      	ldrh	r1, [r4, #2]
100045f2:	b2c9      	uxtb	r1, r1
100045f4:	4630      	mov	r0, r6
100045f6:	f7ff faa3 	bl	10003b40 <dcd_set_address>
100045fa:	4a81      	ldr	r2, [pc, #516]	; (10004800 <process_control_request+0x30c>)
100045fc:	7813      	ldrb	r3, [r2, #0]
100045fe:	f043 0302 	orr.w	r3, r3, #2
10004602:	7013      	strb	r3, [r2, #0]
10004604:	2501      	movs	r5, #1
10004606:	e7a8      	b.n	1000455a <process_control_request+0x66>
10004608:	4b7d      	ldr	r3, [pc, #500]	; (10004800 <process_control_request+0x30c>)
1000460a:	785b      	ldrb	r3, [r3, #1]
1000460c:	f88d 3006 	strb.w	r3, [sp, #6]
10004610:	2301      	movs	r3, #1
10004612:	f10d 0206 	add.w	r2, sp, #6
10004616:	4621      	mov	r1, r4
10004618:	4630      	mov	r0, r6
1000461a:	f000 fae3 	bl	10004be4 <tud_control_xfer>
1000461e:	2501      	movs	r5, #1
10004620:	e79b      	b.n	1000455a <process_control_request+0x66>
10004622:	8865      	ldrh	r5, [r4, #2]
10004624:	b2ed      	uxtb	r5, r5
10004626:	4b76      	ldr	r3, [pc, #472]	; (10004800 <process_control_request+0x30c>)
10004628:	785b      	ldrb	r3, [r3, #1]
1000462a:	b2db      	uxtb	r3, r3
1000462c:	42ab      	cmp	r3, r5
1000462e:	d032      	beq.n	10004696 <process_control_request+0x1a2>
10004630:	4b73      	ldr	r3, [pc, #460]	; (10004800 <process_control_request+0x30c>)
10004632:	785b      	ldrb	r3, [r3, #1]
10004634:	b95b      	cbnz	r3, 1000464e <process_control_request+0x15a>
10004636:	4b72      	ldr	r3, [pc, #456]	; (10004800 <process_control_request+0x30c>)
10004638:	705d      	strb	r5, [r3, #1]
1000463a:	b355      	cbz	r5, 10004692 <process_control_request+0x19e>
1000463c:	4629      	mov	r1, r5
1000463e:	4630      	mov	r0, r6
10004640:	f7ff fc14 	bl	10003e6c <process_set_config>
10004644:	4605      	mov	r5, r0
10004646:	b190      	cbz	r0, 1000466e <process_control_request+0x17a>
10004648:	f7ff fd7a 	bl	10004140 <tud_mount_cb>
1000464c:	e023      	b.n	10004696 <process_control_request+0x1a2>
1000464e:	2100      	movs	r1, #0
10004650:	4630      	mov	r0, r6
10004652:	f7ff fad3 	bl	10003bfc <dcd_sof_enable>
10004656:	4630      	mov	r0, r6
10004658:	f7ff fb0a 	bl	10003c70 <dcd_edpt_close_all>
1000465c:	4f68      	ldr	r7, [pc, #416]	; (10004800 <process_control_request+0x30c>)
1000465e:	f897 8002 	ldrb.w	r8, [r7, #2]
10004662:	4630      	mov	r0, r6
10004664:	f7ff fba4 	bl	10003db0 <configuration_reset>
10004668:	f887 8002 	strb.w	r8, [r7, #2]
1000466c:	e7e3      	b.n	10004636 <process_control_request+0x142>
1000466e:	f240 3215 	movw	r2, #789	; 0x315
10004672:	4960      	ldr	r1, [pc, #384]	; (100047f4 <process_control_request+0x300>)
10004674:	4860      	ldr	r0, [pc, #384]	; (100047f8 <process_control_request+0x304>)
10004676:	f7fe fe85 	bl	10003384 <__wrap_printf>
1000467a:	f04f 23e0 	mov.w	r3, #3758153728	; 0xe000e000
1000467e:	f8d3 3df0 	ldr.w	r3, [r3, #3568]	; 0xdf0
10004682:	f013 0f01 	tst.w	r3, #1
10004686:	d000      	beq.n	1000468a <process_control_request+0x196>
10004688:	be00      	bkpt	0x0000
1000468a:	4b5d      	ldr	r3, [pc, #372]	; (10004800 <process_control_request+0x30c>)
1000468c:	2200      	movs	r2, #0
1000468e:	705a      	strb	r2, [r3, #1]
10004690:	e763      	b.n	1000455a <process_control_request+0x66>
10004692:	f7ff fd56 	bl	10004142 <tud_umount_cb>
10004696:	4621      	mov	r1, r4
10004698:	4630      	mov	r0, r6
1000469a:	f000 fa89 	bl	10004bb0 <tud_control_status>
1000469e:	2501      	movs	r5, #1
100046a0:	e75b      	b.n	1000455a <process_control_request+0x66>
100046a2:	4621      	mov	r1, r4
100046a4:	4630      	mov	r0, r6
100046a6:	f7ff fccf 	bl	10004048 <process_get_descriptor>
100046aa:	4605      	mov	r5, r0
100046ac:	e755      	b.n	1000455a <process_control_request+0x66>
100046ae:	8863      	ldrh	r3, [r4, #2]
100046b0:	2b01      	cmp	r3, #1
100046b2:	d001      	beq.n	100046b8 <process_control_request+0x1c4>
100046b4:	2500      	movs	r5, #0
100046b6:	e750      	b.n	1000455a <process_control_request+0x66>
100046b8:	4a51      	ldr	r2, [pc, #324]	; (10004800 <process_control_request+0x30c>)
100046ba:	7813      	ldrb	r3, [r2, #0]
100046bc:	f043 0308 	orr.w	r3, r3, #8
100046c0:	7013      	strb	r3, [r2, #0]
100046c2:	4621      	mov	r1, r4
100046c4:	4630      	mov	r0, r6
100046c6:	f000 fa73 	bl	10004bb0 <tud_control_status>
100046ca:	2501      	movs	r5, #1
100046cc:	e745      	b.n	1000455a <process_control_request+0x66>
100046ce:	8863      	ldrh	r3, [r4, #2]
100046d0:	2b01      	cmp	r3, #1
100046d2:	d001      	beq.n	100046d8 <process_control_request+0x1e4>
100046d4:	2500      	movs	r5, #0
100046d6:	e740      	b.n	1000455a <process_control_request+0x66>
100046d8:	4b49      	ldr	r3, [pc, #292]	; (10004800 <process_control_request+0x30c>)
100046da:	781a      	ldrb	r2, [r3, #0]
100046dc:	f36f 02c3 	bfc	r2, #3, #1
100046e0:	701a      	strb	r2, [r3, #0]
100046e2:	4621      	mov	r1, r4
100046e4:	4630      	mov	r0, r6
100046e6:	f000 fa63 	bl	10004bb0 <tud_control_status>
100046ea:	2501      	movs	r5, #1
100046ec:	e735      	b.n	1000455a <process_control_request+0x66>
100046ee:	4b44      	ldr	r3, [pc, #272]	; (10004800 <process_control_request+0x30c>)
100046f0:	781b      	ldrb	r3, [r3, #0]
100046f2:	089a      	lsrs	r2, r3, #2
100046f4:	f3c3 1340 	ubfx	r3, r3, #5, #1
100046f8:	f002 0202 	and.w	r2, r2, #2
100046fc:	4313      	orrs	r3, r2
100046fe:	f8ad 3006 	strh.w	r3, [sp, #6]
10004702:	2302      	movs	r3, #2
10004704:	f10d 0206 	add.w	r2, sp, #6
10004708:	4621      	mov	r1, r4
1000470a:	4630      	mov	r0, r6
1000470c:	f000 fa6a 	bl	10004be4 <tud_control_xfer>
10004710:	2501      	movs	r5, #1
10004712:	e722      	b.n	1000455a <process_control_request+0x66>
10004714:	f04f 23e0 	mov.w	r3, #3758153728	; 0xe000e000
10004718:	f8d3 3df0 	ldr.w	r3, [r3, #3568]	; 0xdf0
1000471c:	f013 0f01 	tst.w	r3, #1
10004720:	f000 80d5 	beq.w	100048ce <process_control_request+0x3da>
10004724:	be00      	bkpt	0x0000
10004726:	2500      	movs	r5, #0
10004728:	e717      	b.n	1000455a <process_control_request+0x66>
1000472a:	88a3      	ldrh	r3, [r4, #4]
1000472c:	b2db      	uxtb	r3, r3
1000472e:	2b0f      	cmp	r3, #15
10004730:	f200 80cf 	bhi.w	100048d2 <process_control_request+0x3de>
10004734:	4a32      	ldr	r2, [pc, #200]	; (10004800 <process_control_request+0x30c>)
10004736:	4413      	add	r3, r2
10004738:	7919      	ldrb	r1, [r3, #4]
1000473a:	4b32      	ldr	r3, [pc, #200]	; (10004804 <process_control_request+0x310>)
1000473c:	781b      	ldrb	r3, [r3, #0]
1000473e:	4299      	cmp	r1, r3
10004740:	d223      	bcs.n	1000478a <process_control_request+0x296>
10004742:	4b31      	ldr	r3, [pc, #196]	; (10004808 <process_control_request+0x314>)
10004744:	681b      	ldr	r3, [r3, #0]
10004746:	eb03 1141 	add.w	r1, r3, r1, lsl #5
1000474a:	2900      	cmp	r1, #0
1000474c:	f000 80c5 	beq.w	100048da <process_control_request+0x3e6>
10004750:	4622      	mov	r2, r4
10004752:	4630      	mov	r0, r6
10004754:	f7ff fb7c 	bl	10003e50 <invoke_class_control>
10004758:	4605      	mov	r5, r0
1000475a:	2800      	cmp	r0, #0
1000475c:	f47f aefd 	bne.w	1000455a <process_control_request+0x66>
10004760:	7823      	ldrb	r3, [r4, #0]
10004762:	f013 0f60 	tst.w	r3, #96	; 0x60
10004766:	f47f aef8 	bne.w	1000455a <process_control_request+0x66>
1000476a:	7863      	ldrb	r3, [r4, #1]
1000476c:	3b0a      	subs	r3, #10
1000476e:	2b01      	cmp	r3, #1
10004770:	f63f aef3 	bhi.w	1000455a <process_control_request+0x66>
10004774:	f000 fa9e 	bl	10004cb4 <usbd_control_set_complete_callback>
10004778:	7863      	ldrb	r3, [r4, #1]
1000477a:	2b0a      	cmp	r3, #10
1000477c:	d00e      	beq.n	1000479c <process_control_request+0x2a8>
1000477e:	4621      	mov	r1, r4
10004780:	4630      	mov	r0, r6
10004782:	f000 fa15 	bl	10004bb0 <tud_control_status>
10004786:	2501      	movs	r5, #1
10004788:	e6e7      	b.n	1000455a <process_control_request+0x66>
1000478a:	1c5a      	adds	r2, r3, #1
1000478c:	428a      	cmp	r2, r1
1000478e:	f2c0 80a2 	blt.w	100048d6 <process_control_request+0x3e2>
10004792:	1ac9      	subs	r1, r1, r3
10004794:	4b1d      	ldr	r3, [pc, #116]	; (1000480c <process_control_request+0x318>)
10004796:	eb03 1141 	add.w	r1, r3, r1, lsl #5
1000479a:	e7d6      	b.n	1000474a <process_control_request+0x256>
1000479c:	2300      	movs	r3, #0
1000479e:	f88d 3006 	strb.w	r3, [sp, #6]
100047a2:	2301      	movs	r3, #1
100047a4:	f10d 0206 	add.w	r2, sp, #6
100047a8:	4621      	mov	r1, r4
100047aa:	4630      	mov	r0, r6
100047ac:	f000 fa1a 	bl	10004be4 <tud_control_xfer>
100047b0:	2501      	movs	r5, #1
100047b2:	e6d2      	b.n	1000455a <process_control_request+0x66>
100047b4:	88a2      	ldrh	r2, [r4, #4]
100047b6:	b2d1      	uxtb	r1, r2
100047b8:	f002 057f 	and.w	r5, r2, #127	; 0x7f
100047bc:	f3c2 10c0 	ubfx	r0, r2, #7, #1
100047c0:	f012 0f70 	tst.w	r2, #112	; 0x70
100047c4:	d124      	bne.n	10004810 <process_control_request+0x31c>
100047c6:	4a0e      	ldr	r2, [pc, #56]	; (10004800 <process_control_request+0x30c>)
100047c8:	eb02 0245 	add.w	r2, r2, r5, lsl #1
100047cc:	4402      	add	r2, r0
100047ce:	7d12      	ldrb	r2, [r2, #20]
100047d0:	480c      	ldr	r0, [pc, #48]	; (10004804 <process_control_request+0x310>)
100047d2:	7800      	ldrb	r0, [r0, #0]
100047d4:	4282      	cmp	r2, r0
100047d6:	d22b      	bcs.n	10004830 <process_control_request+0x33c>
100047d8:	480b      	ldr	r0, [pc, #44]	; (10004808 <process_control_request+0x314>)
100047da:	6805      	ldr	r5, [r0, #0]
100047dc:	eb05 1542 	add.w	r5, r5, r2, lsl #5
100047e0:	b383      	cbz	r3, 10004844 <process_control_request+0x350>
100047e2:	2d00      	cmp	r5, #0
100047e4:	d07b      	beq.n	100048de <process_control_request+0x3ea>
100047e6:	4622      	mov	r2, r4
100047e8:	4629      	mov	r1, r5
100047ea:	4630      	mov	r0, r6
100047ec:	f7ff fb30 	bl	10003e50 <invoke_class_control>
100047f0:	4605      	mov	r5, r0
100047f2:	e6b2      	b.n	1000455a <process_control_request+0x66>
100047f4:	100074d4 	.word	0x100074d4
100047f8:	10007444 	.word	0x10007444
100047fc:	10003445 	.word	0x10003445
10004800:	20001730 	.word	0x20001730
10004804:	20001fd9 	.word	0x20001fd9
10004808:	200013e4 	.word	0x200013e4
1000480c:	10007510 	.word	0x10007510
10004810:	f240 3286 	movw	r2, #902	; 0x386
10004814:	4935      	ldr	r1, [pc, #212]	; (100048ec <process_control_request+0x3f8>)
10004816:	4836      	ldr	r0, [pc, #216]	; (100048f0 <process_control_request+0x3fc>)
10004818:	f7fe fdb4 	bl	10003384 <__wrap_printf>
1000481c:	f04f 23e0 	mov.w	r3, #3758153728	; 0xe000e000
10004820:	f8d3 3df0 	ldr.w	r3, [r3, #3568]	; 0xdf0
10004824:	f013 0f01 	tst.w	r3, #1
10004828:	d000      	beq.n	1000482c <process_control_request+0x338>
1000482a:	be00      	bkpt	0x0000
1000482c:	2500      	movs	r5, #0
1000482e:	e694      	b.n	1000455a <process_control_request+0x66>
10004830:	1c45      	adds	r5, r0, #1
10004832:	4295      	cmp	r5, r2
10004834:	db04      	blt.n	10004840 <process_control_request+0x34c>
10004836:	1a12      	subs	r2, r2, r0
10004838:	4d2e      	ldr	r5, [pc, #184]	; (100048f4 <process_control_request+0x400>)
1000483a:	eb05 1542 	add.w	r5, r5, r2, lsl #5
1000483e:	e7cf      	b.n	100047e0 <process_control_request+0x2ec>
10004840:	2500      	movs	r5, #0
10004842:	e7cd      	b.n	100047e0 <process_control_request+0x2ec>
10004844:	7863      	ldrb	r3, [r4, #1]
10004846:	2b01      	cmp	r3, #1
10004848:	d01a      	beq.n	10004880 <process_control_request+0x38c>
1000484a:	2b03      	cmp	r3, #3
1000484c:	d018      	beq.n	10004880 <process_control_request+0x38c>
1000484e:	b14b      	cbz	r3, 10004864 <process_control_request+0x370>
10004850:	f04f 23e0 	mov.w	r3, #3758153728	; 0xe000e000
10004854:	f8d3 3df0 	ldr.w	r3, [r3, #3568]	; 0xdf0
10004858:	f013 0f01 	tst.w	r3, #1
1000485c:	d000      	beq.n	10004860 <process_control_request+0x36c>
1000485e:	be00      	bkpt	0x0000
10004860:	2500      	movs	r5, #0
10004862:	e67a      	b.n	1000455a <process_control_request+0x66>
10004864:	4630      	mov	r0, r6
10004866:	f7ff fe37 	bl	100044d8 <usbd_edpt_stalled>
1000486a:	f8ad 0006 	strh.w	r0, [sp, #6]
1000486e:	2302      	movs	r3, #2
10004870:	f10d 0206 	add.w	r2, sp, #6
10004874:	4621      	mov	r1, r4
10004876:	4630      	mov	r0, r6
10004878:	f000 f9b4 	bl	10004be4 <tud_control_xfer>
1000487c:	2501      	movs	r5, #1
1000487e:	e66c      	b.n	1000455a <process_control_request+0x66>
10004880:	8862      	ldrh	r2, [r4, #2]
10004882:	b922      	cbnz	r2, 1000488e <process_control_request+0x39a>
10004884:	2b01      	cmp	r3, #1
10004886:	d018      	beq.n	100048ba <process_control_request+0x3c6>
10004888:	4630      	mov	r0, r6
1000488a:	f7ff fde9 	bl	10004460 <usbd_edpt_stall>
1000488e:	b345      	cbz	r5, 100048e2 <process_control_request+0x3ee>
10004890:	4622      	mov	r2, r4
10004892:	4629      	mov	r1, r5
10004894:	4630      	mov	r0, r6
10004896:	f7ff fadb 	bl	10003e50 <invoke_class_control>
1000489a:	2000      	movs	r0, #0
1000489c:	f000 fa0a 	bl	10004cb4 <usbd_control_set_complete_callback>
100048a0:	4b15      	ldr	r3, [pc, #84]	; (100048f8 <process_control_request+0x404>)
100048a2:	f893 5035 	ldrb.w	r5, [r3, #53]	; 0x35
100048a6:	f015 0501 	ands.w	r5, r5, #1
100048aa:	f47f ae56 	bne.w	1000455a <process_control_request+0x66>
100048ae:	4621      	mov	r1, r4
100048b0:	4630      	mov	r0, r6
100048b2:	f000 f97d 	bl	10004bb0 <tud_control_status>
100048b6:	2501      	movs	r5, #1
100048b8:	e64f      	b.n	1000455a <process_control_request+0x66>
100048ba:	4630      	mov	r0, r6
100048bc:	f7ff fdee 	bl	1000449c <usbd_edpt_clear_stall>
100048c0:	e7e5      	b.n	1000488e <process_control_request+0x39a>
100048c2:	2500      	movs	r5, #0
100048c4:	e649      	b.n	1000455a <process_control_request+0x66>
100048c6:	2500      	movs	r5, #0
100048c8:	e647      	b.n	1000455a <process_control_request+0x66>
100048ca:	2500      	movs	r5, #0
100048cc:	e645      	b.n	1000455a <process_control_request+0x66>
100048ce:	2500      	movs	r5, #0
100048d0:	e643      	b.n	1000455a <process_control_request+0x66>
100048d2:	2500      	movs	r5, #0
100048d4:	e641      	b.n	1000455a <process_control_request+0x66>
100048d6:	2500      	movs	r5, #0
100048d8:	e63f      	b.n	1000455a <process_control_request+0x66>
100048da:	2500      	movs	r5, #0
100048dc:	e63d      	b.n	1000455a <process_control_request+0x66>
100048de:	2500      	movs	r5, #0
100048e0:	e63b      	b.n	1000455a <process_control_request+0x66>
100048e2:	2501      	movs	r5, #1
100048e4:	e639      	b.n	1000455a <process_control_request+0x66>
100048e6:	2500      	movs	r5, #0
100048e8:	e637      	b.n	1000455a <process_control_request+0x66>
100048ea:	bf00      	nop
100048ec:	100074d4 	.word	0x100074d4
100048f0:	10007444 	.word	0x10007444
100048f4:	10007510 	.word	0x10007510
100048f8:	20001730 	.word	0x20001730

100048fc <tud_task_ext>:
100048fc:	b510      	push	{r4, lr}
100048fe:	b084      	sub	sp, #16
10004900:	f7ff fc32 	bl	10004168 <tud_inited>
10004904:	b948      	cbnz	r0, 1000491a <tud_task_ext+0x1e>
10004906:	b004      	add	sp, #16
10004908:	bd10      	pop	{r4, pc}
1000490a:	f89d 0004 	ldrb.w	r0, [sp, #4]
1000490e:	f7ff fa99 	bl	10003e44 <usbd_reset>
10004912:	f89d 2008 	ldrb.w	r2, [sp, #8]
10004916:	4b87      	ldr	r3, [pc, #540]	; (10004b34 <tud_task_ext+0x238>)
10004918:	709a      	strb	r2, [r3, #2]
1000491a:	4b87      	ldr	r3, [pc, #540]	; (10004b38 <tud_task_ext+0x23c>)
1000491c:	681c      	ldr	r4, [r3, #0]
1000491e:	f104 0214 	add.w	r2, r4, #20
10004922:	6963      	ldr	r3, [r4, #20]
10004924:	f3ef 8110 	mrs	r1, PRIMASK
10004928:	b672      	cpsid	i
1000492a:	e8d3 cfcf 	ldaexb	ip, [r3]
1000492e:	2001      	movs	r0, #1
10004930:	f1bc 0f00 	cmp.w	ip, #0
10004934:	d1f9      	bne.n	1000492a <tud_task_ext+0x2e>
10004936:	e8c3 0f4c 	strexb	ip, r0, [r3]
1000493a:	f1bc 0f00 	cmp.w	ip, #0
1000493e:	d1f4      	bne.n	1000492a <tud_task_ext+0x2e>
10004940:	f3bf 8f5f 	dmb	sy
10004944:	6051      	str	r1, [r2, #4]
10004946:	a901      	add	r1, sp, #4
10004948:	4620      	mov	r0, r4
1000494a:	f001 fbb9 	bl	100060c0 <tu_fifo_read>
1000494e:	6961      	ldr	r1, [r4, #20]
10004950:	69a3      	ldr	r3, [r4, #24]
10004952:	2200      	movs	r2, #0
10004954:	e8c1 2f8f 	stlb	r2, [r1]
10004958:	f383 8810 	msr	PRIMASK, r3
1000495c:	2800      	cmp	r0, #0
1000495e:	d0d2      	beq.n	10004906 <tud_task_ext+0xa>
10004960:	f89d 3005 	ldrb.w	r3, [sp, #5]
10004964:	3b01      	subs	r3, #1
10004966:	2b07      	cmp	r3, #7
10004968:	f200 80da 	bhi.w	10004b20 <tud_task_ext+0x224>
1000496c:	a201      	add	r2, pc, #4	; (adr r2, 10004974 <tud_task_ext+0x78>)
1000496e:	f852 f023 	ldr.w	pc, [r2, r3, lsl #2]
10004972:	bf00      	nop
10004974:	1000490b 	.word	0x1000490b
10004978:	10004995 	.word	0x10004995
1000497c:	10004b0d 	.word	0x10004b0d
10004980:	10004ad3 	.word	0x10004ad3
10004984:	10004aed 	.word	0x10004aed
10004988:	100049a3 	.word	0x100049a3
1000498c:	10004a39 	.word	0x10004a39
10004990:	10004aff 	.word	0x10004aff
10004994:	f89d 0004 	ldrb.w	r0, [sp, #4]
10004998:	f7ff fa54 	bl	10003e44 <usbd_reset>
1000499c:	f7ff fbd1 	bl	10004142 <tud_umount_cb>
100049a0:	e7bb      	b.n	1000491a <tud_task_ext+0x1e>
100049a2:	4b66      	ldr	r3, [pc, #408]	; (10004b3c <tud_task_ext+0x240>)
100049a4:	781b      	ldrb	r3, [r3, #0]
100049a6:	2b00      	cmp	r3, #0
100049a8:	d036      	beq.n	10004a18 <tud_task_ext+0x11c>
100049aa:	4a64      	ldr	r2, [pc, #400]	; (10004b3c <tud_task_ext+0x240>)
100049ac:	7813      	ldrb	r3, [r2, #0]
100049ae:	3b01      	subs	r3, #1
100049b0:	b2db      	uxtb	r3, r3
100049b2:	7013      	strb	r3, [r2, #0]
100049b4:	7813      	ldrb	r3, [r2, #0]
100049b6:	2b00      	cmp	r3, #0
100049b8:	d1af      	bne.n	1000491a <tud_task_ext+0x1e>
100049ba:	4b5e      	ldr	r3, [pc, #376]	; (10004b34 <tud_task_ext+0x238>)
100049bc:	781a      	ldrb	r2, [r3, #0]
100049be:	f042 0201 	orr.w	r2, r2, #1
100049c2:	701a      	strb	r2, [r3, #0]
100049c4:	f893 2034 	ldrb.w	r2, [r3, #52]	; 0x34
100049c8:	f36f 0200 	bfc	r2, #0, #1
100049cc:	f883 2034 	strb.w	r2, [r3, #52]	; 0x34
100049d0:	f893 2034 	ldrb.w	r2, [r3, #52]	; 0x34
100049d4:	f36f 0282 	bfc	r2, #2, #1
100049d8:	f883 2034 	strb.w	r2, [r3, #52]	; 0x34
100049dc:	f893 2035 	ldrb.w	r2, [r3, #53]	; 0x35
100049e0:	f36f 0200 	bfc	r2, #0, #1
100049e4:	f883 2035 	strb.w	r2, [r3, #53]	; 0x35
100049e8:	f893 2035 	ldrb.w	r2, [r3, #53]	; 0x35
100049ec:	f36f 0282 	bfc	r2, #2, #1
100049f0:	f883 2035 	strb.w	r2, [r3, #53]	; 0x35
100049f4:	a902      	add	r1, sp, #8
100049f6:	f89d 0004 	ldrb.w	r0, [sp, #4]
100049fa:	f7ff fd7b 	bl	100044f4 <process_control_request>
100049fe:	2800      	cmp	r0, #0
10004a00:	d18b      	bne.n	1000491a <tud_task_ext+0x1e>
10004a02:	2100      	movs	r1, #0
10004a04:	f89d 0004 	ldrb.w	r0, [sp, #4]
10004a08:	f7ff f94c 	bl	10003ca4 <dcd_edpt_stall>
10004a0c:	2180      	movs	r1, #128	; 0x80
10004a0e:	f89d 0004 	ldrb.w	r0, [sp, #4]
10004a12:	f7ff f947 	bl	10003ca4 <dcd_edpt_stall>
10004a16:	e780      	b.n	1000491a <tud_task_ext+0x1e>
10004a18:	f240 2256 	movw	r2, #598	; 0x256
10004a1c:	4948      	ldr	r1, [pc, #288]	; (10004b40 <tud_task_ext+0x244>)
10004a1e:	4849      	ldr	r0, [pc, #292]	; (10004b44 <tud_task_ext+0x248>)
10004a20:	f7fe fcb0 	bl	10003384 <__wrap_printf>
10004a24:	f04f 23e0 	mov.w	r3, #3758153728	; 0xe000e000
10004a28:	f8d3 3df0 	ldr.w	r3, [r3, #3568]	; 0xdf0
10004a2c:	f013 0f01 	tst.w	r3, #1
10004a30:	f43f af69 	beq.w	10004906 <tud_task_ext+0xa>
10004a34:	be00      	bkpt	0x0000
10004a36:	e766      	b.n	10004906 <tud_task_ext+0xa>
10004a38:	f89d 1008 	ldrb.w	r1, [sp, #8]
10004a3c:	f001 007f 	and.w	r0, r1, #127	; 0x7f
10004a40:	09cc      	lsrs	r4, r1, #7
10004a42:	4b3c      	ldr	r3, [pc, #240]	; (10004b34 <tud_task_ext+0x238>)
10004a44:	eb03 0340 	add.w	r3, r3, r0, lsl #1
10004a48:	eb03 13d1 	add.w	r3, r3, r1, lsr #7
10004a4c:	f893 2034 	ldrb.w	r2, [r3, #52]	; 0x34
10004a50:	f36f 0200 	bfc	r2, #0, #1
10004a54:	f883 2034 	strb.w	r2, [r3, #52]	; 0x34
10004a58:	f893 2034 	ldrb.w	r2, [r3, #52]	; 0x34
10004a5c:	f36f 0282 	bfc	r2, #2, #1
10004a60:	f883 2034 	strb.w	r2, [r3, #52]	; 0x34
10004a64:	b1a8      	cbz	r0, 10004a92 <tud_task_ext+0x196>
10004a66:	4b33      	ldr	r3, [pc, #204]	; (10004b34 <tud_task_ext+0x238>)
10004a68:	eb03 0340 	add.w	r3, r3, r0, lsl #1
10004a6c:	4423      	add	r3, r4
10004a6e:	7d1a      	ldrb	r2, [r3, #20]
10004a70:	4b35      	ldr	r3, [pc, #212]	; (10004b48 <tud_task_ext+0x24c>)
10004a72:	781b      	ldrb	r3, [r3, #0]
10004a74:	429a      	cmp	r2, r3
10004a76:	d214      	bcs.n	10004aa2 <tud_task_ext+0x1a6>
10004a78:	4b34      	ldr	r3, [pc, #208]	; (10004b4c <tud_task_ext+0x250>)
10004a7a:	681b      	ldr	r3, [r3, #0]
10004a7c:	eb03 1342 	add.w	r3, r3, r2, lsl #5
10004a80:	b1bb      	cbz	r3, 10004ab2 <tud_task_ext+0x1b6>
10004a82:	699c      	ldr	r4, [r3, #24]
10004a84:	9b03      	ldr	r3, [sp, #12]
10004a86:	f89d 2009 	ldrb.w	r2, [sp, #9]
10004a8a:	f89d 0004 	ldrb.w	r0, [sp, #4]
10004a8e:	47a0      	blx	r4
10004a90:	e743      	b.n	1000491a <tud_task_ext+0x1e>
10004a92:	9b03      	ldr	r3, [sp, #12]
10004a94:	f89d 2009 	ldrb.w	r2, [sp, #9]
10004a98:	f89d 0004 	ldrb.w	r0, [sp, #4]
10004a9c:	f000 f91e 	bl	10004cdc <usbd_control_xfer_cb>
10004aa0:	e73b      	b.n	1000491a <tud_task_ext+0x1e>
10004aa2:	1c58      	adds	r0, r3, #1
10004aa4:	4290      	cmp	r0, r2
10004aa6:	db04      	blt.n	10004ab2 <tud_task_ext+0x1b6>
10004aa8:	1ad2      	subs	r2, r2, r3
10004aaa:	4b29      	ldr	r3, [pc, #164]	; (10004b50 <tud_task_ext+0x254>)
10004aac:	eb03 1342 	add.w	r3, r3, r2, lsl #5
10004ab0:	e7e6      	b.n	10004a80 <tud_task_ext+0x184>
10004ab2:	f240 2281 	movw	r2, #641	; 0x281
10004ab6:	4922      	ldr	r1, [pc, #136]	; (10004b40 <tud_task_ext+0x244>)
10004ab8:	4822      	ldr	r0, [pc, #136]	; (10004b44 <tud_task_ext+0x248>)
10004aba:	f7fe fc63 	bl	10003384 <__wrap_printf>
10004abe:	f04f 23e0 	mov.w	r3, #3758153728	; 0xe000e000
10004ac2:	f8d3 3df0 	ldr.w	r3, [r3, #3568]	; 0xdf0
10004ac6:	f013 0f01 	tst.w	r3, #1
10004aca:	f43f af1c 	beq.w	10004906 <tud_task_ext+0xa>
10004ace:	be00      	bkpt	0x0000
10004ad0:	e719      	b.n	10004906 <tud_task_ext+0xa>
10004ad2:	4b18      	ldr	r3, [pc, #96]	; (10004b34 <tud_task_ext+0x238>)
10004ad4:	781b      	ldrb	r3, [r3, #0]
10004ad6:	f013 0f01 	tst.w	r3, #1
10004ada:	f43f af1e 	beq.w	1000491a <tud_task_ext+0x1e>
10004ade:	4b15      	ldr	r3, [pc, #84]	; (10004b34 <tud_task_ext+0x238>)
10004ae0:	7818      	ldrb	r0, [r3, #0]
10004ae2:	f3c0 00c0 	ubfx	r0, r0, #3, #1
10004ae6:	f7ff fb2d 	bl	10004144 <tud_suspend_cb>
10004aea:	e716      	b.n	1000491a <tud_task_ext+0x1e>
10004aec:	4b11      	ldr	r3, [pc, #68]	; (10004b34 <tud_task_ext+0x238>)
10004aee:	781b      	ldrb	r3, [r3, #0]
10004af0:	f013 0f01 	tst.w	r3, #1
10004af4:	f43f af11 	beq.w	1000491a <tud_task_ext+0x1e>
10004af8:	f7ff fb25 	bl	10004146 <tud_resume_cb>
10004afc:	e70d      	b.n	1000491a <tud_task_ext+0x1e>
10004afe:	9b02      	ldr	r3, [sp, #8]
10004b00:	2b00      	cmp	r3, #0
10004b02:	f43f af0a 	beq.w	1000491a <tud_task_ext+0x1e>
10004b06:	9803      	ldr	r0, [sp, #12]
10004b08:	4798      	blx	r3
10004b0a:	e706      	b.n	1000491a <tud_task_ext+0x1e>
10004b0c:	4b09      	ldr	r3, [pc, #36]	; (10004b34 <tud_task_ext+0x238>)
10004b0e:	78db      	ldrb	r3, [r3, #3]
10004b10:	f013 0f01 	tst.w	r3, #1
10004b14:	f43f af01 	beq.w	1000491a <tud_task_ext+0x1e>
10004b18:	9802      	ldr	r0, [sp, #8]
10004b1a:	f7ff fa90 	bl	1000403e <tud_sof_cb>
10004b1e:	e6fc      	b.n	1000491a <tud_task_ext+0x1e>
10004b20:	f04f 23e0 	mov.w	r3, #3758153728	; 0xe000e000
10004b24:	f8d3 3df0 	ldr.w	r3, [r3, #3568]	; 0xdf0
10004b28:	f013 0f01 	tst.w	r3, #1
10004b2c:	f43f aef5 	beq.w	1000491a <tud_task_ext+0x1e>
10004b30:	be00      	bkpt	0x0000
10004b32:	e6f2      	b.n	1000491a <tud_task_ext+0x1e>
10004b34:	20001730 	.word	0x20001730
10004b38:	20001788 	.word	0x20001788
10004b3c:	20001fdb 	.word	0x20001fdb
10004b40:	10007500 	.word	0x10007500
10004b44:	10007444 	.word	0x10007444
10004b48:	20001fd9 	.word	0x20001fd9
10004b4c:	200013e4 	.word	0x200013e4
10004b50:	10007510 	.word	0x10007510

10004b54 <_data_stage_xact>:
10004b54:	b5f8      	push	{r3, r4, r5, r6, r7, lr}
10004b56:	4607      	mov	r7, r0
10004b58:	4b13      	ldr	r3, [pc, #76]	; (10004ba8 <_data_stage_xact+0x54>)
10004b5a:	899e      	ldrh	r6, [r3, #12]
10004b5c:	89dd      	ldrh	r5, [r3, #14]
10004b5e:	1b74      	subs	r4, r6, r5
10004b60:	b2a4      	uxth	r4, r4
10004b62:	2c40      	cmp	r4, #64	; 0x40
10004b64:	bf28      	it	cs
10004b66:	2440      	movcs	r4, #64	; 0x40
10004b68:	f993 3000 	ldrsb.w	r3, [r3]
10004b6c:	2b00      	cmp	r3, #0
10004b6e:	db08      	blt.n	10004b82 <_data_stage_xact+0x2e>
10004b70:	2100      	movs	r1, #0
10004b72:	42ae      	cmp	r6, r5
10004b74:	d013      	beq.n	10004b9e <_data_stage_xact+0x4a>
10004b76:	4a0d      	ldr	r2, [pc, #52]	; (10004bac <_data_stage_xact+0x58>)
10004b78:	4623      	mov	r3, r4
10004b7a:	4638      	mov	r0, r7
10004b7c:	f7ff fc28 	bl	100043d0 <usbd_edpt_xfer>
10004b80:	bdf8      	pop	{r3, r4, r5, r6, r7, pc}
10004b82:	42ae      	cmp	r6, r5
10004b84:	d009      	beq.n	10004b9a <_data_stage_xact+0x46>
10004b86:	4b08      	ldr	r3, [pc, #32]	; (10004ba8 <_data_stage_xact+0x54>)
10004b88:	6899      	ldr	r1, [r3, #8]
10004b8a:	2c40      	cmp	r4, #64	; 0x40
10004b8c:	d809      	bhi.n	10004ba2 <_data_stage_xact+0x4e>
10004b8e:	4622      	mov	r2, r4
10004b90:	4806      	ldr	r0, [pc, #24]	; (10004bac <_data_stage_xact+0x58>)
10004b92:	f001 fcd1 	bl	10006538 <memcpy>
10004b96:	2180      	movs	r1, #128	; 0x80
10004b98:	e7eb      	b.n	10004b72 <_data_stage_xact+0x1e>
10004b9a:	2180      	movs	r1, #128	; 0x80
10004b9c:	e7e9      	b.n	10004b72 <_data_stage_xact+0x1e>
10004b9e:	2200      	movs	r2, #0
10004ba0:	e7ea      	b.n	10004b78 <_data_stage_xact+0x24>
10004ba2:	2000      	movs	r0, #0
10004ba4:	e7ec      	b.n	10004b80 <_data_stage_xact+0x2c>
10004ba6:	bf00      	nop
10004ba8:	200016b4 	.word	0x200016b4
10004bac:	200016f0 	.word	0x200016f0

10004bb0 <tud_control_status>:
10004bb0:	b508      	push	{r3, lr}
10004bb2:	4686      	mov	lr, r0
10004bb4:	460b      	mov	r3, r1
10004bb6:	4a0a      	ldr	r2, [pc, #40]	; (10004be0 <tud_control_status+0x30>)
10004bb8:	4694      	mov	ip, r2
10004bba:	6808      	ldr	r0, [r1, #0]
10004bbc:	6849      	ldr	r1, [r1, #4]
10004bbe:	e8ac 0003 	stmia.w	ip!, {r0, r1}
10004bc2:	2100      	movs	r1, #0
10004bc4:	6091      	str	r1, [r2, #8]
10004bc6:	81d1      	strh	r1, [r2, #14]
10004bc8:	8191      	strh	r1, [r2, #12]
10004bca:	f993 3000 	ldrsb.w	r3, [r3]
10004bce:	428b      	cmp	r3, r1
10004bd0:	db00      	blt.n	10004bd4 <tud_control_status+0x24>
10004bd2:	2180      	movs	r1, #128	; 0x80
10004bd4:	2300      	movs	r3, #0
10004bd6:	461a      	mov	r2, r3
10004bd8:	4670      	mov	r0, lr
10004bda:	f7ff fbf9 	bl	100043d0 <usbd_edpt_xfer>
10004bde:	bd08      	pop	{r3, pc}
10004be0:	200016b4 	.word	0x200016b4

10004be4 <tud_control_xfer>:
10004be4:	b538      	push	{r3, r4, r5, lr}
10004be6:	4605      	mov	r5, r0
10004be8:	468c      	mov	ip, r1
10004bea:	4c2a      	ldr	r4, [pc, #168]	; (10004c94 <tud_control_xfer+0xb0>)
10004bec:	46a6      	mov	lr, r4
10004bee:	6808      	ldr	r0, [r1, #0]
10004bf0:	6849      	ldr	r1, [r1, #4]
10004bf2:	e8ae 0003 	stmia.w	lr!, {r0, r1}
10004bf6:	60a2      	str	r2, [r4, #8]
10004bf8:	2100      	movs	r1, #0
10004bfa:	81e1      	strh	r1, [r4, #14]
10004bfc:	f8bc 1006 	ldrh.w	r1, [ip, #6]
10004c00:	428b      	cmp	r3, r1
10004c02:	bf28      	it	cs
10004c04:	460b      	movcs	r3, r1
10004c06:	81a3      	strh	r3, [r4, #12]
10004c08:	f8bc 1006 	ldrh.w	r1, [ip, #6]
10004c0c:	b329      	cbz	r1, 10004c5a <tud_control_xfer+0x76>
10004c0e:	b103      	cbz	r3, 10004c12 <tud_control_xfer+0x2e>
10004c10:	b132      	cbz	r2, 10004c20 <tud_control_xfer+0x3c>
10004c12:	4628      	mov	r0, r5
10004c14:	f7ff ff9e 	bl	10004b54 <_data_stage_xact>
10004c18:	4604      	mov	r4, r0
10004c1a:	b180      	cbz	r0, 10004c3e <tud_control_xfer+0x5a>
10004c1c:	4620      	mov	r0, r4
10004c1e:	bd38      	pop	{r3, r4, r5, pc}
10004c20:	2277      	movs	r2, #119	; 0x77
10004c22:	491d      	ldr	r1, [pc, #116]	; (10004c98 <tud_control_xfer+0xb4>)
10004c24:	481d      	ldr	r0, [pc, #116]	; (10004c9c <tud_control_xfer+0xb8>)
10004c26:	f7fe fbad 	bl	10003384 <__wrap_printf>
10004c2a:	f04f 23e0 	mov.w	r3, #3758153728	; 0xe000e000
10004c2e:	f8d3 3df0 	ldr.w	r3, [r3, #3568]	; 0xdf0
10004c32:	f013 0f01 	tst.w	r3, #1
10004c36:	d000      	beq.n	10004c3a <tud_control_xfer+0x56>
10004c38:	be00      	bkpt	0x0000
10004c3a:	2400      	movs	r4, #0
10004c3c:	e7ee      	b.n	10004c1c <tud_control_xfer+0x38>
10004c3e:	227d      	movs	r2, #125	; 0x7d
10004c40:	4915      	ldr	r1, [pc, #84]	; (10004c98 <tud_control_xfer+0xb4>)
10004c42:	4816      	ldr	r0, [pc, #88]	; (10004c9c <tud_control_xfer+0xb8>)
10004c44:	f7fe fb9e 	bl	10003384 <__wrap_printf>
10004c48:	f04f 23e0 	mov.w	r3, #3758153728	; 0xe000e000
10004c4c:	f8d3 3df0 	ldr.w	r3, [r3, #3568]	; 0xdf0
10004c50:	f013 0f01 	tst.w	r3, #1
10004c54:	d0e2      	beq.n	10004c1c <tud_control_xfer+0x38>
10004c56:	be00      	bkpt	0x0000
10004c58:	e7e0      	b.n	10004c1c <tud_control_xfer+0x38>
10004c5a:	f99c 3000 	ldrsb.w	r3, [ip]
10004c5e:	2b00      	cmp	r3, #0
10004c60:	db16      	blt.n	10004c90 <tud_control_xfer+0xac>
10004c62:	2180      	movs	r1, #128	; 0x80
10004c64:	2300      	movs	r3, #0
10004c66:	461a      	mov	r2, r3
10004c68:	4628      	mov	r0, r5
10004c6a:	f7ff fbb1 	bl	100043d0 <usbd_edpt_xfer>
10004c6e:	4604      	mov	r4, r0
10004c70:	2800      	cmp	r0, #0
10004c72:	d1d3      	bne.n	10004c1c <tud_control_xfer+0x38>
10004c74:	2280      	movs	r2, #128	; 0x80
10004c76:	4908      	ldr	r1, [pc, #32]	; (10004c98 <tud_control_xfer+0xb4>)
10004c78:	4808      	ldr	r0, [pc, #32]	; (10004c9c <tud_control_xfer+0xb8>)
10004c7a:	f7fe fb83 	bl	10003384 <__wrap_printf>
10004c7e:	f04f 23e0 	mov.w	r3, #3758153728	; 0xe000e000
10004c82:	f8d3 3df0 	ldr.w	r3, [r3, #3568]	; 0xdf0
10004c86:	f013 0f01 	tst.w	r3, #1
10004c8a:	d0c7      	beq.n	10004c1c <tud_control_xfer+0x38>
10004c8c:	be00      	bkpt	0x0000
10004c8e:	e7c5      	b.n	10004c1c <tud_control_xfer+0x38>
10004c90:	2100      	movs	r1, #0
10004c92:	e7e7      	b.n	10004c64 <tud_control_xfer+0x80>
10004c94:	200016b4 	.word	0x200016b4
10004c98:	10007568 	.word	0x10007568
10004c9c:	10007444 	.word	0x10007444

10004ca0 <usbd_control_reset>:
10004ca0:	4b03      	ldr	r3, [pc, #12]	; (10004cb0 <usbd_control_reset+0x10>)
10004ca2:	2200      	movs	r2, #0
10004ca4:	601a      	str	r2, [r3, #0]
10004ca6:	605a      	str	r2, [r3, #4]
10004ca8:	609a      	str	r2, [r3, #8]
10004caa:	60da      	str	r2, [r3, #12]
10004cac:	611a      	str	r2, [r3, #16]
10004cae:	4770      	bx	lr
10004cb0:	200016b4 	.word	0x200016b4

10004cb4 <usbd_control_set_complete_callback>:
10004cb4:	4b01      	ldr	r3, [pc, #4]	; (10004cbc <usbd_control_set_complete_callback+0x8>)
10004cb6:	6118      	str	r0, [r3, #16]
10004cb8:	4770      	bx	lr
10004cba:	bf00      	nop
10004cbc:	200016b4 	.word	0x200016b4

10004cc0 <usbd_control_set_request>:
10004cc0:	4601      	mov	r1, r0
10004cc2:	4b05      	ldr	r3, [pc, #20]	; (10004cd8 <usbd_control_set_request+0x18>)
10004cc4:	461a      	mov	r2, r3
10004cc6:	6800      	ldr	r0, [r0, #0]
10004cc8:	6849      	ldr	r1, [r1, #4]
10004cca:	c203      	stmia	r2!, {r0, r1}
10004ccc:	2200      	movs	r2, #0
10004cce:	609a      	str	r2, [r3, #8]
10004cd0:	81da      	strh	r2, [r3, #14]
10004cd2:	819a      	strh	r2, [r3, #12]
10004cd4:	4770      	bx	lr
10004cd6:	bf00      	nop
10004cd8:	200016b4 	.word	0x200016b4

10004cdc <usbd_control_xfer_cb>:
10004cdc:	b538      	push	{r3, r4, r5, lr}
10004cde:	4605      	mov	r5, r0
10004ce0:	461c      	mov	r4, r3
10004ce2:	4b42      	ldr	r3, [pc, #264]	; (10004dec <usbd_control_xfer_cb+0x110>)
10004ce4:	781b      	ldrb	r3, [r3, #0]
10004ce6:	09db      	lsrs	r3, r3, #7
10004ce8:	ebb3 1fd1 	cmp.w	r3, r1, lsr #7
10004cec:	d01c      	beq.n	10004d28 <usbd_control_xfer_cb+0x4c>
10004cee:	b17c      	cbz	r4, 10004d10 <usbd_control_xfer_cb+0x34>
10004cf0:	22a7      	movs	r2, #167	; 0xa7
10004cf2:	493f      	ldr	r1, [pc, #252]	; (10004df0 <usbd_control_xfer_cb+0x114>)
10004cf4:	483f      	ldr	r0, [pc, #252]	; (10004df4 <usbd_control_xfer_cb+0x118>)
10004cf6:	f7fe fb45 	bl	10003384 <__wrap_printf>
10004cfa:	f04f 23e0 	mov.w	r3, #3758153728	; 0xe000e000
10004cfe:	f8d3 3df0 	ldr.w	r3, [r3, #3568]	; 0xdf0
10004d02:	f013 0f01 	tst.w	r3, #1
10004d06:	d000      	beq.n	10004d0a <usbd_control_xfer_cb+0x2e>
10004d08:	be00      	bkpt	0x0000
10004d0a:	2400      	movs	r4, #0
10004d0c:	4620      	mov	r0, r4
10004d0e:	bd38      	pop	{r3, r4, r5, pc}
10004d10:	4c36      	ldr	r4, [pc, #216]	; (10004dec <usbd_control_xfer_cb+0x110>)
10004d12:	4621      	mov	r1, r4
10004d14:	f7fe ff80 	bl	10003c18 <dcd_edpt0_status_complete>
10004d18:	6923      	ldr	r3, [r4, #16]
10004d1a:	b11b      	cbz	r3, 10004d24 <usbd_control_xfer_cb+0x48>
10004d1c:	4622      	mov	r2, r4
10004d1e:	2103      	movs	r1, #3
10004d20:	4628      	mov	r0, r5
10004d22:	4798      	blx	r3
10004d24:	2401      	movs	r4, #1
10004d26:	e7f1      	b.n	10004d0c <usbd_control_xfer_cb+0x30>
10004d28:	4b30      	ldr	r3, [pc, #192]	; (10004dec <usbd_control_xfer_cb+0x110>)
10004d2a:	f993 3000 	ldrsb.w	r3, [r3]
10004d2e:	2b00      	cmp	r3, #0
10004d30:	db07      	blt.n	10004d42 <usbd_control_xfer_cb+0x66>
10004d32:	4b2e      	ldr	r3, [pc, #184]	; (10004dec <usbd_control_xfer_cb+0x110>)
10004d34:	6898      	ldr	r0, [r3, #8]
10004d36:	2800      	cmp	r0, #0
10004d38:	d055      	beq.n	10004de6 <usbd_control_xfer_cb+0x10a>
10004d3a:	4622      	mov	r2, r4
10004d3c:	492e      	ldr	r1, [pc, #184]	; (10004df8 <usbd_control_xfer_cb+0x11c>)
10004d3e:	f001 fbfb 	bl	10006538 <memcpy>
10004d42:	4a2a      	ldr	r2, [pc, #168]	; (10004dec <usbd_control_xfer_cb+0x110>)
10004d44:	89d3      	ldrh	r3, [r2, #14]
10004d46:	fa13 f384 	uxtah	r3, r3, r4
10004d4a:	b29b      	uxth	r3, r3
10004d4c:	81d3      	strh	r3, [r2, #14]
10004d4e:	6891      	ldr	r1, [r2, #8]
10004d50:	4421      	add	r1, r4
10004d52:	6091      	str	r1, [r2, #8]
10004d54:	88d2      	ldrh	r2, [r2, #6]
10004d56:	4293      	cmp	r3, r2
10004d58:	d001      	beq.n	10004d5e <usbd_control_xfer_cb+0x82>
10004d5a:	2c3f      	cmp	r4, #63	; 0x3f
10004d5c:	d82f      	bhi.n	10004dbe <usbd_control_xfer_cb+0xe2>
10004d5e:	4b23      	ldr	r3, [pc, #140]	; (10004dec <usbd_control_xfer_cb+0x110>)
10004d60:	691b      	ldr	r3, [r3, #16]
10004d62:	b123      	cbz	r3, 10004d6e <usbd_control_xfer_cb+0x92>
10004d64:	4a21      	ldr	r2, [pc, #132]	; (10004dec <usbd_control_xfer_cb+0x110>)
10004d66:	2102      	movs	r1, #2
10004d68:	4628      	mov	r0, r5
10004d6a:	4798      	blx	r3
10004d6c:	b1e8      	cbz	r0, 10004daa <usbd_control_xfer_cb+0xce>
10004d6e:	4b1f      	ldr	r3, [pc, #124]	; (10004dec <usbd_control_xfer_cb+0x110>)
10004d70:	f993 3000 	ldrsb.w	r3, [r3]
10004d74:	2b00      	cmp	r3, #0
10004d76:	db16      	blt.n	10004da6 <usbd_control_xfer_cb+0xca>
10004d78:	2180      	movs	r1, #128	; 0x80
10004d7a:	2300      	movs	r3, #0
10004d7c:	461a      	mov	r2, r3
10004d7e:	4628      	mov	r0, r5
10004d80:	f7ff fb26 	bl	100043d0 <usbd_edpt_xfer>
10004d84:	4604      	mov	r4, r0
10004d86:	2800      	cmp	r0, #0
10004d88:	d1c0      	bne.n	10004d0c <usbd_control_xfer_cb+0x30>
10004d8a:	22d0      	movs	r2, #208	; 0xd0
10004d8c:	4918      	ldr	r1, [pc, #96]	; (10004df0 <usbd_control_xfer_cb+0x114>)
10004d8e:	4819      	ldr	r0, [pc, #100]	; (10004df4 <usbd_control_xfer_cb+0x118>)
10004d90:	f7fe faf8 	bl	10003384 <__wrap_printf>
10004d94:	f04f 23e0 	mov.w	r3, #3758153728	; 0xe000e000
10004d98:	f8d3 3df0 	ldr.w	r3, [r3, #3568]	; 0xdf0
10004d9c:	f013 0f01 	tst.w	r3, #1
10004da0:	d0b4      	beq.n	10004d0c <usbd_control_xfer_cb+0x30>
10004da2:	be00      	bkpt	0x0000
10004da4:	e7b2      	b.n	10004d0c <usbd_control_xfer_cb+0x30>
10004da6:	2100      	movs	r1, #0
10004da8:	e7e7      	b.n	10004d7a <usbd_control_xfer_cb+0x9e>
10004daa:	2100      	movs	r1, #0
10004dac:	4628      	mov	r0, r5
10004dae:	f7fe ff79 	bl	10003ca4 <dcd_edpt_stall>
10004db2:	2180      	movs	r1, #128	; 0x80
10004db4:	4628      	mov	r0, r5
10004db6:	f7fe ff75 	bl	10003ca4 <dcd_edpt_stall>
10004dba:	2401      	movs	r4, #1
10004dbc:	e7a6      	b.n	10004d0c <usbd_control_xfer_cb+0x30>
10004dbe:	4628      	mov	r0, r5
10004dc0:	f7ff fec8 	bl	10004b54 <_data_stage_xact>
10004dc4:	4604      	mov	r4, r0
10004dc6:	2800      	cmp	r0, #0
10004dc8:	d1a0      	bne.n	10004d0c <usbd_control_xfer_cb+0x30>
10004dca:	22d8      	movs	r2, #216	; 0xd8
10004dcc:	4908      	ldr	r1, [pc, #32]	; (10004df0 <usbd_control_xfer_cb+0x114>)
10004dce:	4809      	ldr	r0, [pc, #36]	; (10004df4 <usbd_control_xfer_cb+0x118>)
10004dd0:	f7fe fad8 	bl	10003384 <__wrap_printf>
10004dd4:	f04f 23e0 	mov.w	r3, #3758153728	; 0xe000e000
10004dd8:	f8d3 3df0 	ldr.w	r3, [r3, #3568]	; 0xdf0
10004ddc:	f013 0f01 	tst.w	r3, #1
10004de0:	d094      	beq.n	10004d0c <usbd_control_xfer_cb+0x30>
10004de2:	be00      	bkpt	0x0000
10004de4:	e792      	b.n	10004d0c <usbd_control_xfer_cb+0x30>
10004de6:	2400      	movs	r4, #0
10004de8:	e790      	b.n	10004d0c <usbd_control_xfer_cb+0x30>
10004dea:	bf00      	nop
10004dec:	200016b4 	.word	0x200016b4
10004df0:	10007550 	.word	0x10007550
10004df4:	10007444 	.word	0x10007444
10004df8:	200016f0 	.word	0x200016f0

10004dfc <_prep_out_transaction>:
10004dfc:	b538      	push	{r3, r4, r5, lr}
10004dfe:	4604      	mov	r4, r0
10004e00:	f7ff f9a2 	bl	10004148 <tud_mounted>
10004e04:	b930      	cbnz	r0, 10004e14 <_prep_out_transaction+0x18>
10004e06:	2300      	movs	r3, #0
10004e08:	4618      	mov	r0, r3
10004e0a:	b113      	cbz	r3, 10004e12 <_prep_out_transaction+0x16>
10004e0c:	78e3      	ldrb	r3, [r4, #3]
10004e0e:	b943      	cbnz	r3, 10004e22 <_prep_out_transaction+0x26>
10004e10:	2000      	movs	r0, #0
10004e12:	bd38      	pop	{r3, r4, r5, pc}
10004e14:	f7ff f9a0 	bl	10004158 <tud_suspended>
10004e18:	b908      	cbnz	r0, 10004e1e <_prep_out_transaction+0x22>
10004e1a:	2301      	movs	r3, #1
10004e1c:	e7f4      	b.n	10004e08 <_prep_out_transaction+0xc>
10004e1e:	2300      	movs	r3, #0
10004e20:	e7f2      	b.n	10004e08 <_prep_out_transaction+0xc>
10004e22:	f104 0510 	add.w	r5, r4, #16
10004e26:	4628      	mov	r0, r5
10004e28:	f001 f934 	bl	10006094 <tu_fifo_remaining>
10004e2c:	283f      	cmp	r0, #63	; 0x3f
10004e2e:	d801      	bhi.n	10004e34 <_prep_out_transaction+0x38>
10004e30:	2000      	movs	r0, #0
10004e32:	e7ee      	b.n	10004e12 <_prep_out_transaction+0x16>
10004e34:	78e1      	ldrb	r1, [r4, #3]
10004e36:	2000      	movs	r0, #0
10004e38:	f7ff faa2 	bl	10004380 <usbd_edpt_claim>
10004e3c:	2800      	cmp	r0, #0
10004e3e:	d0e8      	beq.n	10004e12 <_prep_out_transaction+0x16>
10004e40:	4628      	mov	r0, r5
10004e42:	f001 f927 	bl	10006094 <tu_fifo_remaining>
10004e46:	283f      	cmp	r0, #63	; 0x3f
10004e48:	d907      	bls.n	10004e5a <_prep_out_transaction+0x5e>
10004e4a:	2340      	movs	r3, #64	; 0x40
10004e4c:	f504 7212 	add.w	r2, r4, #584	; 0x248
10004e50:	78e1      	ldrb	r1, [r4, #3]
10004e52:	2000      	movs	r0, #0
10004e54:	f7ff fabc 	bl	100043d0 <usbd_edpt_xfer>
10004e58:	e7db      	b.n	10004e12 <_prep_out_transaction+0x16>
10004e5a:	78e1      	ldrb	r1, [r4, #3]
10004e5c:	2000      	movs	r0, #0
10004e5e:	f7ff faa3 	bl	100043a8 <usbd_edpt_release>
10004e62:	2000      	movs	r0, #0
10004e64:	e7d5      	b.n	10004e12 <_prep_out_transaction+0x16>
	...

10004e68 <tud_cdc_n_connected>:
10004e68:	b510      	push	{r4, lr}
10004e6a:	4604      	mov	r4, r0
10004e6c:	f7ff f96c 	bl	10004148 <tud_mounted>
10004e70:	b960      	cbnz	r0, 10004e8c <tud_cdc_n_connected+0x24>
10004e72:	2300      	movs	r3, #0
10004e74:	b18b      	cbz	r3, 10004e9a <tud_cdc_n_connected+0x32>
10004e76:	480b      	ldr	r0, [pc, #44]	; (10004ea4 <tud_cdc_n_connected+0x3c>)
10004e78:	f44f 7332 	mov.w	r3, #712	; 0x2c8
10004e7c:	fb03 0004 	mla	r0, r3, r4, r0
10004e80:	7903      	ldrb	r3, [r0, #4]
10004e82:	f013 0f01 	tst.w	r3, #1
10004e86:	d00a      	beq.n	10004e9e <tud_cdc_n_connected+0x36>
10004e88:	2001      	movs	r0, #1
10004e8a:	e007      	b.n	10004e9c <tud_cdc_n_connected+0x34>
10004e8c:	f7ff f964 	bl	10004158 <tud_suspended>
10004e90:	b908      	cbnz	r0, 10004e96 <tud_cdc_n_connected+0x2e>
10004e92:	2301      	movs	r3, #1
10004e94:	e7ee      	b.n	10004e74 <tud_cdc_n_connected+0xc>
10004e96:	2300      	movs	r3, #0
10004e98:	e7ec      	b.n	10004e74 <tud_cdc_n_connected+0xc>
10004e9a:	2000      	movs	r0, #0
10004e9c:	bd10      	pop	{r4, pc}
10004e9e:	2000      	movs	r0, #0
10004ea0:	e7fc      	b.n	10004e9c <tud_cdc_n_connected+0x34>
10004ea2:	bf00      	nop
10004ea4:	200013ec 	.word	0x200013ec

10004ea8 <tud_cdc_n_available>:
10004ea8:	b508      	push	{r3, lr}
10004eaa:	f44f 7332 	mov.w	r3, #712	; 0x2c8
10004eae:	fb03 f000 	mul.w	r0, r3, r0
10004eb2:	3010      	adds	r0, #16
10004eb4:	4b02      	ldr	r3, [pc, #8]	; (10004ec0 <tud_cdc_n_available+0x18>)
10004eb6:	4418      	add	r0, r3
10004eb8:	f001 f8bb 	bl	10006032 <tu_fifo_count>
10004ebc:	bd08      	pop	{r3, pc}
10004ebe:	bf00      	nop
10004ec0:	200013ec 	.word	0x200013ec

10004ec4 <tud_cdc_n_read>:
10004ec4:	b538      	push	{r3, r4, r5, lr}
10004ec6:	4b0c      	ldr	r3, [pc, #48]	; (10004ef8 <tud_cdc_n_read+0x34>)
10004ec8:	f44f 7432 	mov.w	r4, #712	; 0x2c8
10004ecc:	fb04 f000 	mul.w	r0, r4, r0
10004ed0:	181d      	adds	r5, r3, r0
10004ed2:	3010      	adds	r0, #16
10004ed4:	4418      	add	r0, r3
10004ed6:	f64f 73fe 	movw	r3, #65534	; 0xfffe
10004eda:	429a      	cmp	r2, r3
10004edc:	d808      	bhi.n	10004ef0 <tud_cdc_n_read+0x2c>
10004ede:	b292      	uxth	r2, r2
10004ee0:	f001 f90d 	bl	100060fe <tu_fifo_read_n>
10004ee4:	4604      	mov	r4, r0
10004ee6:	4628      	mov	r0, r5
10004ee8:	f7ff ff88 	bl	10004dfc <_prep_out_transaction>
10004eec:	4620      	mov	r0, r4
10004eee:	bd38      	pop	{r3, r4, r5, pc}
10004ef0:	f64f 72ff 	movw	r2, #65535	; 0xffff
10004ef4:	e7f4      	b.n	10004ee0 <tud_cdc_n_read+0x1c>
10004ef6:	bf00      	nop
10004ef8:	200013ec 	.word	0x200013ec

10004efc <tud_cdc_n_write_flush>:
10004efc:	b570      	push	{r4, r5, r6, lr}
10004efe:	4605      	mov	r5, r0
10004f00:	f7ff f922 	bl	10004148 <tud_mounted>
10004f04:	b918      	cbnz	r0, 10004f0e <tud_cdc_n_write_flush+0x12>
10004f06:	2300      	movs	r3, #0
10004f08:	b943      	cbnz	r3, 10004f1c <tud_cdc_n_write_flush+0x20>
10004f0a:	2000      	movs	r0, #0
10004f0c:	bd70      	pop	{r4, r5, r6, pc}
10004f0e:	f7ff f923 	bl	10004158 <tud_suspended>
10004f12:	b908      	cbnz	r0, 10004f18 <tud_cdc_n_write_flush+0x1c>
10004f14:	2301      	movs	r3, #1
10004f16:	e7f7      	b.n	10004f08 <tud_cdc_n_write_flush+0xc>
10004f18:	2300      	movs	r3, #0
10004f1a:	e7f5      	b.n	10004f08 <tud_cdc_n_write_flush+0xc>
10004f1c:	f44f 7332 	mov.w	r3, #712	; 0x2c8
10004f20:	fb05 f303 	mul.w	r3, r5, r3
10004f24:	3320      	adds	r3, #32
10004f26:	4c26      	ldr	r4, [pc, #152]	; (10004fc0 <tud_cdc_n_write_flush+0xc4>)
10004f28:	441c      	add	r4, r3
10004f2a:	3404      	adds	r4, #4
10004f2c:	4620      	mov	r0, r4
10004f2e:	f001 f880 	bl	10006032 <tu_fifo_count>
10004f32:	b908      	cbnz	r0, 10004f38 <tud_cdc_n_write_flush+0x3c>
10004f34:	2000      	movs	r0, #0
10004f36:	e7e9      	b.n	10004f0c <tud_cdc_n_write_flush+0x10>
10004f38:	4b21      	ldr	r3, [pc, #132]	; (10004fc0 <tud_cdc_n_write_flush+0xc4>)
10004f3a:	f44f 7232 	mov.w	r2, #712	; 0x2c8
10004f3e:	fb02 3305 	mla	r3, r2, r5, r3
10004f42:	7899      	ldrb	r1, [r3, #2]
10004f44:	2000      	movs	r0, #0
10004f46:	f7ff fa1b 	bl	10004380 <usbd_edpt_claim>
10004f4a:	b908      	cbnz	r0, 10004f50 <tud_cdc_n_write_flush+0x54>
10004f4c:	2000      	movs	r0, #0
10004f4e:	e7dd      	b.n	10004f0c <tud_cdc_n_write_flush+0x10>
10004f50:	f44f 7332 	mov.w	r3, #712	; 0x2c8
10004f54:	fb05 f303 	mul.w	r3, r5, r3
10004f58:	f503 7322 	add.w	r3, r3, #648	; 0x288
10004f5c:	4e18      	ldr	r6, [pc, #96]	; (10004fc0 <tud_cdc_n_write_flush+0xc4>)
10004f5e:	441e      	add	r6, r3
10004f60:	2240      	movs	r2, #64	; 0x40
10004f62:	4631      	mov	r1, r6
10004f64:	4620      	mov	r0, r4
10004f66:	f001 f8ca 	bl	100060fe <tu_fifo_read_n>
10004f6a:	4604      	mov	r4, r0
10004f6c:	b1e0      	cbz	r0, 10004fa8 <tud_cdc_n_write_flush+0xac>
10004f6e:	4814      	ldr	r0, [pc, #80]	; (10004fc0 <tud_cdc_n_write_flush+0xc4>)
10004f70:	f44f 7332 	mov.w	r3, #712	; 0x2c8
10004f74:	fb03 0005 	mla	r0, r3, r5, r0
10004f78:	4623      	mov	r3, r4
10004f7a:	4632      	mov	r2, r6
10004f7c:	7881      	ldrb	r1, [r0, #2]
10004f7e:	2000      	movs	r0, #0
10004f80:	f7ff fa26 	bl	100043d0 <usbd_edpt_xfer>
10004f84:	b108      	cbz	r0, 10004f8a <tud_cdc_n_write_flush+0x8e>
10004f86:	4620      	mov	r0, r4
10004f88:	e7c0      	b.n	10004f0c <tud_cdc_n_write_flush+0x10>
10004f8a:	22cd      	movs	r2, #205	; 0xcd
10004f8c:	490d      	ldr	r1, [pc, #52]	; (10004fc4 <tud_cdc_n_write_flush+0xc8>)
10004f8e:	480e      	ldr	r0, [pc, #56]	; (10004fc8 <tud_cdc_n_write_flush+0xcc>)
10004f90:	f7fe f9f8 	bl	10003384 <__wrap_printf>
10004f94:	f04f 23e0 	mov.w	r3, #3758153728	; 0xe000e000
10004f98:	f8d3 3df0 	ldr.w	r3, [r3, #3568]	; 0xdf0
10004f9c:	f013 0f01 	tst.w	r3, #1
10004fa0:	d000      	beq.n	10004fa4 <tud_cdc_n_write_flush+0xa8>
10004fa2:	be00      	bkpt	0x0000
10004fa4:	2000      	movs	r0, #0
10004fa6:	e7b1      	b.n	10004f0c <tud_cdc_n_write_flush+0x10>
10004fa8:	4805      	ldr	r0, [pc, #20]	; (10004fc0 <tud_cdc_n_write_flush+0xc4>)
10004faa:	f44f 7332 	mov.w	r3, #712	; 0x2c8
10004fae:	fb03 0005 	mla	r0, r3, r5, r0
10004fb2:	7881      	ldrb	r1, [r0, #2]
10004fb4:	2000      	movs	r0, #0
10004fb6:	f7ff f9f7 	bl	100043a8 <usbd_edpt_release>
10004fba:	2000      	movs	r0, #0
10004fbc:	e7a6      	b.n	10004f0c <tud_cdc_n_write_flush+0x10>
10004fbe:	bf00      	nop
10004fc0:	200013ec 	.word	0x200013ec
10004fc4:	10007598 	.word	0x10007598
10004fc8:	10007444 	.word	0x10007444

10004fcc <tud_cdc_n_write>:
10004fcc:	b570      	push	{r4, r5, r6, lr}
10004fce:	4605      	mov	r5, r0
10004fd0:	f44f 7432 	mov.w	r4, #712	; 0x2c8
10004fd4:	fb00 f404 	mul.w	r4, r0, r4
10004fd8:	f104 0320 	add.w	r3, r4, #32
10004fdc:	4c0c      	ldr	r4, [pc, #48]	; (10005010 <tud_cdc_n_write+0x44>)
10004fde:	441c      	add	r4, r3
10004fe0:	3404      	adds	r4, #4
10004fe2:	f64f 73fe 	movw	r3, #65534	; 0xfffe
10004fe6:	429a      	cmp	r2, r3
10004fe8:	d80b      	bhi.n	10005002 <tud_cdc_n_write+0x36>
10004fea:	b292      	uxth	r2, r2
10004fec:	4620      	mov	r0, r4
10004fee:	f001 f8ba 	bl	10006166 <tu_fifo_write_n>
10004ff2:	4606      	mov	r6, r0
10004ff4:	4620      	mov	r0, r4
10004ff6:	f001 f81c 	bl	10006032 <tu_fifo_count>
10004ffa:	283f      	cmp	r0, #63	; 0x3f
10004ffc:	d804      	bhi.n	10005008 <tud_cdc_n_write+0x3c>
10004ffe:	4630      	mov	r0, r6
10005000:	bd70      	pop	{r4, r5, r6, pc}
10005002:	f64f 72ff 	movw	r2, #65535	; 0xffff
10005006:	e7f1      	b.n	10004fec <tud_cdc_n_write+0x20>
10005008:	4628      	mov	r0, r5
1000500a:	f7ff ff77 	bl	10004efc <tud_cdc_n_write_flush>
1000500e:	e7f6      	b.n	10004ffe <tud_cdc_n_write+0x32>
10005010:	200013ec 	.word	0x200013ec

10005014 <tud_cdc_n_write_available>:
10005014:	b508      	push	{r3, lr}
10005016:	f44f 7332 	mov.w	r3, #712	; 0x2c8
1000501a:	fb03 f000 	mul.w	r0, r3, r0
1000501e:	3020      	adds	r0, #32
10005020:	4b02      	ldr	r3, [pc, #8]	; (1000502c <tud_cdc_n_write_available+0x18>)
10005022:	4418      	add	r0, r3
10005024:	3004      	adds	r0, #4
10005026:	f001 f835 	bl	10006094 <tu_fifo_remaining>
1000502a:	bd08      	pop	{r3, pc}
1000502c:	200013ec 	.word	0x200013ec

10005030 <cdcd_init>:
10005030:	e92d 43f0 	stmdb	sp!, {r4, r5, r6, r7, r8, r9, lr}
10005034:	b083      	sub	sp, #12
10005036:	f44f 7232 	mov.w	r2, #712	; 0x2c8
1000503a:	2100      	movs	r1, #0
1000503c:	4826      	ldr	r0, [pc, #152]	; (100050d8 <cdcd_init+0xa8>)
1000503e:	f001 faf1 	bl	10006624 <memset>
10005042:	2500      	movs	r5, #0
10005044:	4b25      	ldr	r3, [pc, #148]	; (100050dc <cdcd_init+0xac>)
10005046:	701d      	strb	r5, [r3, #0]
10005048:	b115      	cbz	r5, 10005050 <cdcd_init+0x20>
1000504a:	b003      	add	sp, #12
1000504c:	e8bd 83f0 	ldmia.w	sp!, {r4, r5, r6, r7, r8, r9, pc}
10005050:	4e21      	ldr	r6, [pc, #132]	; (100050d8 <cdcd_init+0xa8>)
10005052:	f44f 7432 	mov.w	r4, #712	; 0x2c8
10005056:	fb05 f404 	mul.w	r4, r5, r4
1000505a:	1937      	adds	r7, r6, r4
1000505c:	23ff      	movs	r3, #255	; 0xff
1000505e:	717b      	strb	r3, [r7, #5]
10005060:	f44f 33e1 	mov.w	r3, #115200	; 0x1c200
10005064:	60bb      	str	r3, [r7, #8]
10005066:	f04f 0800 	mov.w	r8, #0
1000506a:	f887 800c 	strb.w	r8, [r7, #12]
1000506e:	f887 800d 	strb.w	r8, [r7, #13]
10005072:	2308      	movs	r3, #8
10005074:	73bb      	strb	r3, [r7, #14]
10005076:	f104 0138 	add.w	r1, r4, #56	; 0x38
1000507a:	f104 0010 	add.w	r0, r4, #16
1000507e:	f8cd 8000 	str.w	r8, [sp]
10005082:	2301      	movs	r3, #1
10005084:	f44f 7280 	mov.w	r2, #256	; 0x100
10005088:	4431      	add	r1, r6
1000508a:	4430      	add	r0, r6
1000508c:	f000 ffa0 	bl	10005fd0 <tu_fifo_config>
10005090:	f504 719c 	add.w	r1, r4, #312	; 0x138
10005094:	f104 0020 	add.w	r0, r4, #32
10005098:	4430      	add	r0, r6
1000509a:	2301      	movs	r3, #1
1000509c:	9300      	str	r3, [sp, #0]
1000509e:	f44f 7280 	mov.w	r2, #256	; 0x100
100050a2:	4431      	add	r1, r6
100050a4:	3004      	adds	r0, #4
100050a6:	f000 ff93 	bl	10005fd0 <tu_fifo_config>
100050aa:	f504 790e 	add.w	r9, r4, #568	; 0x238
100050ae:	44b1      	add	r9, r6
100050b0:	4648      	mov	r0, r9
100050b2:	f7fb fe7b 	bl	10000dac <mutex_init>
100050b6:	f504 7410 	add.w	r4, r4, #576	; 0x240
100050ba:	4434      	add	r4, r6
100050bc:	4620      	mov	r0, r4
100050be:	f7fb fe75 	bl	10000dac <mutex_init>
100050c2:	f8c7 801c 	str.w	r8, [r7, #28]
100050c6:	f8c7 9020 	str.w	r9, [r7, #32]
100050ca:	633c      	str	r4, [r7, #48]	; 0x30
100050cc:	f8c7 8034 	str.w	r8, [r7, #52]	; 0x34
100050d0:	3501      	adds	r5, #1
100050d2:	b2ed      	uxtb	r5, r5
100050d4:	e7b8      	b.n	10005048 <cdcd_init+0x18>
100050d6:	bf00      	nop
100050d8:	200013ec 	.word	0x200013ec
100050dc:	200013e8 	.word	0x200013e8

100050e0 <cdcd_deinit>:
100050e0:	2300      	movs	r3, #0
100050e2:	b10b      	cbz	r3, 100050e8 <cdcd_deinit+0x8>
100050e4:	2001      	movs	r0, #1
100050e6:	4770      	bx	lr
100050e8:	b410      	push	{r4}
100050ea:	469c      	mov	ip, r3
100050ec:	4a10      	ldr	r2, [pc, #64]	; (10005130 <cdcd_deinit+0x50>)
100050ee:	f44f 7132 	mov.w	r1, #712	; 0x2c8
100050f2:	fb01 2203 	mla	r2, r1, r3, r2
100050f6:	6a11      	ldr	r1, [r2, #32]
100050f8:	6b14      	ldr	r4, [r2, #48]	; 0x30
100050fa:	b139      	cbz	r1, 1000510c <cdcd_deinit+0x2c>
100050fc:	490c      	ldr	r1, [pc, #48]	; (10005130 <cdcd_deinit+0x50>)
100050fe:	f44f 7232 	mov.w	r2, #712	; 0x2c8
10005102:	fb02 1103 	mla	r1, r2, r3, r1
10005106:	2000      	movs	r0, #0
10005108:	61c8      	str	r0, [r1, #28]
1000510a:	6208      	str	r0, [r1, #32]
1000510c:	b13c      	cbz	r4, 1000511e <cdcd_deinit+0x3e>
1000510e:	4a08      	ldr	r2, [pc, #32]	; (10005130 <cdcd_deinit+0x50>)
10005110:	f44f 7132 	mov.w	r1, #712	; 0x2c8
10005114:	fb01 220c 	mla	r2, r1, ip, r2
10005118:	2100      	movs	r1, #0
1000511a:	6311      	str	r1, [r2, #48]	; 0x30
1000511c:	6351      	str	r1, [r2, #52]	; 0x34
1000511e:	3301      	adds	r3, #1
10005120:	b2db      	uxtb	r3, r3
10005122:	2b00      	cmp	r3, #0
10005124:	d0e1      	beq.n	100050ea <cdcd_deinit+0xa>
10005126:	2001      	movs	r0, #1
10005128:	f85d 4b04 	ldr.w	r4, [sp], #4
1000512c:	4770      	bx	lr
1000512e:	bf00      	nop
10005130:	200013ec 	.word	0x200013ec

10005134 <cdcd_reset>:
10005134:	b538      	push	{r3, r4, r5, lr}
10005136:	2400      	movs	r4, #0
10005138:	b104      	cbz	r4, 1000513c <cdcd_reset+0x8>
1000513a:	bd38      	pop	{r3, r4, r5, pc}
1000513c:	4625      	mov	r5, r4
1000513e:	491b      	ldr	r1, [pc, #108]	; (100051ac <cdcd_reset+0x78>)
10005140:	f44f 7332 	mov.w	r3, #712	; 0x2c8
10005144:	fb04 f303 	mul.w	r3, r4, r3
10005148:	18c8      	adds	r0, r1, r3
1000514a:	2200      	movs	r2, #0
1000514c:	50ca      	str	r2, [r1, r3]
1000514e:	7102      	strb	r2, [r0, #4]
10005150:	4b17      	ldr	r3, [pc, #92]	; (100051b0 <cdcd_reset+0x7c>)
10005152:	781b      	ldrb	r3, [r3, #0]
10005154:	f013 0f01 	tst.w	r3, #1
10005158:	d012      	beq.n	10005180 <cdcd_reset+0x4c>
1000515a:	4b15      	ldr	r3, [pc, #84]	; (100051b0 <cdcd_reset+0x7c>)
1000515c:	781b      	ldrb	r3, [r3, #0]
1000515e:	f013 0f02 	tst.w	r3, #2
10005162:	d017      	beq.n	10005194 <cdcd_reset+0x60>
10005164:	f44f 7032 	mov.w	r0, #712	; 0x2c8
10005168:	fb05 f000 	mul.w	r0, r5, r0
1000516c:	3020      	adds	r0, #32
1000516e:	4d0f      	ldr	r5, [pc, #60]	; (100051ac <cdcd_reset+0x78>)
10005170:	4428      	add	r0, r5
10005172:	2101      	movs	r1, #1
10005174:	3004      	adds	r0, #4
10005176:	f001 f816 	bl	100061a6 <tu_fifo_set_overwritable>
1000517a:	3401      	adds	r4, #1
1000517c:	b2e4      	uxtb	r4, r4
1000517e:	e7db      	b.n	10005138 <cdcd_reset+0x4>
10005180:	f44f 7332 	mov.w	r3, #712	; 0x2c8
10005184:	fb04 f303 	mul.w	r3, r4, r3
10005188:	3310      	adds	r3, #16
1000518a:	4608      	mov	r0, r1
1000518c:	4418      	add	r0, r3
1000518e:	f000 ffef 	bl	10006170 <tu_fifo_clear>
10005192:	e7e2      	b.n	1000515a <cdcd_reset+0x26>
10005194:	f44f 7032 	mov.w	r0, #712	; 0x2c8
10005198:	fb05 f000 	mul.w	r0, r5, r0
1000519c:	3020      	adds	r0, #32
1000519e:	4b03      	ldr	r3, [pc, #12]	; (100051ac <cdcd_reset+0x78>)
100051a0:	4418      	add	r0, r3
100051a2:	3004      	adds	r0, #4
100051a4:	f000 ffe4 	bl	10006170 <tu_fifo_clear>
100051a8:	e7dc      	b.n	10005164 <cdcd_reset+0x30>
100051aa:	bf00      	nop
100051ac:	200013ec 	.word	0x200013ec
100051b0:	200013e8 	.word	0x200013e8

100051b4 <cdcd_open>:
100051b4:	b5f0      	push	{r4, r5, r6, r7, lr}
100051b6:	b083      	sub	sp, #12
100051b8:	794b      	ldrb	r3, [r1, #5]
100051ba:	2b02      	cmp	r3, #2
100051bc:	d17e      	bne.n	100052bc <cdcd_open+0x108>
100051be:	4606      	mov	r6, r0
100051c0:	798b      	ldrb	r3, [r1, #6]
100051c2:	2b02      	cmp	r3, #2
100051c4:	d17e      	bne.n	100052c4 <cdcd_open+0x110>
100051c6:	2300      	movs	r3, #0
100051c8:	b13b      	cbz	r3, 100051da <cdcd_open+0x26>
100051ca:	2700      	movs	r7, #0
100051cc:	b1a7      	cbz	r7, 100051f8 <cdcd_open+0x44>
100051ce:	788b      	ldrb	r3, [r1, #2]
100051d0:	703b      	strb	r3, [r7, #0]
100051d2:	780d      	ldrb	r5, [r1, #0]
100051d4:	440d      	add	r5, r1
100051d6:	2409      	movs	r4, #9
100051d8:	e022      	b.n	10005220 <cdcd_open+0x6c>
100051da:	461d      	mov	r5, r3
100051dc:	483a      	ldr	r0, [pc, #232]	; (100052c8 <cdcd_open+0x114>)
100051de:	f44f 7432 	mov.w	r4, #712	; 0x2c8
100051e2:	fb04 0003 	mla	r0, r4, r3, r0
100051e6:	7880      	ldrb	r0, [r0, #2]
100051e8:	b110      	cbz	r0, 100051f0 <cdcd_open+0x3c>
100051ea:	3301      	adds	r3, #1
100051ec:	b2db      	uxtb	r3, r3
100051ee:	e7eb      	b.n	100051c8 <cdcd_open+0x14>
100051f0:	4f35      	ldr	r7, [pc, #212]	; (100052c8 <cdcd_open+0x114>)
100051f2:	fb04 7705 	mla	r7, r4, r5, r7
100051f6:	e7e9      	b.n	100051cc <cdcd_open+0x18>
100051f8:	f44f 729a 	mov.w	r2, #308	; 0x134
100051fc:	4933      	ldr	r1, [pc, #204]	; (100052cc <cdcd_open+0x118>)
100051fe:	4834      	ldr	r0, [pc, #208]	; (100052d0 <cdcd_open+0x11c>)
10005200:	f7fe f8c0 	bl	10003384 <__wrap_printf>
10005204:	f04f 23e0 	mov.w	r3, #3758153728	; 0xe000e000
10005208:	f8d3 3df0 	ldr.w	r3, [r3, #3568]	; 0xdf0
1000520c:	f013 0f01 	tst.w	r3, #1
10005210:	d000      	beq.n	10005214 <cdcd_open+0x60>
10005212:	be00      	bkpt	0x0000
10005214:	2400      	movs	r4, #0
10005216:	e052      	b.n	100052be <cdcd_open+0x10a>
10005218:	782b      	ldrb	r3, [r5, #0]
1000521a:	441c      	add	r4, r3
1000521c:	b2a4      	uxth	r4, r4
1000521e:	441d      	add	r5, r3
10005220:	786b      	ldrb	r3, [r5, #1]
10005222:	2b24      	cmp	r3, #36	; 0x24
10005224:	d101      	bne.n	1000522a <cdcd_open+0x76>
10005226:	4294      	cmp	r4, r2
10005228:	d9f6      	bls.n	10005218 <cdcd_open+0x64>
1000522a:	2b05      	cmp	r3, #5
1000522c:	d009      	beq.n	10005242 <cdcd_open+0x8e>
1000522e:	786b      	ldrb	r3, [r5, #1]
10005230:	2b04      	cmp	r3, #4
10005232:	d102      	bne.n	1000523a <cdcd_open+0x86>
10005234:	796b      	ldrb	r3, [r5, #5]
10005236:	2b0a      	cmp	r3, #10
10005238:	d01f      	beq.n	1000527a <cdcd_open+0xc6>
1000523a:	4638      	mov	r0, r7
1000523c:	f7ff fdde 	bl	10004dfc <_prep_out_transaction>
10005240:	e03d      	b.n	100052be <cdcd_open+0x10a>
10005242:	4629      	mov	r1, r5
10005244:	4630      	mov	r0, r6
10005246:	f7ff f80b 	bl	10004260 <usbd_edpt_open>
1000524a:	b130      	cbz	r0, 1000525a <cdcd_open+0xa6>
1000524c:	78ab      	ldrb	r3, [r5, #2]
1000524e:	707b      	strb	r3, [r7, #1]
10005250:	782b      	ldrb	r3, [r5, #0]
10005252:	441c      	add	r4, r3
10005254:	b2a4      	uxth	r4, r4
10005256:	441d      	add	r5, r3
10005258:	e7e9      	b.n	1000522e <cdcd_open+0x7a>
1000525a:	f44f 72a3 	mov.w	r2, #326	; 0x146
1000525e:	491b      	ldr	r1, [pc, #108]	; (100052cc <cdcd_open+0x118>)
10005260:	481b      	ldr	r0, [pc, #108]	; (100052d0 <cdcd_open+0x11c>)
10005262:	f7fe f88f 	bl	10003384 <__wrap_printf>
10005266:	f04f 23e0 	mov.w	r3, #3758153728	; 0xe000e000
1000526a:	f8d3 3df0 	ldr.w	r3, [r3, #3568]	; 0xdf0
1000526e:	f013 0f01 	tst.w	r3, #1
10005272:	d000      	beq.n	10005276 <cdcd_open+0xc2>
10005274:	be00      	bkpt	0x0000
10005276:	2400      	movs	r4, #0
10005278:	e021      	b.n	100052be <cdcd_open+0x10a>
1000527a:	7829      	ldrb	r1, [r5, #0]
1000527c:	440c      	add	r4, r1
1000527e:	b2a4      	uxth	r4, r4
10005280:	1cbb      	adds	r3, r7, #2
10005282:	9301      	str	r3, [sp, #4]
10005284:	1cfb      	adds	r3, r7, #3
10005286:	9300      	str	r3, [sp, #0]
10005288:	2302      	movs	r3, #2
1000528a:	461a      	mov	r2, r3
1000528c:	4429      	add	r1, r5
1000528e:	4630      	mov	r0, r6
10005290:	f7ff f824 	bl	100042dc <usbd_open_edpt_pair>
10005294:	b110      	cbz	r0, 1000529c <cdcd_open+0xe8>
10005296:	340e      	adds	r4, #14
10005298:	b2a4      	uxth	r4, r4
1000529a:	e7ce      	b.n	1000523a <cdcd_open+0x86>
1000529c:	f240 1255 	movw	r2, #341	; 0x155
100052a0:	490a      	ldr	r1, [pc, #40]	; (100052cc <cdcd_open+0x118>)
100052a2:	480b      	ldr	r0, [pc, #44]	; (100052d0 <cdcd_open+0x11c>)
100052a4:	f7fe f86e 	bl	10003384 <__wrap_printf>
100052a8:	f04f 23e0 	mov.w	r3, #3758153728	; 0xe000e000
100052ac:	f8d3 3df0 	ldr.w	r3, [r3, #3568]	; 0xdf0
100052b0:	f013 0f01 	tst.w	r3, #1
100052b4:	d000      	beq.n	100052b8 <cdcd_open+0x104>
100052b6:	be00      	bkpt	0x0000
100052b8:	2400      	movs	r4, #0
100052ba:	e000      	b.n	100052be <cdcd_open+0x10a>
100052bc:	2400      	movs	r4, #0
100052be:	4620      	mov	r0, r4
100052c0:	b003      	add	sp, #12
100052c2:	bdf0      	pop	{r4, r5, r6, r7, pc}
100052c4:	2400      	movs	r4, #0
100052c6:	e7fa      	b.n	100052be <cdcd_open+0x10a>
100052c8:	200013ec 	.word	0x200013ec
100052cc:	1000758c 	.word	0x1000758c
100052d0:	10007444 	.word	0x10007444

100052d4 <cdcd_control_xfer_cb>:
100052d4:	7813      	ldrb	r3, [r2, #0]
100052d6:	f003 0360 	and.w	r3, r3, #96	; 0x60
100052da:	2b20      	cmp	r3, #32
100052dc:	d172      	bne.n	100053c4 <cdcd_control_xfer_cb+0xf0>
100052de:	b570      	push	{r4, r5, r6, lr}
100052e0:	4694      	mov	ip, r2
100052e2:	4a3e      	ldr	r2, [pc, #248]	; (100053dc <cdcd_control_xfer_cb+0x108>)
100052e4:	2400      	movs	r4, #0
100052e6:	2c00      	cmp	r4, #0
100052e8:	d16e      	bne.n	100053c8 <cdcd_control_xfer_cb+0xf4>
100052ea:	f892 e000 	ldrb.w	lr, [r2]
100052ee:	f8bc 3004 	ldrh.w	r3, [ip, #4]
100052f2:	459e      	cmp	lr, r3
100052f4:	d004      	beq.n	10005300 <cdcd_control_xfer_cb+0x2c>
100052f6:	3401      	adds	r4, #1
100052f8:	b2e4      	uxtb	r4, r4
100052fa:	f502 7232 	add.w	r2, r2, #712	; 0x2c8
100052fe:	e7f2      	b.n	100052e6 <cdcd_control_xfer_cb+0x12>
10005300:	f89c 3001 	ldrb.w	r3, [ip, #1]
10005304:	3b20      	subs	r3, #32
10005306:	2b03      	cmp	r3, #3
10005308:	d860      	bhi.n	100053cc <cdcd_control_xfer_cb+0xf8>
1000530a:	e8df f003 	tbb	[pc, r3]
1000530e:	1902      	.short	0x1902
10005310:	4724      	.short	0x4724
10005312:	2901      	cmp	r1, #1
10005314:	d003      	beq.n	1000531e <cdcd_control_xfer_cb+0x4a>
10005316:	2903      	cmp	r1, #3
10005318:	d008      	beq.n	1000532c <cdcd_control_xfer_cb+0x58>
1000531a:	2001      	movs	r0, #1
1000531c:	e055      	b.n	100053ca <cdcd_control_xfer_cb+0xf6>
1000531e:	2307      	movs	r3, #7
10005320:	3208      	adds	r2, #8
10005322:	4661      	mov	r1, ip
10005324:	f7ff fc5e 	bl	10004be4 <tud_control_xfer>
10005328:	2001      	movs	r0, #1
1000532a:	e04e      	b.n	100053ca <cdcd_control_xfer_cb+0xf6>
1000532c:	4b2c      	ldr	r3, [pc, #176]	; (100053e0 <cdcd_control_xfer_cb+0x10c>)
1000532e:	2b00      	cmp	r3, #0
10005330:	d04e      	beq.n	100053d0 <cdcd_control_xfer_cb+0xfc>
10005332:	f102 0108 	add.w	r1, r2, #8
10005336:	4620      	mov	r0, r4
10005338:	f7fe f8a2 	bl	10003480 <tud_cdc_line_coding_cb>
1000533c:	2001      	movs	r0, #1
1000533e:	e044      	b.n	100053ca <cdcd_control_xfer_cb+0xf6>
10005340:	2901      	cmp	r1, #1
10005342:	d001      	beq.n	10005348 <cdcd_control_xfer_cb+0x74>
10005344:	2001      	movs	r0, #1
10005346:	e040      	b.n	100053ca <cdcd_control_xfer_cb+0xf6>
10005348:	2307      	movs	r3, #7
1000534a:	3208      	adds	r2, #8
1000534c:	4661      	mov	r1, ip
1000534e:	f7ff fc49 	bl	10004be4 <tud_control_xfer>
10005352:	2001      	movs	r0, #1
10005354:	e039      	b.n	100053ca <cdcd_control_xfer_cb+0xf6>
10005356:	2901      	cmp	r1, #1
10005358:	d003      	beq.n	10005362 <cdcd_control_xfer_cb+0x8e>
1000535a:	2903      	cmp	r1, #3
1000535c:	d006      	beq.n	1000536c <cdcd_control_xfer_cb+0x98>
1000535e:	2001      	movs	r0, #1
10005360:	e033      	b.n	100053ca <cdcd_control_xfer_cb+0xf6>
10005362:	4661      	mov	r1, ip
10005364:	f7ff fc24 	bl	10004bb0 <tud_control_status>
10005368:	2001      	movs	r0, #1
1000536a:	e02e      	b.n	100053ca <cdcd_control_xfer_cb+0xf6>
1000536c:	f8bc 3002 	ldrh.w	r3, [ip, #2]
10005370:	f013 0101 	ands.w	r1, r3, #1
10005374:	460d      	mov	r5, r1
10005376:	f3c3 0640 	ubfx	r6, r3, #1, #1
1000537a:	7113      	strb	r3, [r2, #4]
1000537c:	bf0c      	ite	eq
1000537e:	2101      	moveq	r1, #1
10005380:	2100      	movne	r1, #0
10005382:	f102 0024 	add.w	r0, r2, #36	; 0x24
10005386:	f000 ff0e 	bl	100061a6 <tu_fifo_set_overwritable>
1000538a:	4b16      	ldr	r3, [pc, #88]	; (100053e4 <cdcd_control_xfer_cb+0x110>)
1000538c:	b313      	cbz	r3, 100053d4 <cdcd_control_xfer_cb+0x100>
1000538e:	4632      	mov	r2, r6
10005390:	4629      	mov	r1, r5
10005392:	4620      	mov	r0, r4
10005394:	e000      	b.n	10005398 <cdcd_control_xfer_cb+0xc4>
10005396:	bf00      	nop
10005398:	2001      	movs	r0, #1
1000539a:	e016      	b.n	100053ca <cdcd_control_xfer_cb+0xf6>
1000539c:	2901      	cmp	r1, #1
1000539e:	d003      	beq.n	100053a8 <cdcd_control_xfer_cb+0xd4>
100053a0:	2903      	cmp	r1, #3
100053a2:	d006      	beq.n	100053b2 <cdcd_control_xfer_cb+0xde>
100053a4:	2001      	movs	r0, #1
100053a6:	e010      	b.n	100053ca <cdcd_control_xfer_cb+0xf6>
100053a8:	4661      	mov	r1, ip
100053aa:	f7ff fc01 	bl	10004bb0 <tud_control_status>
100053ae:	2001      	movs	r0, #1
100053b0:	e00b      	b.n	100053ca <cdcd_control_xfer_cb+0xf6>
100053b2:	4b0d      	ldr	r3, [pc, #52]	; (100053e8 <cdcd_control_xfer_cb+0x114>)
100053b4:	b183      	cbz	r3, 100053d8 <cdcd_control_xfer_cb+0x104>
100053b6:	f8bc 1002 	ldrh.w	r1, [ip, #2]
100053ba:	4620      	mov	r0, r4
100053bc:	e000      	b.n	100053c0 <cdcd_control_xfer_cb+0xec>
100053be:	bf00      	nop
100053c0:	2001      	movs	r0, #1
100053c2:	e002      	b.n	100053ca <cdcd_control_xfer_cb+0xf6>
100053c4:	2000      	movs	r0, #0
100053c6:	4770      	bx	lr
100053c8:	2000      	movs	r0, #0
100053ca:	bd70      	pop	{r4, r5, r6, pc}
100053cc:	2000      	movs	r0, #0
100053ce:	e7fc      	b.n	100053ca <cdcd_control_xfer_cb+0xf6>
100053d0:	2001      	movs	r0, #1
100053d2:	e7fa      	b.n	100053ca <cdcd_control_xfer_cb+0xf6>
100053d4:	2001      	movs	r0, #1
100053d6:	e7f8      	b.n	100053ca <cdcd_control_xfer_cb+0xf6>
100053d8:	2001      	movs	r0, #1
100053da:	e7f6      	b.n	100053ca <cdcd_control_xfer_cb+0xf6>
100053dc:	200013ec 	.word	0x200013ec
100053e0:	10003481 	.word	0x10003481
	...

100053ec <cdcd_xfer_cb>:
100053ec:	e92d 47f0 	stmdb	sp!, {r4, r5, r6, r7, r8, r9, sl, lr}
100053f0:	4607      	mov	r7, r0
100053f2:	460e      	mov	r6, r1
100053f4:	4699      	mov	r9, r3
100053f6:	2400      	movs	r4, #0
100053f8:	b154      	cbz	r4, 10005410 <cdcd_xfer_cb+0x24>
100053fa:	b9bc      	cbnz	r4, 1000542c <cdcd_xfer_cb+0x40>
100053fc:	78eb      	ldrb	r3, [r5, #3]
100053fe:	42b3      	cmp	r3, r6
10005400:	d024      	beq.n	1000544c <cdcd_xfer_cb+0x60>
10005402:	78ab      	ldrb	r3, [r5, #2]
10005404:	42b3      	cmp	r3, r6
10005406:	d055      	beq.n	100054b4 <cdcd_xfer_cb+0xc8>
10005408:	2401      	movs	r4, #1
1000540a:	4620      	mov	r0, r4
1000540c:	e8bd 87f0 	ldmia.w	sp!, {r4, r5, r6, r7, r8, r9, sl, pc}
10005410:	4d3e      	ldr	r5, [pc, #248]	; (1000550c <cdcd_xfer_cb+0x120>)
10005412:	f44f 7332 	mov.w	r3, #712	; 0x2c8
10005416:	fb03 5504 	mla	r5, r3, r4, r5
1000541a:	78eb      	ldrb	r3, [r5, #3]
1000541c:	42b3      	cmp	r3, r6
1000541e:	d0ec      	beq.n	100053fa <cdcd_xfer_cb+0xe>
10005420:	78ab      	ldrb	r3, [r5, #2]
10005422:	42b3      	cmp	r3, r6
10005424:	d0e9      	beq.n	100053fa <cdcd_xfer_cb+0xe>
10005426:	3401      	adds	r4, #1
10005428:	b2e4      	uxtb	r4, r4
1000542a:	e7e5      	b.n	100053f8 <cdcd_xfer_cb+0xc>
1000542c:	f240 12b5 	movw	r2, #437	; 0x1b5
10005430:	4937      	ldr	r1, [pc, #220]	; (10005510 <cdcd_xfer_cb+0x124>)
10005432:	4838      	ldr	r0, [pc, #224]	; (10005514 <cdcd_xfer_cb+0x128>)
10005434:	f7fd ffa6 	bl	10003384 <__wrap_printf>
10005438:	f04f 23e0 	mov.w	r3, #3758153728	; 0xe000e000
1000543c:	f8d3 3df0 	ldr.w	r3, [r3, #3568]	; 0xdf0
10005440:	f013 0f01 	tst.w	r3, #1
10005444:	d000      	beq.n	10005448 <cdcd_xfer_cb+0x5c>
10005446:	be00      	bkpt	0x0000
10005448:	2400      	movs	r4, #0
1000544a:	e7de      	b.n	1000540a <cdcd_xfer_cb+0x1e>
1000544c:	f105 0a10 	add.w	sl, r5, #16
10005450:	fa1f f289 	uxth.w	r2, r9
10005454:	f505 7112 	add.w	r1, r5, #584	; 0x248
10005458:	4650      	mov	r0, sl
1000545a:	f000 fe84 	bl	10006166 <tu_fifo_write_n>
1000545e:	4b2e      	ldr	r3, [pc, #184]	; (10005518 <cdcd_xfer_cb+0x12c>)
10005460:	b1d3      	cbz	r3, 10005498 <cdcd_xfer_cb+0xac>
10005462:	796b      	ldrb	r3, [r5, #5]
10005464:	2bff      	cmp	r3, #255	; 0xff
10005466:	d017      	beq.n	10005498 <cdcd_xfer_cb+0xac>
10005468:	f04f 0800 	mov.w	r8, #0
1000546c:	e001      	b.n	10005472 <cdcd_xfer_cb+0x86>
1000546e:	f108 0801 	add.w	r8, r8, #1
10005472:	45c8      	cmp	r8, r9
10005474:	d210      	bcs.n	10005498 <cdcd_xfer_cb+0xac>
10005476:	796a      	ldrb	r2, [r5, #5]
10005478:	eb05 0308 	add.w	r3, r5, r8
1000547c:	f893 3248 	ldrb.w	r3, [r3, #584]	; 0x248
10005480:	429a      	cmp	r2, r3
10005482:	d1f4      	bne.n	1000546e <cdcd_xfer_cb+0x82>
10005484:	4650      	mov	r0, sl
10005486:	f000 fde8 	bl	1000605a <tu_fifo_empty>
1000548a:	2800      	cmp	r0, #0
1000548c:	d1ef      	bne.n	1000546e <cdcd_xfer_cb+0x82>
1000548e:	7969      	ldrb	r1, [r5, #5]
10005490:	4620      	mov	r0, r4
10005492:	e000      	b.n	10005496 <cdcd_xfer_cb+0xaa>
10005494:	bf00      	nop
10005496:	e7ea      	b.n	1000546e <cdcd_xfer_cb+0x82>
10005498:	4b20      	ldr	r3, [pc, #128]	; (1000551c <cdcd_xfer_cb+0x130>)
1000549a:	b11b      	cbz	r3, 100054a4 <cdcd_xfer_cb+0xb8>
1000549c:	4650      	mov	r0, sl
1000549e:	f000 fddc 	bl	1000605a <tu_fifo_empty>
100054a2:	b118      	cbz	r0, 100054ac <cdcd_xfer_cb+0xc0>
100054a4:	4628      	mov	r0, r5
100054a6:	f7ff fca9 	bl	10004dfc <_prep_out_transaction>
100054aa:	e7aa      	b.n	10005402 <cdcd_xfer_cb+0x16>
100054ac:	4620      	mov	r0, r4
100054ae:	e000      	b.n	100054b2 <cdcd_xfer_cb+0xc6>
100054b0:	bf00      	nop
100054b2:	e7f7      	b.n	100054a4 <cdcd_xfer_cb+0xb8>
100054b4:	4b1a      	ldr	r3, [pc, #104]	; (10005520 <cdcd_xfer_cb+0x134>)
100054b6:	b113      	cbz	r3, 100054be <cdcd_xfer_cb+0xd2>
100054b8:	4620      	mov	r0, r4
100054ba:	e000      	b.n	100054be <cdcd_xfer_cb+0xd2>
100054bc:	bf00      	nop
100054be:	4620      	mov	r0, r4
100054c0:	f7ff fd1c 	bl	10004efc <tud_cdc_n_write_flush>
100054c4:	b108      	cbz	r0, 100054ca <cdcd_xfer_cb+0xde>
100054c6:	2401      	movs	r4, #1
100054c8:	e79f      	b.n	1000540a <cdcd_xfer_cb+0x1e>
100054ca:	f105 0024 	add.w	r0, r5, #36	; 0x24
100054ce:	f000 fdb0 	bl	10006032 <tu_fifo_count>
100054d2:	b9b0      	cbnz	r0, 10005502 <cdcd_xfer_cb+0x116>
100054d4:	f1b9 0f00 	cmp.w	r9, #0
100054d8:	d015      	beq.n	10005506 <cdcd_xfer_cb+0x11a>
100054da:	f019 0f3f 	tst.w	r9, #63	; 0x3f
100054de:	d001      	beq.n	100054e4 <cdcd_xfer_cb+0xf8>
100054e0:	2401      	movs	r4, #1
100054e2:	e792      	b.n	1000540a <cdcd_xfer_cb+0x1e>
100054e4:	78a9      	ldrb	r1, [r5, #2]
100054e6:	4638      	mov	r0, r7
100054e8:	f7fe ff4a 	bl	10004380 <usbd_edpt_claim>
100054ec:	4604      	mov	r4, r0
100054ee:	b908      	cbnz	r0, 100054f4 <cdcd_xfer_cb+0x108>
100054f0:	2401      	movs	r4, #1
100054f2:	e78a      	b.n	1000540a <cdcd_xfer_cb+0x1e>
100054f4:	2300      	movs	r3, #0
100054f6:	461a      	mov	r2, r3
100054f8:	78a9      	ldrb	r1, [r5, #2]
100054fa:	4638      	mov	r0, r7
100054fc:	f7fe ff68 	bl	100043d0 <usbd_edpt_xfer>
10005500:	e783      	b.n	1000540a <cdcd_xfer_cb+0x1e>
10005502:	2401      	movs	r4, #1
10005504:	e781      	b.n	1000540a <cdcd_xfer_cb+0x1e>
10005506:	2401      	movs	r4, #1
10005508:	e77f      	b.n	1000540a <cdcd_xfer_cb+0x1e>
1000550a:	bf00      	nop
1000550c:	200013ec 	.word	0x200013ec
10005510:	1000757c 	.word	0x1000757c
10005514:	10007444 	.word	0x10007444
	...

10005524 <tud_vendor_n_mounted>:
10005524:	b998      	cbnz	r0, 1000554e <tud_vendor_n_mounted+0x2a>
10005526:	4b0b      	ldr	r3, [pc, #44]	; (10005554 <tud_vendor_n_mounted+0x30>)
10005528:	f44f 7133 	mov.w	r1, #716	; 0x2cc
1000552c:	fb01 3300 	mla	r3, r1, r0, r3
10005530:	f893 31a9 	ldrb.w	r3, [r3, #425]	; 0x1a9
10005534:	b93b      	cbnz	r3, 10005546 <tud_vendor_n_mounted+0x22>
10005536:	4b07      	ldr	r3, [pc, #28]	; (10005554 <tud_vendor_n_mounted+0x30>)
10005538:	fb01 3200 	mla	r2, r1, r0, r3
1000553c:	f892 3085 	ldrb.w	r3, [r2, #133]	; 0x85
10005540:	b11b      	cbz	r3, 1000554a <tud_vendor_n_mounted+0x26>
10005542:	2001      	movs	r0, #1
10005544:	4770      	bx	lr
10005546:	2001      	movs	r0, #1
10005548:	4770      	bx	lr
1000554a:	2000      	movs	r0, #0
1000554c:	4770      	bx	lr
1000554e:	2000      	movs	r0, #0
10005550:	4770      	bx	lr
10005552:	bf00      	nop
10005554:	2000184c 	.word	0x2000184c

10005558 <tud_vendor_n_write_flush>:
10005558:	b108      	cbz	r0, 1000555e <tud_vendor_n_write_flush+0x6>
1000555a:	2000      	movs	r0, #0
1000555c:	4770      	bx	lr
1000555e:	b508      	push	{r3, lr}
10005560:	4601      	mov	r1, r0
10005562:	f44f 7333 	mov.w	r3, #716	; 0x2cc
10005566:	fb03 f101 	mul.w	r1, r3, r1
1000556a:	3180      	adds	r1, #128	; 0x80
1000556c:	4b02      	ldr	r3, [pc, #8]	; (10005578 <tud_vendor_n_write_flush+0x20>)
1000556e:	4419      	add	r1, r3
10005570:	3104      	adds	r1, #4
10005572:	f000 fae5 	bl	10005b40 <tu_edpt_stream_write_xfer>
10005576:	bd08      	pop	{r3, pc}
10005578:	2000184c 	.word	0x2000184c

1000557c <vendord_init>:
1000557c:	e92d 41f0 	stmdb	sp!, {r4, r5, r6, r7, r8, lr}
10005580:	b084      	sub	sp, #16
10005582:	f44f 7233 	mov.w	r2, #716	; 0x2cc
10005586:	2100      	movs	r1, #0
10005588:	481e      	ldr	r0, [pc, #120]	; (10005604 <vendord_init+0x88>)
1000558a:	f001 f84b 	bl	10006624 <memset>
1000558e:	2600      	movs	r6, #0
10005590:	b116      	cbz	r6, 10005598 <vendord_init+0x1c>
10005592:	b004      	add	sp, #16
10005594:	e8bd 81f0 	ldmia.w	sp!, {r4, r5, r6, r7, r8, pc}
10005598:	4d1a      	ldr	r5, [pc, #104]	; (10005604 <vendord_init+0x88>)
1000559a:	f44f 7433 	mov.w	r4, #716	; 0x2cc
1000559e:	fb06 f404 	mul.w	r4, r6, r4
100055a2:	f504 73e4 	add.w	r3, r4, #456	; 0x1c8
100055a6:	442b      	add	r3, r5
100055a8:	3304      	adds	r3, #4
100055aa:	192a      	adds	r2, r5, r4
100055ac:	3204      	adds	r2, #4
100055ae:	f504 70d4 	add.w	r0, r4, #424	; 0x1a8
100055b2:	f04f 0840 	mov.w	r8, #64	; 0x40
100055b6:	f8cd 800c 	str.w	r8, [sp, #12]
100055ba:	9202      	str	r2, [sp, #8]
100055bc:	f44f 7780 	mov.w	r7, #256	; 0x100
100055c0:	9701      	str	r7, [sp, #4]
100055c2:	9300      	str	r3, [sp, #0]
100055c4:	2300      	movs	r3, #0
100055c6:	461a      	mov	r2, r3
100055c8:	4619      	mov	r1, r3
100055ca:	4428      	add	r0, r5
100055cc:	f000 fa43 	bl	10005a56 <tu_edpt_stream_init>
100055d0:	f104 03a0 	add.w	r3, r4, #160	; 0xa0
100055d4:	442b      	add	r3, r5
100055d6:	3308      	adds	r3, #8
100055d8:	eb04 0208 	add.w	r2, r4, r8
100055dc:	442a      	add	r2, r5
100055de:	3204      	adds	r2, #4
100055e0:	f104 0080 	add.w	r0, r4, #128	; 0x80
100055e4:	4428      	add	r0, r5
100055e6:	f8cd 800c 	str.w	r8, [sp, #12]
100055ea:	9202      	str	r2, [sp, #8]
100055ec:	9701      	str	r7, [sp, #4]
100055ee:	9300      	str	r3, [sp, #0]
100055f0:	2300      	movs	r3, #0
100055f2:	2201      	movs	r2, #1
100055f4:	4619      	mov	r1, r3
100055f6:	3004      	adds	r0, #4
100055f8:	f000 fa2d 	bl	10005a56 <tu_edpt_stream_init>
100055fc:	3601      	adds	r6, #1
100055fe:	b2f6      	uxtb	r6, r6
10005600:	e7c6      	b.n	10005590 <vendord_init+0x14>
10005602:	bf00      	nop
10005604:	2000184c 	.word	0x2000184c

10005608 <vendord_deinit>:
10005608:	b570      	push	{r4, r5, r6, lr}
1000560a:	2400      	movs	r4, #0
1000560c:	b10c      	cbz	r4, 10005612 <vendord_deinit+0xa>
1000560e:	2001      	movs	r0, #1
10005610:	bd70      	pop	{r4, r5, r6, pc}
10005612:	4e09      	ldr	r6, [pc, #36]	; (10005638 <vendord_deinit+0x30>)
10005614:	f44f 7533 	mov.w	r5, #716	; 0x2cc
10005618:	fb04 f505 	mul.w	r5, r4, r5
1000561c:	f505 70d4 	add.w	r0, r5, #424	; 0x1a8
10005620:	4430      	add	r0, r6
10005622:	f000 fa43 	bl	10005aac <tu_edpt_stream_deinit>
10005626:	3580      	adds	r5, #128	; 0x80
10005628:	4435      	add	r5, r6
1000562a:	1d28      	adds	r0, r5, #4
1000562c:	f000 fa3e 	bl	10005aac <tu_edpt_stream_deinit>
10005630:	3401      	adds	r4, #1
10005632:	b2e4      	uxtb	r4, r4
10005634:	e7ea      	b.n	1000560c <vendord_deinit+0x4>
10005636:	bf00      	nop
10005638:	2000184c 	.word	0x2000184c

1000563c <vendord_reset>:
1000563c:	b570      	push	{r4, r5, r6, lr}
1000563e:	2400      	movs	r4, #0
10005640:	b104      	cbz	r4, 10005644 <vendord_reset+0x8>
10005642:	bd70      	pop	{r4, r5, r6, pc}
10005644:	4e09      	ldr	r6, [pc, #36]	; (1000566c <vendord_reset+0x30>)
10005646:	f44f 7533 	mov.w	r5, #716	; 0x2cc
1000564a:	fb04 f505 	mul.w	r5, r4, r5
1000564e:	2300      	movs	r3, #0
10005650:	5573      	strb	r3, [r6, r5]
10005652:	f505 70d8 	add.w	r0, r5, #432	; 0x1b0
10005656:	4430      	add	r0, r6
10005658:	f000 fd8a 	bl	10006170 <tu_fifo_clear>
1000565c:	3588      	adds	r5, #136	; 0x88
1000565e:	4435      	add	r5, r6
10005660:	1d28      	adds	r0, r5, #4
10005662:	f000 fd85 	bl	10006170 <tu_fifo_clear>
10005666:	3401      	adds	r4, #1
10005668:	b2e4      	uxtb	r4, r4
1000566a:	e7e9      	b.n	10005640 <vendord_reset+0x4>
1000566c:	2000184c 	.word	0x2000184c

10005670 <vendord_open>:
10005670:	794b      	ldrb	r3, [r1, #5]
10005672:	2bff      	cmp	r3, #255	; 0xff
10005674:	f040 8097 	bne.w	100057a6 <vendord_open+0x136>
10005678:	e92d 47f0 	stmdb	sp!, {r4, r5, r6, r7, r8, r9, sl, lr}
1000567c:	4681      	mov	r9, r0
1000567e:	4688      	mov	r8, r1
10005680:	780c      	ldrb	r4, [r1, #0]
10005682:	440c      	add	r4, r1
10005684:	18a5      	adds	r5, r4, r2
10005686:	2600      	movs	r6, #0
10005688:	b146      	cbz	r6, 1000569c <vendord_open+0x2c>
1000568a:	2600      	movs	r6, #0
1000568c:	2e00      	cmp	r6, #0
1000568e:	f000 808c 	beq.w	100057aa <vendord_open+0x13a>
10005692:	f898 3002 	ldrb.w	r3, [r8, #2]
10005696:	7033      	strb	r3, [r6, #0]
10005698:	2700      	movs	r7, #0
1000569a:	e03e      	b.n	1000571a <vendord_open+0xaa>
1000569c:	4630      	mov	r0, r6
1000569e:	f7ff ff41 	bl	10005524 <tud_vendor_n_mounted>
100056a2:	b110      	cbz	r0, 100056aa <vendord_open+0x3a>
100056a4:	3601      	adds	r6, #1
100056a6:	b2f6      	uxtb	r6, r6
100056a8:	e7ee      	b.n	10005688 <vendord_open+0x18>
100056aa:	4b41      	ldr	r3, [pc, #260]	; (100057b0 <vendord_open+0x140>)
100056ac:	f44f 7233 	mov.w	r2, #716	; 0x2cc
100056b0:	fb02 3606 	mla	r6, r2, r6, r3
100056b4:	e7ea      	b.n	1000568c <vendord_open+0x1c>
100056b6:	7823      	ldrb	r3, [r4, #0]
100056b8:	441c      	add	r4, r3
100056ba:	7863      	ldrb	r3, [r4, #1]
100056bc:	2b05      	cmp	r3, #5
100056be:	d001      	beq.n	100056c4 <vendord_open+0x54>
100056c0:	42ac      	cmp	r4, r5
100056c2:	d3f8      	bcc.n	100056b6 <vendord_open+0x46>
100056c4:	42ac      	cmp	r4, r5
100056c6:	d22c      	bcs.n	10005722 <vendord_open+0xb2>
100056c8:	4621      	mov	r1, r4
100056ca:	4648      	mov	r0, r9
100056cc:	f7fe fdc8 	bl	10004260 <usbd_edpt_open>
100056d0:	b360      	cbz	r0, 1000572c <vendord_open+0xbc>
100056d2:	3701      	adds	r7, #1
100056d4:	b2ff      	uxtb	r7, r7
100056d6:	78a3      	ldrb	r3, [r4, #2]
100056d8:	09db      	lsrs	r3, r3, #7
100056da:	d136      	bne.n	1000574a <vendord_open+0xda>
100056dc:	f506 7ad4 	add.w	sl, r6, #424	; 0x1a8
100056e0:	f506 70d8 	add.w	r0, r6, #432	; 0x1b0
100056e4:	f000 fd44 	bl	10006170 <tu_fifo_clear>
100056e8:	78a3      	ldrb	r3, [r4, #2]
100056ea:	f886 31a9 	strb.w	r3, [r6, #425]	; 0x1a9
100056ee:	88a3      	ldrh	r3, [r4, #4]
100056f0:	f3c3 030a 	ubfx	r3, r3, #0, #11
100056f4:	f5b3 7f00 	cmp.w	r3, #512	; 0x200
100056f8:	bf14      	ite	ne
100056fa:	2300      	movne	r3, #0
100056fc:	2301      	moveq	r3, #1
100056fe:	f896 21a8 	ldrb.w	r2, [r6, #424]	; 0x1a8
10005702:	f363 0241 	bfi	r2, r3, #1, #1
10005706:	f886 21a8 	strb.w	r2, [r6, #424]	; 0x1a8
1000570a:	4651      	mov	r1, sl
1000570c:	4648      	mov	r0, r9
1000570e:	f000 fa63 	bl	10005bd8 <tu_edpt_stream_read_xfer>
10005712:	2800      	cmp	r0, #0
10005714:	d038      	beq.n	10005788 <vendord_open+0x118>
10005716:	7823      	ldrb	r3, [r4, #0]
10005718:	441c      	add	r4, r3
1000571a:	f898 3004 	ldrb.w	r3, [r8, #4]
1000571e:	42bb      	cmp	r3, r7
10005720:	d8cb      	bhi.n	100056ba <vendord_open+0x4a>
10005722:	eba4 0008 	sub.w	r0, r4, r8
10005726:	b280      	uxth	r0, r0
10005728:	e8bd 87f0 	ldmia.w	sp!, {r4, r5, r6, r7, r8, r9, sl, pc}
1000572c:	22da      	movs	r2, #218	; 0xda
1000572e:	4921      	ldr	r1, [pc, #132]	; (100057b4 <vendord_open+0x144>)
10005730:	4821      	ldr	r0, [pc, #132]	; (100057b8 <vendord_open+0x148>)
10005732:	f7fd fe27 	bl	10003384 <__wrap_printf>
10005736:	f04f 23e0 	mov.w	r3, #3758153728	; 0xe000e000
1000573a:	f8d3 3df0 	ldr.w	r3, [r3, #3568]	; 0xdf0
1000573e:	f013 0f01 	tst.w	r3, #1
10005742:	d000      	beq.n	10005746 <vendord_open+0xd6>
10005744:	be00      	bkpt	0x0000
10005746:	2000      	movs	r0, #0
10005748:	e7ee      	b.n	10005728 <vendord_open+0xb8>
1000574a:	f106 008c 	add.w	r0, r6, #140	; 0x8c
1000574e:	f000 fd0f 	bl	10006170 <tu_fifo_clear>
10005752:	78a3      	ldrb	r3, [r4, #2]
10005754:	f886 3085 	strb.w	r3, [r6, #133]	; 0x85
10005758:	88a3      	ldrh	r3, [r4, #4]
1000575a:	f3c3 030a 	ubfx	r3, r3, #0, #11
1000575e:	f5b3 7f00 	cmp.w	r3, #512	; 0x200
10005762:	bf14      	ite	ne
10005764:	2300      	movne	r3, #0
10005766:	2301      	moveq	r3, #1
10005768:	f896 2084 	ldrb.w	r2, [r6, #132]	; 0x84
1000576c:	f363 0241 	bfi	r2, r3, #1, #1
10005770:	f886 2084 	strb.w	r2, [r6, #132]	; 0x84
10005774:	480e      	ldr	r0, [pc, #56]	; (100057b0 <vendord_open+0x140>)
10005776:	1a30      	subs	r0, r6, r0
10005778:	1080      	asrs	r0, r0, #2
1000577a:	4b10      	ldr	r3, [pc, #64]	; (100057bc <vendord_open+0x14c>)
1000577c:	fb03 f000 	mul.w	r0, r3, r0
10005780:	b2c0      	uxtb	r0, r0
10005782:	f7ff fee9 	bl	10005558 <tud_vendor_n_write_flush>
10005786:	e7c6      	b.n	10005716 <vendord_open+0xa6>
10005788:	22e2      	movs	r2, #226	; 0xe2
1000578a:	490a      	ldr	r1, [pc, #40]	; (100057b4 <vendord_open+0x144>)
1000578c:	480a      	ldr	r0, [pc, #40]	; (100057b8 <vendord_open+0x148>)
1000578e:	f7fd fdf9 	bl	10003384 <__wrap_printf>
10005792:	f04f 23e0 	mov.w	r3, #3758153728	; 0xe000e000
10005796:	f8d3 3df0 	ldr.w	r3, [r3, #3568]	; 0xdf0
1000579a:	f013 0f01 	tst.w	r3, #1
1000579e:	d000      	beq.n	100057a2 <vendord_open+0x132>
100057a0:	be00      	bkpt	0x0000
100057a2:	2000      	movs	r0, #0
100057a4:	e7c0      	b.n	10005728 <vendord_open+0xb8>
100057a6:	2000      	movs	r0, #0
100057a8:	4770      	bx	lr
100057aa:	2000      	movs	r0, #0
100057ac:	e7bc      	b.n	10005728 <vendord_open+0xb8>
100057ae:	bf00      	nop
100057b0:	2000184c 	.word	0x2000184c
100057b4:	100075b0 	.word	0x100075b0
100057b8:	10007444 	.word	0x10007444
100057bc:	d962ae7b 	.word	0xd962ae7b

100057c0 <vendord_xfer_cb>:
100057c0:	b5f8      	push	{r3, r4, r5, r6, r7, lr}
100057c2:	4605      	mov	r5, r0
100057c4:	461e      	mov	r6, r3
100057c6:	4f24      	ldr	r7, [pc, #144]	; (10005858 <vendord_xfer_cb+0x98>)
100057c8:	2400      	movs	r4, #0
100057ca:	2c00      	cmp	r4, #0
100057cc:	d142      	bne.n	10005854 <vendord_xfer_cb+0x94>
100057ce:	f897 31a9 	ldrb.w	r3, [r7, #425]	; 0x1a9
100057d2:	428b      	cmp	r3, r1
100057d4:	d008      	beq.n	100057e8 <vendord_xfer_cb+0x28>
100057d6:	f897 2085 	ldrb.w	r2, [r7, #133]	; 0x85
100057da:	428a      	cmp	r2, r1
100057dc:	d004      	beq.n	100057e8 <vendord_xfer_cb+0x28>
100057de:	3401      	adds	r4, #1
100057e0:	b2e4      	uxtb	r4, r4
100057e2:	f507 7733 	add.w	r7, r7, #716	; 0x2cc
100057e6:	e7f0      	b.n	100057ca <vendord_xfer_cb+0xa>
100057e8:	428b      	cmp	r3, r1
100057ea:	d005      	beq.n	100057f8 <vendord_xfer_cb+0x38>
100057ec:	f897 3085 	ldrb.w	r3, [r7, #133]	; 0x85
100057f0:	428b      	cmp	r3, r1
100057f2:	d01a      	beq.n	1000582a <vendord_xfer_cb+0x6a>
100057f4:	2001      	movs	r0, #1
100057f6:	e02e      	b.n	10005856 <vendord_xfer_cb+0x96>
100057f8:	f8b7 31b4 	ldrh.w	r3, [r7, #436]	; 0x1b4
100057fc:	b96b      	cbnz	r3, 1000581a <vendord_xfer_cb+0x5a>
100057fe:	4b17      	ldr	r3, [pc, #92]	; (1000585c <vendord_xfer_cb+0x9c>)
10005800:	b123      	cbz	r3, 1000580c <vendord_xfer_cb+0x4c>
10005802:	b2b2      	uxth	r2, r6
10005804:	1d39      	adds	r1, r7, #4
10005806:	4620      	mov	r0, r4
10005808:	e000      	b.n	1000580c <vendord_xfer_cb+0x4c>
1000580a:	bf00      	nop
1000580c:	f507 71d4 	add.w	r1, r7, #424	; 0x1a8
10005810:	4628      	mov	r0, r5
10005812:	f000 f9e1 	bl	10005bd8 <tu_edpt_stream_read_xfer>
10005816:	2001      	movs	r0, #1
10005818:	e01d      	b.n	10005856 <vendord_xfer_cb+0x96>
1000581a:	b2b2      	uxth	r2, r6
1000581c:	f8d7 11ac 	ldr.w	r1, [r7, #428]	; 0x1ac
10005820:	f507 70d8 	add.w	r0, r7, #432	; 0x1b0
10005824:	f000 fc9f 	bl	10006166 <tu_fifo_write_n>
10005828:	e7e9      	b.n	100057fe <vendord_xfer_cb+0x3e>
1000582a:	4b0d      	ldr	r3, [pc, #52]	; (10005860 <vendord_xfer_cb+0xa0>)
1000582c:	b11b      	cbz	r3, 10005836 <vendord_xfer_cb+0x76>
1000582e:	b2b1      	uxth	r1, r6
10005830:	4620      	mov	r0, r4
10005832:	e000      	b.n	10005836 <vendord_xfer_cb+0x76>
10005834:	bf00      	nop
10005836:	3784      	adds	r7, #132	; 0x84
10005838:	4639      	mov	r1, r7
1000583a:	4628      	mov	r0, r5
1000583c:	f000 f980 	bl	10005b40 <tu_edpt_stream_write_xfer>
10005840:	b108      	cbz	r0, 10005846 <vendord_xfer_cb+0x86>
10005842:	2001      	movs	r0, #1
10005844:	e007      	b.n	10005856 <vendord_xfer_cb+0x96>
10005846:	4632      	mov	r2, r6
10005848:	4639      	mov	r1, r7
1000584a:	4628      	mov	r0, r5
1000584c:	f000 f930 	bl	10005ab0 <tu_edpt_stream_write_zlp_if_needed>
10005850:	2001      	movs	r0, #1
10005852:	e000      	b.n	10005856 <vendord_xfer_cb+0x96>
10005854:	2000      	movs	r0, #0
10005856:	bdf8      	pop	{r3, r4, r5, r6, r7, pc}
10005858:	2000184c 	.word	0x2000184c
	...

10005864 <tusb_init>:
10005864:	b510      	push	{r4, lr}
10005866:	2000      	movs	r0, #0
10005868:	f7fe fc86 	bl	10004178 <tud_init>
1000586c:	4604      	mov	r4, r0
1000586e:	b108      	cbz	r0, 10005874 <tusb_init+0x10>
10005870:	4620      	mov	r0, r4
10005872:	bd10      	pop	{r4, pc}
10005874:	2231      	movs	r2, #49	; 0x31
10005876:	4906      	ldr	r1, [pc, #24]	; (10005890 <tusb_init+0x2c>)
10005878:	4806      	ldr	r0, [pc, #24]	; (10005894 <tusb_init+0x30>)
1000587a:	f7fd fd83 	bl	10003384 <__wrap_printf>
1000587e:	f04f 23e0 	mov.w	r3, #3758153728	; 0xe000e000
10005882:	f8d3 3df0 	ldr.w	r3, [r3, #3568]	; 0xdf0
10005886:	f013 0f01 	tst.w	r3, #1
1000588a:	d0f1      	beq.n	10005870 <tusb_init+0xc>
1000588c:	be00      	bkpt	0x0000
1000588e:	e7ef      	b.n	10005870 <tusb_init+0xc>
10005890:	10007630 	.word	0x10007630
10005894:	10007444 	.word	0x10007444

10005898 <tu_edpt_claim>:
10005898:	b570      	push	{r4, r5, r6, lr}
1000589a:	7803      	ldrb	r3, [r0, #0]
1000589c:	f013 0401 	ands.w	r4, r3, #1
100058a0:	d121      	bne.n	100058e6 <tu_edpt_claim+0x4e>
100058a2:	4605      	mov	r5, r0
100058a4:	460e      	mov	r6, r1
100058a6:	7803      	ldrb	r3, [r0, #0]
100058a8:	f013 0f04 	tst.w	r3, #4
100058ac:	d11c      	bne.n	100058e8 <tu_edpt_claim+0x50>
100058ae:	f04f 31ff 	mov.w	r1, #4294967295
100058b2:	4630      	mov	r0, r6
100058b4:	f000 ff60 	bl	10006778 <__mutex_enter_timeout_ms_veneer>
100058b8:	782b      	ldrb	r3, [r5, #0]
100058ba:	f013 0f01 	tst.w	r3, #1
100058be:	d105      	bne.n	100058cc <tu_edpt_claim+0x34>
100058c0:	782b      	ldrb	r3, [r5, #0]
100058c2:	f013 0f04 	tst.w	r3, #4
100058c6:	d00c      	beq.n	100058e2 <tu_edpt_claim+0x4a>
100058c8:	2300      	movs	r3, #0
100058ca:	e000      	b.n	100058ce <tu_edpt_claim+0x36>
100058cc:	2300      	movs	r3, #0
100058ce:	461c      	mov	r4, r3
100058d0:	b11b      	cbz	r3, 100058da <tu_edpt_claim+0x42>
100058d2:	782b      	ldrb	r3, [r5, #0]
100058d4:	f043 0304 	orr.w	r3, r3, #4
100058d8:	702b      	strb	r3, [r5, #0]
100058da:	4630      	mov	r0, r6
100058dc:	f000 ff34 	bl	10006748 <__mutex_exit_veneer>
100058e0:	e002      	b.n	100058e8 <tu_edpt_claim+0x50>
100058e2:	2301      	movs	r3, #1
100058e4:	e7f3      	b.n	100058ce <tu_edpt_claim+0x36>
100058e6:	2400      	movs	r4, #0
100058e8:	4620      	mov	r0, r4
100058ea:	bd70      	pop	{r4, r5, r6, pc}

100058ec <tu_edpt_release>:
100058ec:	b570      	push	{r4, r5, r6, lr}
100058ee:	4604      	mov	r4, r0
100058f0:	460d      	mov	r5, r1
100058f2:	f04f 31ff 	mov.w	r1, #4294967295
100058f6:	4628      	mov	r0, r5
100058f8:	f000 ff3e 	bl	10006778 <__mutex_enter_timeout_ms_veneer>
100058fc:	7823      	ldrb	r3, [r4, #0]
100058fe:	f013 0f04 	tst.w	r3, #4
10005902:	d10b      	bne.n	1000591c <tu_edpt_release+0x30>
10005904:	2300      	movs	r3, #0
10005906:	461e      	mov	r6, r3
10005908:	b11b      	cbz	r3, 10005912 <tu_edpt_release+0x26>
1000590a:	7823      	ldrb	r3, [r4, #0]
1000590c:	f36f 0382 	bfc	r3, #2, #1
10005910:	7023      	strb	r3, [r4, #0]
10005912:	4628      	mov	r0, r5
10005914:	f000 ff18 	bl	10006748 <__mutex_exit_veneer>
10005918:	4630      	mov	r0, r6
1000591a:	bd70      	pop	{r4, r5, r6, pc}
1000591c:	7823      	ldrb	r3, [r4, #0]
1000591e:	f013 0f01 	tst.w	r3, #1
10005922:	d001      	beq.n	10005928 <tu_edpt_release+0x3c>
10005924:	2300      	movs	r3, #0
10005926:	e7ee      	b.n	10005906 <tu_edpt_release+0x1a>
10005928:	2301      	movs	r3, #1
1000592a:	e7ec      	b.n	10005906 <tu_edpt_release+0x1a>

1000592c <tu_edpt_validate>:
1000592c:	b508      	push	{r3, lr}
1000592e:	8883      	ldrh	r3, [r0, #4]
10005930:	f3c3 020a 	ubfx	r2, r3, #0, #11
10005934:	78c3      	ldrb	r3, [r0, #3]
10005936:	f003 0303 	and.w	r3, r3, #3
1000593a:	2b02      	cmp	r3, #2
1000593c:	d01f      	beq.n	1000597e <tu_edpt_validate+0x52>
1000593e:	2b03      	cmp	r3, #3
10005940:	d046      	beq.n	100059d0 <tu_edpt_validate+0xa4>
10005942:	2b01      	cmp	r3, #1
10005944:	d001      	beq.n	1000594a <tu_edpt_validate+0x1e>
10005946:	2000      	movs	r0, #0
10005948:	bd08      	pop	{r3, pc}
1000594a:	2902      	cmp	r1, #2
1000594c:	d005      	beq.n	1000595a <tu_edpt_validate+0x2e>
1000594e:	f240 33ff 	movw	r3, #1023	; 0x3ff
10005952:	4293      	cmp	r3, r2
10005954:	d304      	bcc.n	10005960 <tu_edpt_validate+0x34>
10005956:	2001      	movs	r0, #1
10005958:	e7f6      	b.n	10005948 <tu_edpt_validate+0x1c>
1000595a:	f44f 6380 	mov.w	r3, #1024	; 0x400
1000595e:	e7f8      	b.n	10005952 <tu_edpt_validate+0x26>
10005960:	2290      	movs	r2, #144	; 0x90
10005962:	4928      	ldr	r1, [pc, #160]	; (10005a04 <tu_edpt_validate+0xd8>)
10005964:	4828      	ldr	r0, [pc, #160]	; (10005a08 <tu_edpt_validate+0xdc>)
10005966:	f7fd fd0d 	bl	10003384 <__wrap_printf>
1000596a:	f04f 23e0 	mov.w	r3, #3758153728	; 0xe000e000
1000596e:	f8d3 3df0 	ldr.w	r3, [r3, #3568]	; 0xdf0
10005972:	f013 0f01 	tst.w	r3, #1
10005976:	d000      	beq.n	1000597a <tu_edpt_validate+0x4e>
10005978:	be00      	bkpt	0x0000
1000597a:	2000      	movs	r0, #0
1000597c:	e7e4      	b.n	10005948 <tu_edpt_validate+0x1c>
1000597e:	2902      	cmp	r1, #2
10005980:	d003      	beq.n	1000598a <tu_edpt_validate+0x5e>
10005982:	2a40      	cmp	r2, #64	; 0x40
10005984:	d815      	bhi.n	100059b2 <tu_edpt_validate+0x86>
10005986:	2001      	movs	r0, #1
10005988:	e7de      	b.n	10005948 <tu_edpt_validate+0x1c>
1000598a:	f5b2 7f00 	cmp.w	r2, #512	; 0x200
1000598e:	d101      	bne.n	10005994 <tu_edpt_validate+0x68>
10005990:	2001      	movs	r0, #1
10005992:	e7d9      	b.n	10005948 <tu_edpt_validate+0x1c>
10005994:	2297      	movs	r2, #151	; 0x97
10005996:	491b      	ldr	r1, [pc, #108]	; (10005a04 <tu_edpt_validate+0xd8>)
10005998:	481b      	ldr	r0, [pc, #108]	; (10005a08 <tu_edpt_validate+0xdc>)
1000599a:	f7fd fcf3 	bl	10003384 <__wrap_printf>
1000599e:	f04f 23e0 	mov.w	r3, #3758153728	; 0xe000e000
100059a2:	f8d3 3df0 	ldr.w	r3, [r3, #3568]	; 0xdf0
100059a6:	f013 0f01 	tst.w	r3, #1
100059aa:	d000      	beq.n	100059ae <tu_edpt_validate+0x82>
100059ac:	be00      	bkpt	0x0000
100059ae:	2000      	movs	r0, #0
100059b0:	e7ca      	b.n	10005948 <tu_edpt_validate+0x1c>
100059b2:	229a      	movs	r2, #154	; 0x9a
100059b4:	4913      	ldr	r1, [pc, #76]	; (10005a04 <tu_edpt_validate+0xd8>)
100059b6:	4814      	ldr	r0, [pc, #80]	; (10005a08 <tu_edpt_validate+0xdc>)
100059b8:	f7fd fce4 	bl	10003384 <__wrap_printf>
100059bc:	f04f 23e0 	mov.w	r3, #3758153728	; 0xe000e000
100059c0:	f8d3 3df0 	ldr.w	r3, [r3, #3568]	; 0xdf0
100059c4:	f013 0f01 	tst.w	r3, #1
100059c8:	d000      	beq.n	100059cc <tu_edpt_validate+0xa0>
100059ca:	be00      	bkpt	0x0000
100059cc:	2000      	movs	r0, #0
100059ce:	e7bb      	b.n	10005948 <tu_edpt_validate+0x1c>
100059d0:	2902      	cmp	r1, #2
100059d2:	d004      	beq.n	100059de <tu_edpt_validate+0xb2>
100059d4:	2340      	movs	r3, #64	; 0x40
100059d6:	4293      	cmp	r3, r2
100059d8:	d304      	bcc.n	100059e4 <tu_edpt_validate+0xb8>
100059da:	2001      	movs	r0, #1
100059dc:	e7b4      	b.n	10005948 <tu_edpt_validate+0x1c>
100059de:	f44f 6380 	mov.w	r3, #1024	; 0x400
100059e2:	e7f8      	b.n	100059d6 <tu_edpt_validate+0xaa>
100059e4:	22a0      	movs	r2, #160	; 0xa0
100059e6:	4907      	ldr	r1, [pc, #28]	; (10005a04 <tu_edpt_validate+0xd8>)
100059e8:	4807      	ldr	r0, [pc, #28]	; (10005a08 <tu_edpt_validate+0xdc>)
100059ea:	f7fd fccb 	bl	10003384 <__wrap_printf>
100059ee:	f04f 23e0 	mov.w	r3, #3758153728	; 0xe000e000
100059f2:	f8d3 3df0 	ldr.w	r3, [r3, #3568]	; 0xdf0
100059f6:	f013 0f01 	tst.w	r3, #1
100059fa:	d000      	beq.n	100059fe <tu_edpt_validate+0xd2>
100059fc:	be00      	bkpt	0x0000
100059fe:	2000      	movs	r0, #0
10005a00:	e7a2      	b.n	10005948 <tu_edpt_validate+0x1c>
10005a02:	bf00      	nop
10005a04:	1000761c 	.word	0x1000761c
10005a08:	10007444 	.word	0x10007444

10005a0c <tu_edpt_bind_driver>:
10005a0c:	440a      	add	r2, r1
10005a0e:	e004      	b.n	10005a1a <tu_edpt_bind_driver+0xe>
10005a10:	f85d fb04 	ldr.w	pc, [sp], #4
10005a14:	f891 c000 	ldrb.w	ip, [r1]
10005a18:	4461      	add	r1, ip
10005a1a:	4291      	cmp	r1, r2
10005a1c:	d21a      	bcs.n	10005a54 <tu_edpt_bind_driver+0x48>
10005a1e:	f891 c001 	ldrb.w	ip, [r1, #1]
10005a22:	f1bc 0f05 	cmp.w	ip, #5
10005a26:	d1f5      	bne.n	10005a14 <tu_edpt_bind_driver+0x8>
10005a28:	b500      	push	{lr}
10005a2a:	f891 c002 	ldrb.w	ip, [r1, #2]
10005a2e:	f00c 0e7f 	and.w	lr, ip, #127	; 0x7f
10005a32:	eb00 0e4e 	add.w	lr, r0, lr, lsl #1
10005a36:	ea4f 1cdc 	mov.w	ip, ip, lsr #7
10005a3a:	f80e 300c 	strb.w	r3, [lr, ip]
10005a3e:	f891 c000 	ldrb.w	ip, [r1]
10005a42:	4461      	add	r1, ip
10005a44:	4291      	cmp	r1, r2
10005a46:	d2e3      	bcs.n	10005a10 <tu_edpt_bind_driver+0x4>
10005a48:	f891 c001 	ldrb.w	ip, [r1, #1]
10005a4c:	f1bc 0f05 	cmp.w	ip, #5
10005a50:	d1f5      	bne.n	10005a3e <tu_edpt_bind_driver+0x32>
10005a52:	e7ea      	b.n	10005a2a <tu_edpt_bind_driver+0x1e>
10005a54:	4770      	bx	lr

10005a56 <tu_edpt_stream_init>:
10005a56:	b5f0      	push	{r4, r5, r6, r7, lr}
10005a58:	b083      	sub	sp, #12
10005a5a:	4604      	mov	r4, r0
10005a5c:	4617      	mov	r7, r2
10005a5e:	9d08      	ldr	r5, [sp, #32]
10005a60:	f8bd 6024 	ldrh.w	r6, [sp, #36]	; 0x24
10005a64:	f890 c000 	ldrb.w	ip, [r0]
10005a68:	f361 0c00 	bfi	ip, r1, #0, #1
10005a6c:	f800 cb08 	strb.w	ip, [r0], #8
10005a70:	9300      	str	r3, [sp, #0]
10005a72:	2301      	movs	r3, #1
10005a74:	4632      	mov	r2, r6
10005a76:	4629      	mov	r1, r5
10005a78:	f000 faaa 	bl	10005fd0 <tu_fifo_config>
10005a7c:	b105      	cbz	r5, 10005a80 <tu_edpt_stream_init+0x2a>
10005a7e:	b93e      	cbnz	r6, 10005a90 <tu_edpt_stream_init+0x3a>
10005a80:	9b0a      	ldr	r3, [sp, #40]	; 0x28
10005a82:	6063      	str	r3, [r4, #4]
10005a84:	f8bd 302c 	ldrh.w	r3, [sp, #44]	; 0x2c
10005a88:	8063      	strh	r3, [r4, #2]
10005a8a:	2001      	movs	r0, #1
10005a8c:	b003      	add	sp, #12
10005a8e:	bdf0      	pop	{r4, r5, r6, r7, pc}
10005a90:	f104 051c 	add.w	r5, r4, #28
10005a94:	4628      	mov	r0, r5
10005a96:	f7fb f989 	bl	10000dac <mutex_init>
10005a9a:	b12f      	cbz	r7, 10005aa8 <tu_edpt_stream_init+0x52>
10005a9c:	462b      	mov	r3, r5
10005a9e:	b107      	cbz	r7, 10005aa2 <tu_edpt_stream_init+0x4c>
10005aa0:	2500      	movs	r5, #0
10005aa2:	6163      	str	r3, [r4, #20]
10005aa4:	61a5      	str	r5, [r4, #24]
10005aa6:	e7eb      	b.n	10005a80 <tu_edpt_stream_init+0x2a>
10005aa8:	2300      	movs	r3, #0
10005aaa:	e7f8      	b.n	10005a9e <tu_edpt_stream_init+0x48>

10005aac <tu_edpt_stream_deinit>:
10005aac:	2001      	movs	r0, #1
10005aae:	4770      	bx	lr

10005ab0 <tu_edpt_stream_write_zlp_if_needed>:
10005ab0:	b5f8      	push	{r3, r4, r5, r6, r7, lr}
10005ab2:	4606      	mov	r6, r0
10005ab4:	460c      	mov	r4, r1
10005ab6:	4615      	mov	r5, r2
10005ab8:	780b      	ldrb	r3, [r1, #0]
10005aba:	f013 0f02 	tst.w	r3, #2
10005abe:	d010      	beq.n	10005ae2 <tu_edpt_stream_write_zlp_if_needed+0x32>
10005ac0:	f44f 7700 	mov.w	r7, #512	; 0x200
10005ac4:	f104 0008 	add.w	r0, r4, #8
10005ac8:	f000 fab3 	bl	10006032 <tu_fifo_count>
10005acc:	bb68      	cbnz	r0, 10005b2a <tu_edpt_stream_write_zlp_if_needed+0x7a>
10005ace:	b375      	cbz	r5, 10005b2e <tu_edpt_stream_write_zlp_if_needed+0x7e>
10005ad0:	3f01      	subs	r7, #1
10005ad2:	422f      	tst	r7, r5
10005ad4:	d12d      	bne.n	10005b32 <tu_edpt_stream_write_zlp_if_needed+0x82>
10005ad6:	7823      	ldrb	r3, [r4, #0]
10005ad8:	f013 0f01 	tst.w	r3, #1
10005adc:	d003      	beq.n	10005ae6 <tu_edpt_stream_write_zlp_if_needed+0x36>
10005ade:	2000      	movs	r0, #0
10005ae0:	e024      	b.n	10005b2c <tu_edpt_stream_write_zlp_if_needed+0x7c>
10005ae2:	2740      	movs	r7, #64	; 0x40
10005ae4:	e7ee      	b.n	10005ac4 <tu_edpt_stream_write_zlp_if_needed+0x14>
10005ae6:	7861      	ldrb	r1, [r4, #1]
10005ae8:	4630      	mov	r0, r6
10005aea:	f7fe fc49 	bl	10004380 <usbd_edpt_claim>
10005aee:	2800      	cmp	r0, #0
10005af0:	d0f5      	beq.n	10005ade <tu_edpt_stream_write_zlp_if_needed+0x2e>
10005af2:	7823      	ldrb	r3, [r4, #0]
10005af4:	f013 0f01 	tst.w	r3, #1
10005af8:	d00f      	beq.n	10005b1a <tu_edpt_stream_write_zlp_if_needed+0x6a>
10005afa:	f240 1225 	movw	r2, #293	; 0x125
10005afe:	490e      	ldr	r1, [pc, #56]	; (10005b38 <tu_edpt_stream_write_zlp_if_needed+0x88>)
10005b00:	480e      	ldr	r0, [pc, #56]	; (10005b3c <tu_edpt_stream_write_zlp_if_needed+0x8c>)
10005b02:	f7fd fc3f 	bl	10003384 <__wrap_printf>
10005b06:	f04f 23e0 	mov.w	r3, #3758153728	; 0xe000e000
10005b0a:	f8d3 3df0 	ldr.w	r3, [r3, #3568]	; 0xdf0
10005b0e:	f013 0f01 	tst.w	r3, #1
10005b12:	d000      	beq.n	10005b16 <tu_edpt_stream_write_zlp_if_needed+0x66>
10005b14:	be00      	bkpt	0x0000
10005b16:	2000      	movs	r0, #0
10005b18:	e008      	b.n	10005b2c <tu_edpt_stream_write_zlp_if_needed+0x7c>
10005b1a:	2300      	movs	r3, #0
10005b1c:	461a      	mov	r2, r3
10005b1e:	7861      	ldrb	r1, [r4, #1]
10005b20:	4630      	mov	r0, r6
10005b22:	f7fe fc55 	bl	100043d0 <usbd_edpt_xfer>
10005b26:	b908      	cbnz	r0, 10005b2c <tu_edpt_stream_write_zlp_if_needed+0x7c>
10005b28:	e7e7      	b.n	10005afa <tu_edpt_stream_write_zlp_if_needed+0x4a>
10005b2a:	2000      	movs	r0, #0
10005b2c:	bdf8      	pop	{r3, r4, r5, r6, r7, pc}
10005b2e:	2000      	movs	r0, #0
10005b30:	e7fc      	b.n	10005b2c <tu_edpt_stream_write_zlp_if_needed+0x7c>
10005b32:	2000      	movs	r0, #0
10005b34:	e7fa      	b.n	10005b2c <tu_edpt_stream_write_zlp_if_needed+0x7c>
10005b36:	bf00      	nop
10005b38:	100075f8 	.word	0x100075f8
10005b3c:	10007444 	.word	0x10007444

10005b40 <tu_edpt_stream_write_xfer>:
10005b40:	b570      	push	{r4, r5, r6, lr}
10005b42:	4606      	mov	r6, r0
10005b44:	460c      	mov	r4, r1
10005b46:	f101 0508 	add.w	r5, r1, #8
10005b4a:	4628      	mov	r0, r5
10005b4c:	f000 fa71 	bl	10006032 <tu_fifo_count>
10005b50:	2800      	cmp	r0, #0
10005b52:	d03b      	beq.n	10005bcc <tu_edpt_stream_write_xfer+0x8c>
10005b54:	7823      	ldrb	r3, [r4, #0]
10005b56:	f013 0f01 	tst.w	r3, #1
10005b5a:	d001      	beq.n	10005b60 <tu_edpt_stream_write_xfer+0x20>
10005b5c:	2000      	movs	r0, #0
10005b5e:	bd70      	pop	{r4, r5, r6, pc}
10005b60:	7861      	ldrb	r1, [r4, #1]
10005b62:	4630      	mov	r0, r6
10005b64:	f7fe fc0c 	bl	10004380 <usbd_edpt_claim>
10005b68:	2800      	cmp	r0, #0
10005b6a:	d0f7      	beq.n	10005b5c <tu_edpt_stream_write_xfer+0x1c>
10005b6c:	8862      	ldrh	r2, [r4, #2]
10005b6e:	6861      	ldr	r1, [r4, #4]
10005b70:	4628      	mov	r0, r5
10005b72:	f000 fac4 	bl	100060fe <tu_fifo_read_n>
10005b76:	4605      	mov	r5, r0
10005b78:	b1e8      	cbz	r0, 10005bb6 <tu_edpt_stream_write_xfer+0x76>
10005b7a:	7823      	ldrb	r3, [r4, #0]
10005b7c:	f013 0f01 	tst.w	r3, #1
10005b80:	d00f      	beq.n	10005ba2 <tu_edpt_stream_write_xfer+0x62>
10005b82:	f240 1233 	movw	r2, #307	; 0x133
10005b86:	4912      	ldr	r1, [pc, #72]	; (10005bd0 <tu_edpt_stream_write_xfer+0x90>)
10005b88:	4812      	ldr	r0, [pc, #72]	; (10005bd4 <tu_edpt_stream_write_xfer+0x94>)
10005b8a:	f7fd fbfb 	bl	10003384 <__wrap_printf>
10005b8e:	f04f 23e0 	mov.w	r3, #3758153728	; 0xe000e000
10005b92:	f8d3 3df0 	ldr.w	r3, [r3, #3568]	; 0xdf0
10005b96:	f013 0f01 	tst.w	r3, #1
10005b9a:	d000      	beq.n	10005b9e <tu_edpt_stream_write_xfer+0x5e>
10005b9c:	be00      	bkpt	0x0000
10005b9e:	2000      	movs	r0, #0
10005ba0:	e7dd      	b.n	10005b5e <tu_edpt_stream_write_xfer+0x1e>
10005ba2:	4603      	mov	r3, r0
10005ba4:	6862      	ldr	r2, [r4, #4]
10005ba6:	7861      	ldrb	r1, [r4, #1]
10005ba8:	4630      	mov	r0, r6
10005baa:	f7fe fc11 	bl	100043d0 <usbd_edpt_xfer>
10005bae:	2800      	cmp	r0, #0
10005bb0:	d0e7      	beq.n	10005b82 <tu_edpt_stream_write_xfer+0x42>
10005bb2:	4628      	mov	r0, r5
10005bb4:	e7d3      	b.n	10005b5e <tu_edpt_stream_write_xfer+0x1e>
10005bb6:	7823      	ldrb	r3, [r4, #0]
10005bb8:	f013 0f01 	tst.w	r3, #1
10005bbc:	d001      	beq.n	10005bc2 <tu_edpt_stream_write_xfer+0x82>
10005bbe:	2000      	movs	r0, #0
10005bc0:	e7cd      	b.n	10005b5e <tu_edpt_stream_write_xfer+0x1e>
10005bc2:	7861      	ldrb	r1, [r4, #1]
10005bc4:	4630      	mov	r0, r6
10005bc6:	f7fe fbef 	bl	100043a8 <usbd_edpt_release>
10005bca:	e7f8      	b.n	10005bbe <tu_edpt_stream_write_xfer+0x7e>
10005bcc:	2000      	movs	r0, #0
10005bce:	e7c6      	b.n	10005b5e <tu_edpt_stream_write_xfer+0x1e>
10005bd0:	100075dc 	.word	0x100075dc
10005bd4:	10007444 	.word	0x10007444

10005bd8 <tu_edpt_stream_read_xfer>:
10005bd8:	b5f8      	push	{r3, r4, r5, r6, r7, lr}
10005bda:	4606      	mov	r6, r0
10005bdc:	460c      	mov	r4, r1
10005bde:	898b      	ldrh	r3, [r1, #12]
10005be0:	bb5b      	cbnz	r3, 10005c3a <tu_edpt_stream_read_xfer+0x62>
10005be2:	780b      	ldrb	r3, [r1, #0]
10005be4:	f013 0f01 	tst.w	r3, #1
10005be8:	d001      	beq.n	10005bee <tu_edpt_stream_read_xfer+0x16>
10005bea:	2000      	movs	r0, #0
10005bec:	bdf8      	pop	{r3, r4, r5, r6, r7, pc}
10005bee:	7849      	ldrb	r1, [r1, #1]
10005bf0:	f7fe fbc6 	bl	10004380 <usbd_edpt_claim>
10005bf4:	2800      	cmp	r0, #0
10005bf6:	d0f8      	beq.n	10005bea <tu_edpt_stream_read_xfer+0x12>
10005bf8:	8863      	ldrh	r3, [r4, #2]
10005bfa:	7822      	ldrb	r2, [r4, #0]
10005bfc:	f012 0f01 	tst.w	r2, #1
10005c00:	d00f      	beq.n	10005c22 <tu_edpt_stream_read_xfer+0x4a>
10005c02:	f240 126d 	movw	r2, #365	; 0x16d
10005c06:	4938      	ldr	r1, [pc, #224]	; (10005ce8 <tu_edpt_stream_read_xfer+0x110>)
10005c08:	4838      	ldr	r0, [pc, #224]	; (10005cec <tu_edpt_stream_read_xfer+0x114>)
10005c0a:	f7fd fbbb 	bl	10003384 <__wrap_printf>
10005c0e:	f04f 23e0 	mov.w	r3, #3758153728	; 0xe000e000
10005c12:	f8d3 3df0 	ldr.w	r3, [r3, #3568]	; 0xdf0
10005c16:	f013 0f01 	tst.w	r3, #1
10005c1a:	d000      	beq.n	10005c1e <tu_edpt_stream_read_xfer+0x46>
10005c1c:	be00      	bkpt	0x0000
10005c1e:	2000      	movs	r0, #0
10005c20:	e7e4      	b.n	10005bec <tu_edpt_stream_read_xfer+0x14>
10005c22:	7861      	ldrb	r1, [r4, #1]
10005c24:	b13b      	cbz	r3, 10005c36 <tu_edpt_stream_read_xfer+0x5e>
10005c26:	6862      	ldr	r2, [r4, #4]
10005c28:	4630      	mov	r0, r6
10005c2a:	f7fe fbd1 	bl	100043d0 <usbd_edpt_xfer>
10005c2e:	2800      	cmp	r0, #0
10005c30:	d0e7      	beq.n	10005c02 <tu_edpt_stream_read_xfer+0x2a>
10005c32:	8860      	ldrh	r0, [r4, #2]
10005c34:	e7da      	b.n	10005bec <tu_edpt_stream_read_xfer+0x14>
10005c36:	2200      	movs	r2, #0
10005c38:	e7f6      	b.n	10005c28 <tu_edpt_stream_read_xfer+0x50>
10005c3a:	780b      	ldrb	r3, [r1, #0]
10005c3c:	f013 0f02 	tst.w	r3, #2
10005c40:	d00e      	beq.n	10005c60 <tu_edpt_stream_read_xfer+0x88>
10005c42:	f44f 7500 	mov.w	r5, #512	; 0x200
10005c46:	f104 0708 	add.w	r7, r4, #8
10005c4a:	4638      	mov	r0, r7
10005c4c:	f000 fa22 	bl	10006094 <tu_fifo_remaining>
10005c50:	4285      	cmp	r5, r0
10005c52:	d846      	bhi.n	10005ce2 <tu_edpt_stream_read_xfer+0x10a>
10005c54:	7823      	ldrb	r3, [r4, #0]
10005c56:	f013 0f01 	tst.w	r3, #1
10005c5a:	d003      	beq.n	10005c64 <tu_edpt_stream_read_xfer+0x8c>
10005c5c:	2000      	movs	r0, #0
10005c5e:	e7c5      	b.n	10005bec <tu_edpt_stream_read_xfer+0x14>
10005c60:	2540      	movs	r5, #64	; 0x40
10005c62:	e7f0      	b.n	10005c46 <tu_edpt_stream_read_xfer+0x6e>
10005c64:	7861      	ldrb	r1, [r4, #1]
10005c66:	4630      	mov	r0, r6
10005c68:	f7fe fb8a 	bl	10004380 <usbd_edpt_claim>
10005c6c:	2800      	cmp	r0, #0
10005c6e:	d0f5      	beq.n	10005c5c <tu_edpt_stream_read_xfer+0x84>
10005c70:	4638      	mov	r0, r7
10005c72:	f000 fa0f 	bl	10006094 <tu_fifo_remaining>
10005c76:	4285      	cmp	r5, r0
10005c78:	d828      	bhi.n	10005ccc <tu_edpt_stream_read_xfer+0xf4>
10005c7a:	426d      	negs	r5, r5
10005c7c:	4005      	ands	r5, r0
10005c7e:	b2a8      	uxth	r0, r5
10005c80:	8863      	ldrh	r3, [r4, #2]
10005c82:	4283      	cmp	r3, r0
10005c84:	bf28      	it	cs
10005c86:	4603      	movcs	r3, r0
10005c88:	461d      	mov	r5, r3
10005c8a:	7823      	ldrb	r3, [r4, #0]
10005c8c:	f013 0f01 	tst.w	r3, #1
10005c90:	d00f      	beq.n	10005cb2 <tu_edpt_stream_read_xfer+0xda>
10005c92:	f44f 72c1 	mov.w	r2, #386	; 0x182
10005c96:	4914      	ldr	r1, [pc, #80]	; (10005ce8 <tu_edpt_stream_read_xfer+0x110>)
10005c98:	4814      	ldr	r0, [pc, #80]	; (10005cec <tu_edpt_stream_read_xfer+0x114>)
10005c9a:	f7fd fb73 	bl	10003384 <__wrap_printf>
10005c9e:	f04f 23e0 	mov.w	r3, #3758153728	; 0xe000e000
10005ca2:	f8d3 3df0 	ldr.w	r3, [r3, #3568]	; 0xdf0
10005ca6:	f013 0f01 	tst.w	r3, #1
10005caa:	d000      	beq.n	10005cae <tu_edpt_stream_read_xfer+0xd6>
10005cac:	be00      	bkpt	0x0000
10005cae:	2000      	movs	r0, #0
10005cb0:	e79c      	b.n	10005bec <tu_edpt_stream_read_xfer+0x14>
10005cb2:	7861      	ldrb	r1, [r4, #1]
10005cb4:	b145      	cbz	r5, 10005cc8 <tu_edpt_stream_read_xfer+0xf0>
10005cb6:	6862      	ldr	r2, [r4, #4]
10005cb8:	462b      	mov	r3, r5
10005cba:	4630      	mov	r0, r6
10005cbc:	f7fe fb88 	bl	100043d0 <usbd_edpt_xfer>
10005cc0:	2800      	cmp	r0, #0
10005cc2:	d0e6      	beq.n	10005c92 <tu_edpt_stream_read_xfer+0xba>
10005cc4:	4628      	mov	r0, r5
10005cc6:	e791      	b.n	10005bec <tu_edpt_stream_read_xfer+0x14>
10005cc8:	2200      	movs	r2, #0
10005cca:	e7f5      	b.n	10005cb8 <tu_edpt_stream_read_xfer+0xe0>
10005ccc:	7823      	ldrb	r3, [r4, #0]
10005cce:	f013 0f01 	tst.w	r3, #1
10005cd2:	d001      	beq.n	10005cd8 <tu_edpt_stream_read_xfer+0x100>
10005cd4:	2000      	movs	r0, #0
10005cd6:	e789      	b.n	10005bec <tu_edpt_stream_read_xfer+0x14>
10005cd8:	7861      	ldrb	r1, [r4, #1]
10005cda:	4630      	mov	r0, r6
10005cdc:	f7fe fb64 	bl	100043a8 <usbd_edpt_release>
10005ce0:	e7f8      	b.n	10005cd4 <tu_edpt_stream_read_xfer+0xfc>
10005ce2:	2000      	movs	r0, #0
10005ce4:	e782      	b.n	10005bec <tu_edpt_stream_read_xfer+0x14>
10005ce6:	bf00      	nop
10005ce8:	100075c0 	.word	0x100075c0
10005cec:	10007444 	.word	0x10007444

10005cf0 <advance_index>:
10005cf0:	4603      	mov	r3, r0
10005cf2:	440a      	add	r2, r1
10005cf4:	b290      	uxth	r0, r2
10005cf6:	4281      	cmp	r1, r0
10005cf8:	d802      	bhi.n	10005d00 <advance_index+0x10>
10005cfa:	ebb0 0f43 	cmp.w	r0, r3, lsl #1
10005cfe:	db03      	blt.n	10005d08 <advance_index+0x18>
10005d00:	005b      	lsls	r3, r3, #1
10005d02:	b29b      	uxth	r3, r3
10005d04:	1ac0      	subs	r0, r0, r3
10005d06:	b280      	uxth	r0, r0
10005d08:	4770      	bx	lr

10005d0a <_tu_fifo_peek>:
10005d0a:	b510      	push	{r4, lr}
10005d0c:	4686      	mov	lr, r0
10005d0e:	4608      	mov	r0, r1
10005d10:	f8be c004 	ldrh.w	ip, [lr, #4]
10005d14:	429a      	cmp	r2, r3
10005d16:	d30c      	bcc.n	10005d32 <_tu_fifo_peek+0x28>
10005d18:	1ad4      	subs	r4, r2, r3
10005d1a:	b2a4      	uxth	r4, r4
10005d1c:	b32c      	cbz	r4, 10005d6a <_tu_fifo_peek+0x60>
10005d1e:	45a4      	cmp	ip, r4
10005d20:	d215      	bcs.n	10005d4e <_tu_fifo_peek+0x44>
10005d22:	4594      	cmp	ip, r2
10005d24:	d80c      	bhi.n	10005d40 <_tu_fifo_peek+0x36>
10005d26:	eba2 030c 	sub.w	r3, r2, ip
10005d2a:	b29b      	uxth	r3, r3
10005d2c:	f8ae 300a 	strh.w	r3, [lr, #10]
10005d30:	e00d      	b.n	10005d4e <_tu_fifo_peek+0x44>
10005d32:	1ad4      	subs	r4, r2, r3
10005d34:	ea4f 014c 	mov.w	r1, ip, lsl #1
10005d38:	fa11 f484 	uxtah	r4, r1, r4
10005d3c:	b2a4      	uxth	r4, r4
10005d3e:	e7ed      	b.n	10005d1c <_tu_fifo_peek+0x12>
10005d40:	eb0c 0302 	add.w	r3, ip, r2
10005d44:	b29b      	uxth	r3, r3
10005d46:	e7f1      	b.n	10005d2c <_tu_fifo_peek+0x22>
10005d48:	eba3 030c 	sub.w	r3, r3, ip
10005d4c:	b29b      	uxth	r3, r3
10005d4e:	459c      	cmp	ip, r3
10005d50:	d9fa      	bls.n	10005d48 <_tu_fifo_peek+0x3e>
10005d52:	f8de 1000 	ldr.w	r1, [lr]
10005d56:	f8be 2006 	ldrh.w	r2, [lr, #6]
10005d5a:	f3c2 020e 	ubfx	r2, r2, #0, #15
10005d5e:	fb02 1103 	mla	r1, r2, r3, r1
10005d62:	f000 fbe9 	bl	10006538 <memcpy>
10005d66:	2001      	movs	r0, #1
10005d68:	bd10      	pop	{r4, pc}
10005d6a:	2000      	movs	r0, #0
10005d6c:	e7fc      	b.n	10005d68 <_tu_fifo_peek+0x5e>

10005d6e <_ff_pull_n>:
10005d6e:	e92d 41f0 	stmdb	sp!, {r4, r5, r6, r7, r8, lr}
10005d72:	4606      	mov	r6, r0
10005d74:	460f      	mov	r7, r1
10005d76:	f89d e018 	ldrb.w	lr, [sp, #24]
10005d7a:	f8b0 c004 	ldrh.w	ip, [r0, #4]
10005d7e:	ebac 0503 	sub.w	r5, ip, r3
10005d82:	fa1f f885 	uxth.w	r8, r5
10005d86:	eba3 0c0c 	sub.w	ip, r3, ip
10005d8a:	4494      	add	ip, r2
10005d8c:	88c0      	ldrh	r0, [r0, #6]
10005d8e:	f3c0 010e 	ubfx	r1, r0, #0, #15
10005d92:	4608      	mov	r0, r1
10005d94:	fb15 f501 	smulbb	r5, r5, r1
10005d98:	fb1c fc01 	smulbb	ip, ip, r1
10005d9c:	6831      	ldr	r1, [r6, #0]
10005d9e:	fb00 1103 	mla	r1, r0, r3, r1
10005da2:	f1be 0f00 	cmp.w	lr, #0
10005da6:	d109      	bne.n	10005dbc <_ff_pull_n+0x4e>
10005da8:	b2ad      	uxth	r5, r5
10005daa:	fa1f f48c 	uxth.w	r4, ip
10005dae:	4590      	cmp	r8, r2
10005db0:	d306      	bcc.n	10005dc0 <_ff_pull_n+0x52>
10005db2:	fb00 f202 	mul.w	r2, r0, r2
10005db6:	4638      	mov	r0, r7
10005db8:	f000 fbbe 	bl	10006538 <memcpy>
10005dbc:	e8bd 81f0 	ldmia.w	sp!, {r4, r5, r6, r7, r8, pc}
10005dc0:	462a      	mov	r2, r5
10005dc2:	4638      	mov	r0, r7
10005dc4:	f000 fbb8 	bl	10006538 <memcpy>
10005dc8:	4622      	mov	r2, r4
10005dca:	6831      	ldr	r1, [r6, #0]
10005dcc:	1978      	adds	r0, r7, r5
10005dce:	f000 fbb3 	bl	10006538 <memcpy>
10005dd2:	e7f3      	b.n	10005dbc <_ff_pull_n+0x4e>

10005dd4 <_tu_fifo_peek_n>:
10005dd4:	b530      	push	{r4, r5, lr}
10005dd6:	b083      	sub	sp, #12
10005dd8:	469e      	mov	lr, r3
10005dda:	f8bd 3018 	ldrh.w	r3, [sp, #24]
10005dde:	f8b0 c004 	ldrh.w	ip, [r0, #4]
10005de2:	459e      	cmp	lr, r3
10005de4:	d310      	bcc.n	10005e08 <_tu_fifo_peek_n+0x34>
10005de6:	ebae 0403 	sub.w	r4, lr, r3
10005dea:	b2a4      	uxth	r4, r4
10005dec:	b31c      	cbz	r4, 10005e36 <_tu_fifo_peek_n+0x62>
10005dee:	45a4      	cmp	ip, r4
10005df0:	d206      	bcs.n	10005e00 <_tu_fifo_peek_n+0x2c>
10005df2:	45f4      	cmp	ip, lr
10005df4:	d810      	bhi.n	10005e18 <_tu_fifo_peek_n+0x44>
10005df6:	ebae 030c 	sub.w	r3, lr, ip
10005dfa:	b29b      	uxth	r3, r3
10005dfc:	8143      	strh	r3, [r0, #10]
10005dfe:	4664      	mov	r4, ip
10005e00:	4294      	cmp	r4, r2
10005e02:	d310      	bcc.n	10005e26 <_tu_fifo_peek_n+0x52>
10005e04:	4614      	mov	r4, r2
10005e06:	e00e      	b.n	10005e26 <_tu_fifo_peek_n+0x52>
10005e08:	ebae 0403 	sub.w	r4, lr, r3
10005e0c:	ea4f 054c 	mov.w	r5, ip, lsl #1
10005e10:	fa15 f484 	uxtah	r4, r5, r4
10005e14:	b2a4      	uxth	r4, r4
10005e16:	e7e9      	b.n	10005dec <_tu_fifo_peek_n+0x18>
10005e18:	eb0c 030e 	add.w	r3, ip, lr
10005e1c:	b29b      	uxth	r3, r3
10005e1e:	e7ed      	b.n	10005dfc <_tu_fifo_peek_n+0x28>
10005e20:	eba3 030c 	sub.w	r3, r3, ip
10005e24:	b29b      	uxth	r3, r3
10005e26:	459c      	cmp	ip, r3
10005e28:	d9fa      	bls.n	10005e20 <_tu_fifo_peek_n+0x4c>
10005e2a:	f89d 201c 	ldrb.w	r2, [sp, #28]
10005e2e:	9200      	str	r2, [sp, #0]
10005e30:	4622      	mov	r2, r4
10005e32:	f7ff ff9c 	bl	10005d6e <_ff_pull_n>
10005e36:	4620      	mov	r0, r4
10005e38:	b003      	add	sp, #12
10005e3a:	bd30      	pop	{r4, r5, pc}

10005e3c <_tu_fifo_read_n>:
10005e3c:	b5f0      	push	{r4, r5, r6, r7, lr}
10005e3e:	b083      	sub	sp, #12
10005e40:	4604      	mov	r4, r0
10005e42:	460d      	mov	r5, r1
10005e44:	4616      	mov	r6, r2
10005e46:	461f      	mov	r7, r3
10005e48:	6900      	ldr	r0, [r0, #16]
10005e4a:	b118      	cbz	r0, 10005e54 <_tu_fifo_read_n+0x18>
10005e4c:	f04f 31ff 	mov.w	r1, #4294967295
10005e50:	f000 fc92 	bl	10006778 <__mutex_enter_timeout_ms_veneer>
10005e54:	8923      	ldrh	r3, [r4, #8]
10005e56:	8962      	ldrh	r2, [r4, #10]
10005e58:	b292      	uxth	r2, r2
10005e5a:	9701      	str	r7, [sp, #4]
10005e5c:	9200      	str	r2, [sp, #0]
10005e5e:	b29b      	uxth	r3, r3
10005e60:	4632      	mov	r2, r6
10005e62:	4629      	mov	r1, r5
10005e64:	4620      	mov	r0, r4
10005e66:	f7ff ffb5 	bl	10005dd4 <_tu_fifo_peek_n>
10005e6a:	4605      	mov	r5, r0
10005e6c:	8961      	ldrh	r1, [r4, #10]
10005e6e:	4602      	mov	r2, r0
10005e70:	b289      	uxth	r1, r1
10005e72:	88a0      	ldrh	r0, [r4, #4]
10005e74:	f7ff ff3c 	bl	10005cf0 <advance_index>
10005e78:	8160      	strh	r0, [r4, #10]
10005e7a:	6920      	ldr	r0, [r4, #16]
10005e7c:	b108      	cbz	r0, 10005e82 <_tu_fifo_read_n+0x46>
10005e7e:	f000 fc63 	bl	10006748 <__mutex_exit_veneer>
10005e82:	4628      	mov	r0, r5
10005e84:	b003      	add	sp, #12
10005e86:	bdf0      	pop	{r4, r5, r6, r7, pc}

10005e88 <_ff_push_n>:
10005e88:	e92d 41f0 	stmdb	sp!, {r4, r5, r6, r7, r8, lr}
10005e8c:	4606      	mov	r6, r0
10005e8e:	460f      	mov	r7, r1
10005e90:	f89d e018 	ldrb.w	lr, [sp, #24]
10005e94:	f8b0 c004 	ldrh.w	ip, [r0, #4]
10005e98:	ebac 0503 	sub.w	r5, ip, r3
10005e9c:	fa1f f885 	uxth.w	r8, r5
10005ea0:	eba3 0c0c 	sub.w	ip, r3, ip
10005ea4:	4494      	add	ip, r2
10005ea6:	88c1      	ldrh	r1, [r0, #6]
10005ea8:	f3c1 000e 	ubfx	r0, r1, #0, #15
10005eac:	4601      	mov	r1, r0
10005eae:	fb15 f500 	smulbb	r5, r5, r0
10005eb2:	fb1c fc00 	smulbb	ip, ip, r0
10005eb6:	6830      	ldr	r0, [r6, #0]
10005eb8:	fb01 0003 	mla	r0, r1, r3, r0
10005ebc:	f1be 0f00 	cmp.w	lr, #0
10005ec0:	d109      	bne.n	10005ed6 <_ff_push_n+0x4e>
10005ec2:	b2ad      	uxth	r5, r5
10005ec4:	fa1f f48c 	uxth.w	r4, ip
10005ec8:	4590      	cmp	r8, r2
10005eca:	d306      	bcc.n	10005eda <_ff_push_n+0x52>
10005ecc:	fb01 f202 	mul.w	r2, r1, r2
10005ed0:	4639      	mov	r1, r7
10005ed2:	f000 fb31 	bl	10006538 <memcpy>
10005ed6:	e8bd 81f0 	ldmia.w	sp!, {r4, r5, r6, r7, r8, pc}
10005eda:	462a      	mov	r2, r5
10005edc:	4639      	mov	r1, r7
10005ede:	f000 fb2b 	bl	10006538 <memcpy>
10005ee2:	4622      	mov	r2, r4
10005ee4:	1979      	adds	r1, r7, r5
10005ee6:	6830      	ldr	r0, [r6, #0]
10005ee8:	f000 fb26 	bl	10006538 <memcpy>
10005eec:	e7f3      	b.n	10005ed6 <_ff_push_n+0x4e>

10005eee <_tu_fifo_write_n>:
10005eee:	e92d 43f0 	stmdb	sp!, {r4, r5, r6, r7, r8, r9, lr}
10005ef2:	b083      	sub	sp, #12
10005ef4:	4691      	mov	r9, r2
10005ef6:	2a00      	cmp	r2, #0
10005ef8:	d068      	beq.n	10005fcc <_tu_fifo_write_n+0xde>
10005efa:	4604      	mov	r4, r0
10005efc:	4688      	mov	r8, r1
10005efe:	461f      	mov	r7, r3
10005f00:	68c0      	ldr	r0, [r0, #12]
10005f02:	b118      	cbz	r0, 10005f0c <_tu_fifo_write_n+0x1e>
10005f04:	f04f 31ff 	mov.w	r1, #4294967295
10005f08:	f000 fc36 	bl	10006778 <__mutex_enter_timeout_ms_veneer>
10005f0c:	8926      	ldrh	r6, [r4, #8]
10005f0e:	b2b6      	uxth	r6, r6
10005f10:	8961      	ldrh	r1, [r4, #10]
10005f12:	b289      	uxth	r1, r1
10005f14:	79e3      	ldrb	r3, [r4, #7]
10005f16:	09db      	lsrs	r3, r3, #7
10005f18:	d118      	bne.n	10005f4c <_tu_fifo_write_n+0x5e>
10005f1a:	88a3      	ldrh	r3, [r4, #4]
10005f1c:	428e      	cmp	r6, r1
10005f1e:	d30d      	bcc.n	10005f3c <_tu_fifo_write_n+0x4e>
10005f20:	1a75      	subs	r5, r6, r1
10005f22:	b2ad      	uxth	r5, r5
10005f24:	42ab      	cmp	r3, r5
10005f26:	d90f      	bls.n	10005f48 <_tu_fifo_write_n+0x5a>
10005f28:	1b5d      	subs	r5, r3, r5
10005f2a:	b2ad      	uxth	r5, r5
10005f2c:	454d      	cmp	r5, r9
10005f2e:	bf28      	it	cs
10005f30:	464d      	movcs	r5, r9
10005f32:	2d00      	cmp	r5, #0
10005f34:	d042      	beq.n	10005fbc <_tu_fifo_write_n+0xce>
10005f36:	88a2      	ldrh	r2, [r4, #4]
10005f38:	4633      	mov	r3, r6
10005f3a:	e031      	b.n	10005fa0 <_tu_fifo_write_n+0xb2>
10005f3c:	1a75      	subs	r5, r6, r1
10005f3e:	0059      	lsls	r1, r3, #1
10005f40:	fa11 f585 	uxtah	r5, r1, r5
10005f44:	b2ad      	uxth	r5, r5
10005f46:	e7ed      	b.n	10005f24 <_tu_fifo_write_n+0x36>
10005f48:	2500      	movs	r5, #0
10005f4a:	e7ef      	b.n	10005f2c <_tu_fifo_write_n+0x3e>
10005f4c:	88a5      	ldrh	r5, [r4, #4]
10005f4e:	454d      	cmp	r5, r9
10005f50:	d809      	bhi.n	10005f66 <_tu_fifo_write_n+0x78>
10005f52:	b9ff      	cbnz	r7, 10005f94 <_tu_fifo_write_n+0xa6>
10005f54:	eba9 0905 	sub.w	r9, r9, r5
10005f58:	88e3      	ldrh	r3, [r4, #6]
10005f5a:	f3c3 030e 	ubfx	r3, r3, #0, #15
10005f5e:	fb03 8809 	mla	r8, r3, r9, r8
10005f62:	460e      	mov	r6, r1
10005f64:	e7e5      	b.n	10005f32 <_tu_fifo_write_n+0x44>
10005f66:	428e      	cmp	r6, r1
10005f68:	d30e      	bcc.n	10005f88 <_tu_fifo_write_n+0x9a>
10005f6a:	1a73      	subs	r3, r6, r1
10005f6c:	b29b      	uxth	r3, r3
10005f6e:	444b      	add	r3, r9
10005f70:	ebb3 0f45 	cmp.w	r3, r5, lsl #1
10005f74:	db10      	blt.n	10005f98 <_tu_fifo_write_n+0xaa>
10005f76:	eba5 0209 	sub.w	r2, r5, r9
10005f7a:	b292      	uxth	r2, r2
10005f7c:	4628      	mov	r0, r5
10005f7e:	f7ff feb7 	bl	10005cf0 <advance_index>
10005f82:	4606      	mov	r6, r0
10005f84:	464d      	mov	r5, r9
10005f86:	e7d4      	b.n	10005f32 <_tu_fifo_write_n+0x44>
10005f88:	1a73      	subs	r3, r6, r1
10005f8a:	006a      	lsls	r2, r5, #1
10005f8c:	fa12 f383 	uxtah	r3, r2, r3
10005f90:	b29b      	uxth	r3, r3
10005f92:	e7ec      	b.n	10005f6e <_tu_fifo_write_n+0x80>
10005f94:	460e      	mov	r6, r1
10005f96:	e7cc      	b.n	10005f32 <_tu_fifo_write_n+0x44>
10005f98:	464d      	mov	r5, r9
10005f9a:	e7ca      	b.n	10005f32 <_tu_fifo_write_n+0x44>
10005f9c:	1a9b      	subs	r3, r3, r2
10005f9e:	b29b      	uxth	r3, r3
10005fa0:	429a      	cmp	r2, r3
10005fa2:	d9fb      	bls.n	10005f9c <_tu_fifo_write_n+0xae>
10005fa4:	9700      	str	r7, [sp, #0]
10005fa6:	462a      	mov	r2, r5
10005fa8:	4641      	mov	r1, r8
10005faa:	4620      	mov	r0, r4
10005fac:	f7ff ff6c 	bl	10005e88 <_ff_push_n>
10005fb0:	462a      	mov	r2, r5
10005fb2:	4631      	mov	r1, r6
10005fb4:	88a0      	ldrh	r0, [r4, #4]
10005fb6:	f7ff fe9b 	bl	10005cf0 <advance_index>
10005fba:	8120      	strh	r0, [r4, #8]
10005fbc:	68e0      	ldr	r0, [r4, #12]
10005fbe:	b108      	cbz	r0, 10005fc4 <_tu_fifo_write_n+0xd6>
10005fc0:	f000 fbc2 	bl	10006748 <__mutex_exit_veneer>
10005fc4:	4628      	mov	r0, r5
10005fc6:	b003      	add	sp, #12
10005fc8:	e8bd 83f0 	ldmia.w	sp!, {r4, r5, r6, r7, r8, r9, pc}
10005fcc:	4615      	mov	r5, r2
10005fce:	e7f9      	b.n	10005fc4 <_tu_fifo_write_n+0xd6>

10005fd0 <tu_fifo_config>:
10005fd0:	f5b2 4f00 	cmp.w	r2, #32768	; 0x8000
10005fd4:	d829      	bhi.n	1000602a <tu_fifo_config+0x5a>
10005fd6:	b5f8      	push	{r3, r4, r5, r6, r7, lr}
10005fd8:	4604      	mov	r4, r0
10005fda:	460f      	mov	r7, r1
10005fdc:	4615      	mov	r5, r2
10005fde:	461e      	mov	r6, r3
10005fe0:	68c0      	ldr	r0, [r0, #12]
10005fe2:	b118      	cbz	r0, 10005fec <tu_fifo_config+0x1c>
10005fe4:	f04f 31ff 	mov.w	r1, #4294967295
10005fe8:	f000 fbc6 	bl	10006778 <__mutex_enter_timeout_ms_veneer>
10005fec:	6920      	ldr	r0, [r4, #16]
10005fee:	b118      	cbz	r0, 10005ff8 <tu_fifo_config+0x28>
10005ff0:	f04f 31ff 	mov.w	r1, #4294967295
10005ff4:	f000 fbc0 	bl	10006778 <__mutex_enter_timeout_ms_veneer>
10005ff8:	6027      	str	r7, [r4, #0]
10005ffa:	80a5      	strh	r5, [r4, #4]
10005ffc:	88e3      	ldrh	r3, [r4, #6]
10005ffe:	f366 030e 	bfi	r3, r6, #0, #15
10006002:	80e3      	strh	r3, [r4, #6]
10006004:	79e3      	ldrb	r3, [r4, #7]
10006006:	f89d 2018 	ldrb.w	r2, [sp, #24]
1000600a:	f362 13c7 	bfi	r3, r2, #7, #1
1000600e:	71e3      	strb	r3, [r4, #7]
10006010:	2300      	movs	r3, #0
10006012:	8163      	strh	r3, [r4, #10]
10006014:	8123      	strh	r3, [r4, #8]
10006016:	68e0      	ldr	r0, [r4, #12]
10006018:	b108      	cbz	r0, 1000601e <tu_fifo_config+0x4e>
1000601a:	f000 fb95 	bl	10006748 <__mutex_exit_veneer>
1000601e:	6920      	ldr	r0, [r4, #16]
10006020:	b128      	cbz	r0, 1000602e <tu_fifo_config+0x5e>
10006022:	f000 fb91 	bl	10006748 <__mutex_exit_veneer>
10006026:	2001      	movs	r0, #1
10006028:	bdf8      	pop	{r3, r4, r5, r6, r7, pc}
1000602a:	2000      	movs	r0, #0
1000602c:	4770      	bx	lr
1000602e:	2001      	movs	r0, #1
10006030:	e7fa      	b.n	10006028 <tu_fifo_config+0x58>

10006032 <tu_fifo_count>:
10006032:	4602      	mov	r2, r0
10006034:	8880      	ldrh	r0, [r0, #4]
10006036:	8913      	ldrh	r3, [r2, #8]
10006038:	b29b      	uxth	r3, r3
1000603a:	8952      	ldrh	r2, [r2, #10]
1000603c:	b292      	uxth	r2, r2
1000603e:	4293      	cmp	r3, r2
10006040:	d305      	bcc.n	1000604e <tu_fifo_count+0x1c>
10006042:	1a9b      	subs	r3, r3, r2
10006044:	b29b      	uxth	r3, r3
10006046:	4298      	cmp	r0, r3
10006048:	bf28      	it	cs
1000604a:	4618      	movcs	r0, r3
1000604c:	4770      	bx	lr
1000604e:	1a9b      	subs	r3, r3, r2
10006050:	0042      	lsls	r2, r0, #1
10006052:	fa12 f383 	uxtah	r3, r2, r3
10006056:	b29b      	uxth	r3, r3
10006058:	e7f5      	b.n	10006046 <tu_fifo_count+0x14>

1000605a <tu_fifo_empty>:
1000605a:	8902      	ldrh	r2, [r0, #8]
1000605c:	b292      	uxth	r2, r2
1000605e:	8943      	ldrh	r3, [r0, #10]
10006060:	b29b      	uxth	r3, r3
10006062:	429a      	cmp	r2, r3
10006064:	bf14      	ite	ne
10006066:	2000      	movne	r0, #0
10006068:	2001      	moveq	r0, #1
1000606a:	4770      	bx	lr

1000606c <tu_fifo_full>:
1000606c:	8881      	ldrh	r1, [r0, #4]
1000606e:	8903      	ldrh	r3, [r0, #8]
10006070:	b29b      	uxth	r3, r3
10006072:	8942      	ldrh	r2, [r0, #10]
10006074:	b292      	uxth	r2, r2
10006076:	4293      	cmp	r3, r2
10006078:	d306      	bcc.n	10006088 <tu_fifo_full+0x1c>
1000607a:	1a9b      	subs	r3, r3, r2
1000607c:	b298      	uxth	r0, r3
1000607e:	4281      	cmp	r1, r0
10006080:	bf8c      	ite	hi
10006082:	2000      	movhi	r0, #0
10006084:	2001      	movls	r0, #1
10006086:	4770      	bx	lr
10006088:	1a9b      	subs	r3, r3, r2
1000608a:	0048      	lsls	r0, r1, #1
1000608c:	fa10 f383 	uxtah	r3, r0, r3
10006090:	b298      	uxth	r0, r3
10006092:	e7f4      	b.n	1000607e <tu_fifo_full+0x12>

10006094 <tu_fifo_remaining>:
10006094:	8882      	ldrh	r2, [r0, #4]
10006096:	8903      	ldrh	r3, [r0, #8]
10006098:	b29b      	uxth	r3, r3
1000609a:	8940      	ldrh	r0, [r0, #10]
1000609c:	b280      	uxth	r0, r0
1000609e:	4283      	cmp	r3, r0
100060a0:	d306      	bcc.n	100060b0 <tu_fifo_remaining+0x1c>
100060a2:	1a1b      	subs	r3, r3, r0
100060a4:	b29b      	uxth	r3, r3
100060a6:	429a      	cmp	r2, r3
100060a8:	d908      	bls.n	100060bc <tu_fifo_remaining+0x28>
100060aa:	1ad3      	subs	r3, r2, r3
100060ac:	b298      	uxth	r0, r3
100060ae:	4770      	bx	lr
100060b0:	1a1b      	subs	r3, r3, r0
100060b2:	0050      	lsls	r0, r2, #1
100060b4:	fa10 f383 	uxtah	r3, r0, r3
100060b8:	b29b      	uxth	r3, r3
100060ba:	e7f4      	b.n	100060a6 <tu_fifo_remaining+0x12>
100060bc:	2000      	movs	r0, #0
100060be:	4770      	bx	lr

100060c0 <tu_fifo_read>:
100060c0:	b538      	push	{r3, r4, r5, lr}
100060c2:	4604      	mov	r4, r0
100060c4:	460d      	mov	r5, r1
100060c6:	6900      	ldr	r0, [r0, #16]
100060c8:	b118      	cbz	r0, 100060d2 <tu_fifo_read+0x12>
100060ca:	f04f 31ff 	mov.w	r1, #4294967295
100060ce:	f000 fb53 	bl	10006778 <__mutex_enter_timeout_ms_veneer>
100060d2:	8922      	ldrh	r2, [r4, #8]
100060d4:	8963      	ldrh	r3, [r4, #10]
100060d6:	b29b      	uxth	r3, r3
100060d8:	b292      	uxth	r2, r2
100060da:	4629      	mov	r1, r5
100060dc:	4620      	mov	r0, r4
100060de:	f7ff fe14 	bl	10005d0a <_tu_fifo_peek>
100060e2:	4605      	mov	r5, r0
100060e4:	8961      	ldrh	r1, [r4, #10]
100060e6:	b282      	uxth	r2, r0
100060e8:	b289      	uxth	r1, r1
100060ea:	88a0      	ldrh	r0, [r4, #4]
100060ec:	f7ff fe00 	bl	10005cf0 <advance_index>
100060f0:	8160      	strh	r0, [r4, #10]
100060f2:	6920      	ldr	r0, [r4, #16]
100060f4:	b108      	cbz	r0, 100060fa <tu_fifo_read+0x3a>
100060f6:	f000 fb27 	bl	10006748 <__mutex_exit_veneer>
100060fa:	4628      	mov	r0, r5
100060fc:	bd38      	pop	{r3, r4, r5, pc}

100060fe <tu_fifo_read_n>:
100060fe:	b508      	push	{r3, lr}
10006100:	2300      	movs	r3, #0
10006102:	f7ff fe9b 	bl	10005e3c <_tu_fifo_read_n>
10006106:	bd08      	pop	{r3, pc}

10006108 <tu_fifo_write>:
10006108:	b5f8      	push	{r3, r4, r5, r6, r7, lr}
1000610a:	4604      	mov	r4, r0
1000610c:	460e      	mov	r6, r1
1000610e:	68c0      	ldr	r0, [r0, #12]
10006110:	b118      	cbz	r0, 1000611a <tu_fifo_write+0x12>
10006112:	f04f 31ff 	mov.w	r1, #4294967295
10006116:	f000 fb2f 	bl	10006778 <__mutex_enter_timeout_ms_veneer>
1000611a:	8925      	ldrh	r5, [r4, #8]
1000611c:	b2ad      	uxth	r5, r5
1000611e:	4620      	mov	r0, r4
10006120:	f7ff ffa4 	bl	1000606c <tu_fifo_full>
10006124:	b110      	cbz	r0, 1000612c <tu_fifo_write+0x24>
10006126:	79e7      	ldrb	r7, [r4, #7]
10006128:	09ff      	lsrs	r7, r7, #7
1000612a:	d016      	beq.n	1000615a <tu_fifo_write+0x52>
1000612c:	88a2      	ldrh	r2, [r4, #4]
1000612e:	462b      	mov	r3, r5
10006130:	e001      	b.n	10006136 <tu_fifo_write+0x2e>
10006132:	1a9b      	subs	r3, r3, r2
10006134:	b29b      	uxth	r3, r3
10006136:	429a      	cmp	r2, r3
10006138:	d9fb      	bls.n	10006132 <tu_fifo_write+0x2a>
1000613a:	6820      	ldr	r0, [r4, #0]
1000613c:	88e2      	ldrh	r2, [r4, #6]
1000613e:	f3c2 020e 	ubfx	r2, r2, #0, #15
10006142:	4631      	mov	r1, r6
10006144:	fb02 0003 	mla	r0, r2, r3, r0
10006148:	f000 f9f6 	bl	10006538 <memcpy>
1000614c:	2201      	movs	r2, #1
1000614e:	4629      	mov	r1, r5
10006150:	88a0      	ldrh	r0, [r4, #4]
10006152:	f7ff fdcd 	bl	10005cf0 <advance_index>
10006156:	8120      	strh	r0, [r4, #8]
10006158:	2701      	movs	r7, #1
1000615a:	68e0      	ldr	r0, [r4, #12]
1000615c:	b108      	cbz	r0, 10006162 <tu_fifo_write+0x5a>
1000615e:	f000 faf3 	bl	10006748 <__mutex_exit_veneer>
10006162:	4638      	mov	r0, r7
10006164:	bdf8      	pop	{r3, r4, r5, r6, r7, pc}

10006166 <tu_fifo_write_n>:
10006166:	b508      	push	{r3, lr}
10006168:	2300      	movs	r3, #0
1000616a:	f7ff fec0 	bl	10005eee <_tu_fifo_write_n>
1000616e:	bd08      	pop	{r3, pc}

10006170 <tu_fifo_clear>:
10006170:	b510      	push	{r4, lr}
10006172:	4604      	mov	r4, r0
10006174:	68c0      	ldr	r0, [r0, #12]
10006176:	b118      	cbz	r0, 10006180 <tu_fifo_clear+0x10>
10006178:	f04f 31ff 	mov.w	r1, #4294967295
1000617c:	f000 fafc 	bl	10006778 <__mutex_enter_timeout_ms_veneer>
10006180:	6920      	ldr	r0, [r4, #16]
10006182:	b118      	cbz	r0, 1000618c <tu_fifo_clear+0x1c>
10006184:	f04f 31ff 	mov.w	r1, #4294967295
10006188:	f000 faf6 	bl	10006778 <__mutex_enter_timeout_ms_veneer>
1000618c:	2300      	movs	r3, #0
1000618e:	8163      	strh	r3, [r4, #10]
10006190:	8123      	strh	r3, [r4, #8]
10006192:	68e0      	ldr	r0, [r4, #12]
10006194:	b108      	cbz	r0, 1000619a <tu_fifo_clear+0x2a>
10006196:	f000 fad7 	bl	10006748 <__mutex_exit_veneer>
1000619a:	6920      	ldr	r0, [r4, #16]
1000619c:	b108      	cbz	r0, 100061a2 <tu_fifo_clear+0x32>
1000619e:	f000 fad3 	bl	10006748 <__mutex_exit_veneer>
100061a2:	2001      	movs	r0, #1
100061a4:	bd10      	pop	{r4, pc}

100061a6 <tu_fifo_set_overwritable>:
100061a6:	b538      	push	{r3, r4, r5, lr}
100061a8:	4604      	mov	r4, r0
100061aa:	460d      	mov	r5, r1
100061ac:	68c0      	ldr	r0, [r0, #12]
100061ae:	b118      	cbz	r0, 100061b8 <tu_fifo_set_overwritable+0x12>
100061b0:	f04f 31ff 	mov.w	r1, #4294967295
100061b4:	f000 fae0 	bl	10006778 <__mutex_enter_timeout_ms_veneer>
100061b8:	6920      	ldr	r0, [r4, #16]
100061ba:	b118      	cbz	r0, 100061c4 <tu_fifo_set_overwritable+0x1e>
100061bc:	f04f 31ff 	mov.w	r1, #4294967295
100061c0:	f000 fada 	bl	10006778 <__mutex_enter_timeout_ms_veneer>
100061c4:	79e3      	ldrb	r3, [r4, #7]
100061c6:	f365 13c7 	bfi	r3, r5, #7, #1
100061ca:	71e3      	strb	r3, [r4, #7]
100061cc:	68e0      	ldr	r0, [r4, #12]
100061ce:	b108      	cbz	r0, 100061d4 <tu_fifo_set_overwritable+0x2e>
100061d0:	f000 faba 	bl	10006748 <__mutex_exit_veneer>
100061d4:	6920      	ldr	r0, [r4, #16]
100061d6:	b108      	cbz	r0, 100061dc <tu_fifo_set_overwritable+0x36>
100061d8:	f000 fab6 	bl	10006748 <__mutex_exit_veneer>
100061dc:	2001      	movs	r0, #1
100061de:	bd38      	pop	{r3, r4, r5, pc}

100061e0 <i2c_write_blocking_internal>:
100061e0:	e92d 4ff0 	stmdb	sp!, {r4, r5, r6, r7, r8, r9, sl, fp, lr}
100061e4:	b085      	sub	sp, #20
100061e6:	4607      	mov	r7, r0
100061e8:	4692      	mov	sl, r2
100061ea:	9301      	str	r3, [sp, #4]
100061ec:	f89d 3038 	ldrb.w	r3, [sp, #56]	; 0x38
100061f0:	9303      	str	r3, [sp, #12]
100061f2:	9e0f      	ldr	r6, [sp, #60]	; 0x3c
100061f4:	f8dd 8040 	ldr.w	r8, [sp, #64]	; 0x40
100061f8:	6803      	ldr	r3, [r0, #0]
100061fa:	2500      	movs	r5, #0
100061fc:	66dd      	str	r5, [r3, #108]	; 0x6c
100061fe:	6803      	ldr	r3, [r0, #0]
10006200:	6059      	str	r1, [r3, #4]
10006202:	6803      	ldr	r3, [r0, #0]
10006204:	2201      	movs	r2, #1
10006206:	66da      	str	r2, [r3, #108]	; 0x6c
10006208:	46a9      	mov	r9, r5
1000620a:	9502      	str	r5, [sp, #8]
1000620c:	462c      	mov	r4, r5
1000620e:	e027      	b.n	10006260 <i2c_write_blocking_internal+0x80>
10006210:	793b      	ldrb	r3, [r7, #4]
10006212:	2b00      	cmp	r3, #0
10006214:	d032      	beq.n	1000627c <i2c_write_blocking_internal+0x9c>
10006216:	2301      	movs	r3, #1
10006218:	e030      	b.n	1000627c <i2c_write_blocking_internal+0x9c>
1000621a:	9a03      	ldr	r2, [sp, #12]
1000621c:	b10a      	cbz	r2, 10006222 <i2c_write_blocking_internal+0x42>
1000621e:	2200      	movs	r2, #0
10006220:	e030      	b.n	10006284 <i2c_write_blocking_internal+0xa4>
10006222:	2201      	movs	r2, #1
10006224:	e02e      	b.n	10006284 <i2c_write_blocking_internal+0xa4>
10006226:	2100      	movs	r1, #0
10006228:	4640      	mov	r0, r8
1000622a:	47b0      	blx	r6
1000622c:	4305      	orrs	r5, r0
1000622e:	b2ed      	uxtb	r5, r5
10006230:	b938      	cbnz	r0, 10006242 <i2c_write_blocking_internal+0x62>
10006232:	683b      	ldr	r3, [r7, #0]
10006234:	6b5b      	ldr	r3, [r3, #52]	; 0x34
10006236:	f013 0f10 	tst.w	r3, #16
1000623a:	d102      	bne.n	10006242 <i2c_write_blocking_internal+0x62>
1000623c:	2e00      	cmp	r6, #0
1000623e:	d1f2      	bne.n	10006226 <i2c_write_blocking_internal+0x46>
10006240:	e7f6      	b.n	10006230 <i2c_write_blocking_internal+0x50>
10006242:	4604      	mov	r4, r0
10006244:	b940      	cbnz	r0, 10006258 <i2c_write_blocking_internal+0x78>
10006246:	683b      	ldr	r3, [r7, #0]
10006248:	f8d3 2080 	ldr.w	r2, [r3, #128]	; 0x80
1000624c:	9202      	str	r2, [sp, #8]
1000624e:	bb12      	cbnz	r2, 10006296 <i2c_write_blocking_internal+0xb6>
10006250:	2d00      	cmp	r5, #0
10006252:	d132      	bne.n	100062ba <i2c_write_blocking_internal+0xda>
10006254:	45cb      	cmp	fp, r9
10006256:	d021      	beq.n	1000629c <i2c_write_blocking_internal+0xbc>
10006258:	2d00      	cmp	r5, #0
1000625a:	d137      	bne.n	100062cc <i2c_write_blocking_internal+0xec>
1000625c:	f109 0901 	add.w	r9, r9, #1
10006260:	9b01      	ldr	r3, [sp, #4]
10006262:	4599      	cmp	r9, r3
10006264:	da32      	bge.n	100062cc <i2c_write_blocking_internal+0xec>
10006266:	9b01      	ldr	r3, [sp, #4]
10006268:	f103 3bff 	add.w	fp, r3, #4294967295
1000626c:	b116      	cbz	r6, 10006274 <i2c_write_blocking_internal+0x94>
1000626e:	2101      	movs	r1, #1
10006270:	4640      	mov	r0, r8
10006272:	47b0      	blx	r6
10006274:	f1b9 0f00 	cmp.w	r9, #0
10006278:	d0ca      	beq.n	10006210 <i2c_write_blocking_internal+0x30>
1000627a:	2300      	movs	r3, #0
1000627c:	029b      	lsls	r3, r3, #10
1000627e:	45cb      	cmp	fp, r9
10006280:	d0cb      	beq.n	1000621a <i2c_write_blocking_internal+0x3a>
10006282:	2200      	movs	r2, #0
10006284:	ea43 2342 	orr.w	r3, r3, r2, lsl #9
10006288:	f81a 1b01 	ldrb.w	r1, [sl], #1
1000628c:	683a      	ldr	r2, [r7, #0]
1000628e:	430b      	orrs	r3, r1
10006290:	6113      	str	r3, [r2, #16]
10006292:	4620      	mov	r0, r4
10006294:	e7d2      	b.n	1000623c <i2c_write_blocking_internal+0x5c>
10006296:	6d5b      	ldr	r3, [r3, #84]	; 0x54
10006298:	2501      	movs	r5, #1
1000629a:	e00e      	b.n	100062ba <i2c_write_blocking_internal+0xda>
1000629c:	9b03      	ldr	r3, [sp, #12]
1000629e:	2b00      	cmp	r3, #0
100062a0:	d1da      	bne.n	10006258 <i2c_write_blocking_internal+0x78>
100062a2:	e00a      	b.n	100062ba <i2c_write_blocking_internal+0xda>
100062a4:	2100      	movs	r1, #0
100062a6:	4640      	mov	r0, r8
100062a8:	47b0      	blx	r6
100062aa:	4305      	orrs	r5, r0
100062ac:	b2ed      	uxtb	r5, r5
100062ae:	b938      	cbnz	r0, 100062c0 <i2c_write_blocking_internal+0xe0>
100062b0:	683b      	ldr	r3, [r7, #0]
100062b2:	6b5b      	ldr	r3, [r3, #52]	; 0x34
100062b4:	f413 7f00 	tst.w	r3, #512	; 0x200
100062b8:	d102      	bne.n	100062c0 <i2c_write_blocking_internal+0xe0>
100062ba:	2e00      	cmp	r6, #0
100062bc:	d1f2      	bne.n	100062a4 <i2c_write_blocking_internal+0xc4>
100062be:	e7f6      	b.n	100062ae <i2c_write_blocking_internal+0xce>
100062c0:	4604      	mov	r4, r0
100062c2:	2800      	cmp	r0, #0
100062c4:	d1c8      	bne.n	10006258 <i2c_write_blocking_internal+0x78>
100062c6:	683b      	ldr	r3, [r7, #0]
100062c8:	6e1b      	ldr	r3, [r3, #96]	; 0x60
100062ca:	e7c5      	b.n	10006258 <i2c_write_blocking_internal+0x78>
100062cc:	b145      	cbz	r5, 100062e0 <i2c_write_blocking_internal+0x100>
100062ce:	b984      	cbnz	r4, 100062f2 <i2c_write_blocking_internal+0x112>
100062d0:	9b02      	ldr	r3, [sp, #8]
100062d2:	b18b      	cbz	r3, 100062f8 <i2c_write_blocking_internal+0x118>
100062d4:	f013 0f01 	tst.w	r3, #1
100062d8:	d111      	bne.n	100062fe <i2c_write_blocking_internal+0x11e>
100062da:	f013 0f08 	tst.w	r3, #8
100062de:	d005      	beq.n	100062ec <i2c_write_blocking_internal+0x10c>
100062e0:	9b03      	ldr	r3, [sp, #12]
100062e2:	713b      	strb	r3, [r7, #4]
100062e4:	4648      	mov	r0, r9
100062e6:	b005      	add	sp, #20
100062e8:	e8bd 8ff0 	ldmia.w	sp!, {r4, r5, r6, r7, r8, r9, sl, fp, pc}
100062ec:	f04f 39ff 	mov.w	r9, #4294967295
100062f0:	e7f6      	b.n	100062e0 <i2c_write_blocking_internal+0x100>
100062f2:	f06f 0901 	mvn.w	r9, #1
100062f6:	e7f3      	b.n	100062e0 <i2c_write_blocking_internal+0x100>
100062f8:	f04f 39ff 	mov.w	r9, #4294967295
100062fc:	e7f0      	b.n	100062e0 <i2c_write_blocking_internal+0x100>
100062fe:	f04f 39ff 	mov.w	r9, #4294967295
10006302:	e7ed      	b.n	100062e0 <i2c_write_blocking_internal+0x100>

10006304 <i2c_read_blocking_internal>:
10006304:	e92d 4ff0 	stmdb	sp!, {r4, r5, r6, r7, r8, r9, sl, fp, lr}
10006308:	b083      	sub	sp, #12
1000630a:	4605      	mov	r5, r0
1000630c:	9200      	str	r2, [sp, #0]
1000630e:	469a      	mov	sl, r3
10006310:	f89d 3030 	ldrb.w	r3, [sp, #48]	; 0x30
10006314:	9301      	str	r3, [sp, #4]
10006316:	9f0d      	ldr	r7, [sp, #52]	; 0x34
10006318:	f8dd 8038 	ldr.w	r8, [sp, #56]	; 0x38
1000631c:	6803      	ldr	r3, [r0, #0]
1000631e:	2400      	movs	r4, #0
10006320:	66dc      	str	r4, [r3, #108]	; 0x6c
10006322:	6803      	ldr	r3, [r0, #0]
10006324:	6059      	str	r1, [r3, #4]
10006326:	6803      	ldr	r3, [r0, #0]
10006328:	2201      	movs	r2, #1
1000632a:	66da      	str	r2, [r3, #108]	; 0x6c
1000632c:	46a1      	mov	r9, r4
1000632e:	4626      	mov	r6, r4
10006330:	e028      	b.n	10006384 <i2c_read_blocking_internal+0x80>
10006332:	792a      	ldrb	r2, [r5, #4]
10006334:	2a00      	cmp	r2, #0
10006336:	d035      	beq.n	100063a4 <i2c_read_blocking_internal+0xa0>
10006338:	2201      	movs	r2, #1
1000633a:	e033      	b.n	100063a4 <i2c_read_blocking_internal+0xa0>
1000633c:	9901      	ldr	r1, [sp, #4]
1000633e:	b109      	cbz	r1, 10006344 <i2c_read_blocking_internal+0x40>
10006340:	2100      	movs	r1, #0
10006342:	e033      	b.n	100063ac <i2c_read_blocking_internal+0xa8>
10006344:	2101      	movs	r1, #1
10006346:	e031      	b.n	100063ac <i2c_read_blocking_internal+0xa8>
10006348:	6d5b      	ldr	r3, [r3, #84]	; 0x54
1000634a:	2401      	movs	r4, #1
1000634c:	b12f      	cbz	r7, 1000635a <i2c_read_blocking_internal+0x56>
1000634e:	2100      	movs	r1, #0
10006350:	4640      	mov	r0, r8
10006352:	47b8      	blx	r7
10006354:	4606      	mov	r6, r0
10006356:	4304      	orrs	r4, r0
10006358:	b2e4      	uxtb	r4, r4
1000635a:	b954      	cbnz	r4, 10006372 <i2c_read_blocking_internal+0x6e>
1000635c:	682b      	ldr	r3, [r5, #0]
1000635e:	6f9b      	ldr	r3, [r3, #120]	; 0x78
10006360:	b93b      	cbnz	r3, 10006372 <i2c_read_blocking_internal+0x6e>
10006362:	682b      	ldr	r3, [r5, #0]
10006364:	f8d3 2080 	ldr.w	r2, [r3, #128]	; 0x80
10006368:	6b5a      	ldr	r2, [r3, #52]	; 0x34
1000636a:	f012 0f40 	tst.w	r2, #64	; 0x40
1000636e:	d0ed      	beq.n	1000634c <i2c_read_blocking_internal+0x48>
10006370:	e7ea      	b.n	10006348 <i2c_read_blocking_internal+0x44>
10006372:	bb0c      	cbnz	r4, 100063b8 <i2c_read_blocking_internal+0xb4>
10006374:	682b      	ldr	r3, [r5, #0]
10006376:	691b      	ldr	r3, [r3, #16]
10006378:	9a00      	ldr	r2, [sp, #0]
1000637a:	f802 3b01 	strb.w	r3, [r2], #1
1000637e:	f109 0901 	add.w	r9, r9, #1
10006382:	9200      	str	r2, [sp, #0]
10006384:	45d1      	cmp	r9, sl
10006386:	da17      	bge.n	100063b8 <i2c_read_blocking_internal+0xb4>
10006388:	f10a 3bff 	add.w	fp, sl, #4294967295
1000638c:	b117      	cbz	r7, 10006394 <i2c_read_blocking_internal+0x90>
1000638e:	2101      	movs	r1, #1
10006390:	4640      	mov	r0, r8
10006392:	47b8      	blx	r7
10006394:	682b      	ldr	r3, [r5, #0]
10006396:	6f5a      	ldr	r2, [r3, #116]	; 0x74
10006398:	2a10      	cmp	r2, #16
1000639a:	d0fb      	beq.n	10006394 <i2c_read_blocking_internal+0x90>
1000639c:	f1b9 0f00 	cmp.w	r9, #0
100063a0:	d0c7      	beq.n	10006332 <i2c_read_blocking_internal+0x2e>
100063a2:	2200      	movs	r2, #0
100063a4:	0292      	lsls	r2, r2, #10
100063a6:	45cb      	cmp	fp, r9
100063a8:	d0c8      	beq.n	1000633c <i2c_read_blocking_internal+0x38>
100063aa:	2100      	movs	r1, #0
100063ac:	ea42 2241 	orr.w	r2, r2, r1, lsl #9
100063b0:	f442 7280 	orr.w	r2, r2, #256	; 0x100
100063b4:	611a      	str	r2, [r3, #16]
100063b6:	e7d4      	b.n	10006362 <i2c_read_blocking_internal+0x5e>
100063b8:	b114      	cbz	r4, 100063c0 <i2c_read_blocking_internal+0xbc>
100063ba:	b13e      	cbz	r6, 100063cc <i2c_read_blocking_internal+0xc8>
100063bc:	f06f 0901 	mvn.w	r9, #1
100063c0:	9b01      	ldr	r3, [sp, #4]
100063c2:	712b      	strb	r3, [r5, #4]
100063c4:	4648      	mov	r0, r9
100063c6:	b003      	add	sp, #12
100063c8:	e8bd 8ff0 	ldmia.w	sp!, {r4, r5, r6, r7, r8, r9, sl, fp, pc}
100063cc:	f04f 39ff 	mov.w	r9, #4294967295
100063d0:	e7f6      	b.n	100063c0 <i2c_read_blocking_internal+0xbc>
	...

100063d4 <i2c_set_baudrate>:
100063d4:	b5f8      	push	{r3, r4, r5, r6, r7, lr}
100063d6:	4604      	mov	r4, r0
100063d8:	460d      	mov	r5, r1
100063da:	2005      	movs	r0, #5
100063dc:	f7fb f9c6 	bl	1000176c <clock_get_hz>
100063e0:	eb00 0255 	add.w	r2, r0, r5, lsr #1
100063e4:	fbb2 f2f5 	udiv	r2, r2, r5
100063e8:	eb02 0c42 	add.w	ip, r2, r2, lsl #1
100063ec:	4b24      	ldr	r3, [pc, #144]	; (10006480 <i2c_set_baudrate+0xac>)
100063ee:	fba3 130c 	umull	r1, r3, r3, ip
100063f2:	089f      	lsrs	r7, r3, #2
100063f4:	eba2 0693 	sub.w	r6, r2, r3, lsr #2
100063f8:	4b22      	ldr	r3, [pc, #136]	; (10006484 <i2c_set_baudrate+0xb0>)
100063fa:	429d      	cmp	r5, r3
100063fc:	d821      	bhi.n	10006442 <i2c_set_baudrate+0x6e>
100063fe:	eb00 0340 	add.w	r3, r0, r0, lsl #1
10006402:	4921      	ldr	r1, [pc, #132]	; (10006488 <i2c_set_baudrate+0xb4>)
10006404:	fba1 1303 	umull	r1, r3, r1, r3
10006408:	0d9b      	lsrs	r3, r3, #22
1000640a:	3301      	adds	r3, #1
1000640c:	1eb9      	subs	r1, r7, #2
1000640e:	4299      	cmp	r1, r3
10006410:	d31f      	bcc.n	10006452 <i2c_set_baudrate+0x7e>
10006412:	6821      	ldr	r1, [r4, #0]
10006414:	2500      	movs	r5, #0
10006416:	66cd      	str	r5, [r1, #108]	; 0x6c
10006418:	6821      	ldr	r1, [r4, #0]
1000641a:	680d      	ldr	r5, [r1, #0]
1000641c:	f085 0504 	eor.w	r5, r5, #4
10006420:	f005 0506 	and.w	r5, r5, #6
10006424:	f501 5180 	add.w	r1, r1, #4096	; 0x1000
10006428:	600d      	str	r5, [r1, #0]
1000642a:	6821      	ldr	r1, [r4, #0]
1000642c:	61ce      	str	r6, [r1, #28]
1000642e:	6821      	ldr	r1, [r4, #0]
10006430:	620f      	str	r7, [r1, #32]
10006432:	f1bc 0f4f 	cmp.w	ip, #79	; 0x4f
10006436:	d912      	bls.n	1000645e <i2c_set_baudrate+0x8a>
10006438:	4911      	ldr	r1, [pc, #68]	; (10006480 <i2c_set_baudrate+0xac>)
1000643a:	fba1 510c 	umull	r5, r1, r1, ip
1000643e:	0989      	lsrs	r1, r1, #6
10006440:	e00e      	b.n	10006460 <i2c_set_baudrate+0x8c>
10006442:	eb00 0340 	add.w	r3, r0, r0, lsl #1
10006446:	4911      	ldr	r1, [pc, #68]	; (1000648c <i2c_set_baudrate+0xb8>)
10006448:	fba1 1303 	umull	r1, r3, r1, r3
1000644c:	0ddb      	lsrs	r3, r3, #23
1000644e:	3301      	adds	r3, #1
10006450:	e7dc      	b.n	1000640c <i2c_set_baudrate+0x38>
10006452:	4b0f      	ldr	r3, [pc, #60]	; (10006490 <i2c_set_baudrate+0xbc>)
10006454:	4a0f      	ldr	r2, [pc, #60]	; (10006494 <i2c_set_baudrate+0xc0>)
10006456:	215d      	movs	r1, #93	; 0x5d
10006458:	480f      	ldr	r0, [pc, #60]	; (10006498 <i2c_set_baudrate+0xc4>)
1000645a:	f7fc fe31 	bl	100030c0 <__assert_func>
1000645e:	2101      	movs	r1, #1
10006460:	6825      	ldr	r5, [r4, #0]
10006462:	f8c5 10a0 	str.w	r1, [r5, #160]	; 0xa0
10006466:	6821      	ldr	r1, [r4, #0]
10006468:	6fcd      	ldr	r5, [r1, #124]	; 0x7c
1000646a:	406b      	eors	r3, r5
1000646c:	b29b      	uxth	r3, r3
1000646e:	f501 5183 	add.w	r1, r1, #4192	; 0x1060
10006472:	61cb      	str	r3, [r1, #28]
10006474:	6823      	ldr	r3, [r4, #0]
10006476:	2101      	movs	r1, #1
10006478:	66d9      	str	r1, [r3, #108]	; 0x6c
1000647a:	fbb0 f0f2 	udiv	r0, r0, r2
1000647e:	bdf8      	pop	{r3, r4, r5, r6, r7, pc}
10006480:	cccccccd 	.word	0xcccccccd
10006484:	000f423f 	.word	0x000f423f
10006488:	6b5fca6b 	.word	0x6b5fca6b
1000648c:	55e63b89 	.word	0x55e63b89
10006490:	1000763c 	.word	0x1000763c
10006494:	10007690 	.word	0x10007690
10006498:	1000765c 	.word	0x1000765c

1000649c <i2c_init>:
1000649c:	b510      	push	{r4, lr}
1000649e:	4b16      	ldr	r3, [pc, #88]	; (100064f8 <i2c_init+0x5c>)
100064a0:	4298      	cmp	r0, r3
100064a2:	d024      	beq.n	100064ee <i2c_init+0x52>
100064a4:	2205      	movs	r2, #5
100064a6:	2301      	movs	r3, #1
100064a8:	4093      	lsls	r3, r2
100064aa:	4a14      	ldr	r2, [pc, #80]	; (100064fc <i2c_init+0x60>)
100064ac:	6013      	str	r3, [r2, #0]
100064ae:	4b12      	ldr	r3, [pc, #72]	; (100064f8 <i2c_init+0x5c>)
100064b0:	4298      	cmp	r0, r3
100064b2:	d01e      	beq.n	100064f2 <i2c_init+0x56>
100064b4:	2305      	movs	r3, #5
100064b6:	2201      	movs	r2, #1
100064b8:	409a      	lsls	r2, r3
100064ba:	4b11      	ldr	r3, [pc, #68]	; (10006500 <i2c_init+0x64>)
100064bc:	601a      	str	r2, [r3, #0]
100064be:	4b11      	ldr	r3, [pc, #68]	; (10006504 <i2c_init+0x68>)
100064c0:	689b      	ldr	r3, [r3, #8]
100064c2:	ea32 0303 	bics.w	r3, r2, r3
100064c6:	d1fa      	bne.n	100064be <i2c_init+0x22>
100064c8:	2300      	movs	r3, #0
100064ca:	7103      	strb	r3, [r0, #4]
100064cc:	6802      	ldr	r2, [r0, #0]
100064ce:	66d3      	str	r3, [r2, #108]	; 0x6c
100064d0:	6802      	ldr	r2, [r0, #0]
100064d2:	f240 1465 	movw	r4, #357	; 0x165
100064d6:	6014      	str	r4, [r2, #0]
100064d8:	6802      	ldr	r2, [r0, #0]
100064da:	63d3      	str	r3, [r2, #60]	; 0x3c
100064dc:	6802      	ldr	r2, [r0, #0]
100064de:	6393      	str	r3, [r2, #56]	; 0x38
100064e0:	6803      	ldr	r3, [r0, #0]
100064e2:	2203      	movs	r2, #3
100064e4:	f8c3 2088 	str.w	r2, [r3, #136]	; 0x88
100064e8:	f7ff ff74 	bl	100063d4 <i2c_set_baudrate>
100064ec:	bd10      	pop	{r4, pc}
100064ee:	2204      	movs	r2, #4
100064f0:	e7d9      	b.n	100064a6 <i2c_init+0xa>
100064f2:	2304      	movs	r3, #4
100064f4:	e7df      	b.n	100064b6 <i2c_init+0x1a>
100064f6:	bf00      	nop
100064f8:	20001224 	.word	0x20001224
100064fc:	40022000 	.word	0x40022000
10006500:	40023000 	.word	0x40023000
10006504:	40020000 	.word	0x40020000

10006508 <i2c_write_blocking>:
10006508:	b510      	push	{r4, lr}
1000650a:	b084      	sub	sp, #16
1000650c:	2400      	movs	r4, #0
1000650e:	9402      	str	r4, [sp, #8]
10006510:	9401      	str	r4, [sp, #4]
10006512:	f89d 4018 	ldrb.w	r4, [sp, #24]
10006516:	9400      	str	r4, [sp, #0]
10006518:	f7ff fe62 	bl	100061e0 <i2c_write_blocking_internal>
1000651c:	b004      	add	sp, #16
1000651e:	bd10      	pop	{r4, pc}

10006520 <i2c_read_blocking>:
10006520:	b510      	push	{r4, lr}
10006522:	b084      	sub	sp, #16
10006524:	2400      	movs	r4, #0
10006526:	9402      	str	r4, [sp, #8]
10006528:	9401      	str	r4, [sp, #4]
1000652a:	f89d 4018 	ldrb.w	r4, [sp, #24]
1000652e:	9400      	str	r4, [sp, #0]
10006530:	f7ff fee8 	bl	10006304 <i2c_read_blocking_internal>
10006534:	b004      	add	sp, #16
10006536:	bd10      	pop	{r4, pc}

10006538 <memcpy>:
10006538:	4684      	mov	ip, r0
1000653a:	ea41 0300 	orr.w	r3, r1, r0
1000653e:	f013 0303 	ands.w	r3, r3, #3
10006542:	d149      	bne.n	100065d8 <memcpy+0xa0>
10006544:	3a40      	subs	r2, #64	; 0x40
10006546:	d323      	bcc.n	10006590 <memcpy+0x58>
10006548:	680b      	ldr	r3, [r1, #0]
1000654a:	6003      	str	r3, [r0, #0]
1000654c:	684b      	ldr	r3, [r1, #4]
1000654e:	6043      	str	r3, [r0, #4]
10006550:	688b      	ldr	r3, [r1, #8]
10006552:	6083      	str	r3, [r0, #8]
10006554:	68cb      	ldr	r3, [r1, #12]
10006556:	60c3      	str	r3, [r0, #12]
10006558:	690b      	ldr	r3, [r1, #16]
1000655a:	6103      	str	r3, [r0, #16]
1000655c:	694b      	ldr	r3, [r1, #20]
1000655e:	6143      	str	r3, [r0, #20]
10006560:	698b      	ldr	r3, [r1, #24]
10006562:	6183      	str	r3, [r0, #24]
10006564:	69cb      	ldr	r3, [r1, #28]
10006566:	61c3      	str	r3, [r0, #28]
10006568:	6a0b      	ldr	r3, [r1, #32]
1000656a:	6203      	str	r3, [r0, #32]
1000656c:	6a4b      	ldr	r3, [r1, #36]	; 0x24
1000656e:	6243      	str	r3, [r0, #36]	; 0x24
10006570:	6a8b      	ldr	r3, [r1, #40]	; 0x28
10006572:	6283      	str	r3, [r0, #40]	; 0x28
10006574:	6acb      	ldr	r3, [r1, #44]	; 0x2c
10006576:	62c3      	str	r3, [r0, #44]	; 0x2c
10006578:	6b0b      	ldr	r3, [r1, #48]	; 0x30
1000657a:	6303      	str	r3, [r0, #48]	; 0x30
1000657c:	6b4b      	ldr	r3, [r1, #52]	; 0x34
1000657e:	6343      	str	r3, [r0, #52]	; 0x34
10006580:	6b8b      	ldr	r3, [r1, #56]	; 0x38
10006582:	6383      	str	r3, [r0, #56]	; 0x38
10006584:	6bcb      	ldr	r3, [r1, #60]	; 0x3c
10006586:	63c3      	str	r3, [r0, #60]	; 0x3c
10006588:	3040      	adds	r0, #64	; 0x40
1000658a:	3140      	adds	r1, #64	; 0x40
1000658c:	3a40      	subs	r2, #64	; 0x40
1000658e:	d2db      	bcs.n	10006548 <memcpy+0x10>
10006590:	3230      	adds	r2, #48	; 0x30
10006592:	d30b      	bcc.n	100065ac <memcpy+0x74>
10006594:	680b      	ldr	r3, [r1, #0]
10006596:	6003      	str	r3, [r0, #0]
10006598:	684b      	ldr	r3, [r1, #4]
1000659a:	6043      	str	r3, [r0, #4]
1000659c:	688b      	ldr	r3, [r1, #8]
1000659e:	6083      	str	r3, [r0, #8]
100065a0:	68cb      	ldr	r3, [r1, #12]
100065a2:	60c3      	str	r3, [r0, #12]
100065a4:	3010      	adds	r0, #16
100065a6:	3110      	adds	r1, #16
100065a8:	3a10      	subs	r2, #16
100065aa:	d2f3      	bcs.n	10006594 <memcpy+0x5c>
100065ac:	320c      	adds	r2, #12
100065ae:	d305      	bcc.n	100065bc <memcpy+0x84>
100065b0:	f851 3b04 	ldr.w	r3, [r1], #4
100065b4:	f840 3b04 	str.w	r3, [r0], #4
100065b8:	3a04      	subs	r2, #4
100065ba:	d2f9      	bcs.n	100065b0 <memcpy+0x78>
100065bc:	3204      	adds	r2, #4
100065be:	d008      	beq.n	100065d2 <memcpy+0x9a>
100065c0:	07d2      	lsls	r2, r2, #31
100065c2:	bf1c      	itt	ne
100065c4:	f811 3b01 	ldrbne.w	r3, [r1], #1
100065c8:	f800 3b01 	strbne.w	r3, [r0], #1
100065cc:	d301      	bcc.n	100065d2 <memcpy+0x9a>
100065ce:	880b      	ldrh	r3, [r1, #0]
100065d0:	8003      	strh	r3, [r0, #0]
100065d2:	4660      	mov	r0, ip
100065d4:	4770      	bx	lr
100065d6:	bf00      	nop
100065d8:	2a08      	cmp	r2, #8
100065da:	d313      	bcc.n	10006604 <memcpy+0xcc>
100065dc:	078b      	lsls	r3, r1, #30
100065de:	d0b1      	beq.n	10006544 <memcpy+0xc>
100065e0:	f010 0303 	ands.w	r3, r0, #3
100065e4:	d0ae      	beq.n	10006544 <memcpy+0xc>
100065e6:	f1c3 0304 	rsb	r3, r3, #4
100065ea:	1ad2      	subs	r2, r2, r3
100065ec:	07db      	lsls	r3, r3, #31
100065ee:	bf1c      	itt	ne
100065f0:	f811 3b01 	ldrbne.w	r3, [r1], #1
100065f4:	f800 3b01 	strbne.w	r3, [r0], #1
100065f8:	d3a4      	bcc.n	10006544 <memcpy+0xc>
100065fa:	f831 3b02 	ldrh.w	r3, [r1], #2
100065fe:	f820 3b02 	strh.w	r3, [r0], #2
10006602:	e79f      	b.n	10006544 <memcpy+0xc>
10006604:	3a04      	subs	r2, #4
10006606:	d3d9      	bcc.n	100065bc <memcpy+0x84>
10006608:	3a01      	subs	r2, #1
1000660a:	f811 3b01 	ldrb.w	r3, [r1], #1
1000660e:	f800 3b01 	strb.w	r3, [r0], #1
10006612:	d2f9      	bcs.n	10006608 <memcpy+0xd0>
10006614:	780b      	ldrb	r3, [r1, #0]
10006616:	7003      	strb	r3, [r0, #0]
10006618:	784b      	ldrb	r3, [r1, #1]
1000661a:	7043      	strb	r3, [r0, #1]
1000661c:	788b      	ldrb	r3, [r1, #2]
1000661e:	7083      	strb	r3, [r0, #2]
10006620:	4660      	mov	r0, ip
10006622:	4770      	bx	lr

10006624 <memset>:
10006624:	b570      	push	{r4, r5, r6, lr}
10006626:	0786      	lsls	r6, r0, #30
10006628:	d048      	beq.n	100066bc <memset+0x98>
1000662a:	1e54      	subs	r4, r2, #1
1000662c:	2a00      	cmp	r2, #0
1000662e:	d03f      	beq.n	100066b0 <memset+0x8c>
10006630:	b2ca      	uxtb	r2, r1
10006632:	4603      	mov	r3, r0
10006634:	e001      	b.n	1000663a <memset+0x16>
10006636:	3c01      	subs	r4, #1
10006638:	d33a      	bcc.n	100066b0 <memset+0x8c>
1000663a:	f803 2b01 	strb.w	r2, [r3], #1
1000663e:	079d      	lsls	r5, r3, #30
10006640:	d1f9      	bne.n	10006636 <memset+0x12>
10006642:	2c03      	cmp	r4, #3
10006644:	d92d      	bls.n	100066a2 <memset+0x7e>
10006646:	b2cd      	uxtb	r5, r1
10006648:	2c0f      	cmp	r4, #15
1000664a:	ea45 2505 	orr.w	r5, r5, r5, lsl #8
1000664e:	ea45 4505 	orr.w	r5, r5, r5, lsl #16
10006652:	d936      	bls.n	100066c2 <memset+0x9e>
10006654:	f1a4 0c10 	sub.w	ip, r4, #16
10006658:	f103 0e20 	add.w	lr, r3, #32
1000665c:	f103 0210 	add.w	r2, r3, #16
10006660:	f02c 060f 	bic.w	r6, ip, #15
10006664:	ea4f 1c1c 	mov.w	ip, ip, lsr #4
10006668:	44b6      	add	lr, r6
1000666a:	e942 5504 	strd	r5, r5, [r2, #-16]
1000666e:	e942 5502 	strd	r5, r5, [r2, #-8]
10006672:	3210      	adds	r2, #16
10006674:	4572      	cmp	r2, lr
10006676:	d1f8      	bne.n	1000666a <memset+0x46>
10006678:	f10c 0201 	add.w	r2, ip, #1
1000667c:	f014 0f0c 	tst.w	r4, #12
10006680:	f004 0c0f 	and.w	ip, r4, #15
10006684:	eb03 1202 	add.w	r2, r3, r2, lsl #4
10006688:	d013      	beq.n	100066b2 <memset+0x8e>
1000668a:	f1ac 0304 	sub.w	r3, ip, #4
1000668e:	f023 0303 	bic.w	r3, r3, #3
10006692:	3304      	adds	r3, #4
10006694:	4413      	add	r3, r2
10006696:	f842 5b04 	str.w	r5, [r2], #4
1000669a:	4293      	cmp	r3, r2
1000669c:	d1fb      	bne.n	10006696 <memset+0x72>
1000669e:	f00c 0403 	and.w	r4, ip, #3
100066a2:	b12c      	cbz	r4, 100066b0 <memset+0x8c>
100066a4:	b2ca      	uxtb	r2, r1
100066a6:	441c      	add	r4, r3
100066a8:	f803 2b01 	strb.w	r2, [r3], #1
100066ac:	429c      	cmp	r4, r3
100066ae:	d1fb      	bne.n	100066a8 <memset+0x84>
100066b0:	bd70      	pop	{r4, r5, r6, pc}
100066b2:	4664      	mov	r4, ip
100066b4:	4613      	mov	r3, r2
100066b6:	2c00      	cmp	r4, #0
100066b8:	d1f4      	bne.n	100066a4 <memset+0x80>
100066ba:	e7f9      	b.n	100066b0 <memset+0x8c>
100066bc:	4603      	mov	r3, r0
100066be:	4614      	mov	r4, r2
100066c0:	e7bf      	b.n	10006642 <memset+0x1e>
100066c2:	461a      	mov	r2, r3
100066c4:	46a4      	mov	ip, r4
100066c6:	e7e0      	b.n	1000668a <memset+0x66>

100066c8 <strlen>:
100066c8:	f020 0103 	bic.w	r1, r0, #3
100066cc:	f010 0003 	ands.w	r0, r0, #3
100066d0:	f1c0 0000 	rsb	r0, r0, #0
100066d4:	f851 3b04 	ldr.w	r3, [r1], #4
100066d8:	f100 0c04 	add.w	ip, r0, #4
100066dc:	ea4f 0ccc 	mov.w	ip, ip, lsl #3
100066e0:	f06f 0200 	mvn.w	r2, #0
100066e4:	bf1c      	itt	ne
100066e6:	fa22 f20c 	lsrne.w	r2, r2, ip
100066ea:	4313      	orrne	r3, r2
100066ec:	f04f 0c01 	mov.w	ip, #1
100066f0:	ea4c 2c0c 	orr.w	ip, ip, ip, lsl #8
100066f4:	ea4c 4c0c 	orr.w	ip, ip, ip, lsl #16
100066f8:	eba3 020c 	sub.w	r2, r3, ip
100066fc:	ea22 0203 	bic.w	r2, r2, r3
10006700:	ea12 12cc 	ands.w	r2, r2, ip, lsl #7
10006704:	bf04      	itt	eq
10006706:	f851 3b04 	ldreq.w	r3, [r1], #4
1000670a:	3004      	addeq	r0, #4
1000670c:	d0f4      	beq.n	100066f8 <strlen+0x30>
1000670e:	f1c2 0100 	rsb	r1, r2, #0
10006712:	ea02 0201 	and.w	r2, r2, r1
10006716:	fab2 f282 	clz	r2, r2
1000671a:	f1c2 021f 	rsb	r2, r2, #31
1000671e:	eb00 00d2 	add.w	r0, r0, r2, lsr #3
10006722:	4770      	bx	lr

10006724 <_fini>:
10006724:	b5f8      	push	{r3, r4, r5, r6, r7, lr}
10006726:	bf00      	nop

10006728 <____aeabi_uldivmod_veneer>:
10006728:	b401      	push	{r0}
1000672a:	4802      	ldr	r0, [pc, #8]	; (10006734 <____aeabi_uldivmod_veneer+0xc>)
1000672c:	4684      	mov	ip, r0
1000672e:	bc01      	pop	{r0}
10006730:	4760      	bx	ip
10006732:	bf00      	nop
10006734:	20000dd9 	.word	0x20000dd9

10006738 <____aeabi_f2d_veneer>:
10006738:	b401      	push	{r0}
1000673a:	4802      	ldr	r0, [pc, #8]	; (10006744 <____aeabi_f2d_veneer+0xc>)
1000673c:	4684      	mov	ip, r0
1000673e:	bc01      	pop	{r0}
10006740:	4760      	bx	ip
10006742:	bf00      	nop
10006744:	20000d29 	.word	0x20000d29

10006748 <__mutex_exit_veneer>:
10006748:	b401      	push	{r0}
1000674a:	4802      	ldr	r0, [pc, #8]	; (10006754 <__mutex_exit_veneer+0xc>)
1000674c:	4684      	mov	ip, r0
1000674e:	bc01      	pop	{r0}
10006750:	4760      	bx	ip
10006752:	bf00      	nop
10006754:	20000271 	.word	0x20000271

10006758 <__e15_is_bulkin_ep_veneer>:
10006758:	b401      	push	{r0}
1000675a:	4802      	ldr	r0, [pc, #8]	; (10006764 <__e15_is_bulkin_ep_veneer+0xc>)
1000675c:	4684      	mov	ip, r0
1000675e:	bc01      	pop	{r0}
10006760:	4760      	bx	ip
10006762:	bf00      	nop
10006764:	200005f1 	.word	0x200005f1

10006768 <__mutex_try_enter_veneer>:
10006768:	b401      	push	{r0}
1000676a:	4802      	ldr	r0, [pc, #8]	; (10006774 <__mutex_try_enter_veneer+0xc>)
1000676c:	4684      	mov	ip, r0
1000676e:	bc01      	pop	{r0}
10006770:	4760      	bx	ip
10006772:	bf00      	nop
10006774:	20000111 	.word	0x20000111

10006778 <__mutex_enter_timeout_ms_veneer>:
10006778:	b401      	push	{r0}
1000677a:	4802      	ldr	r0, [pc, #8]	; (10006784 <__mutex_enter_timeout_ms_veneer+0xc>)
1000677c:	4684      	mov	ip, r0
1000677e:	bc01      	pop	{r0}
10006780:	4760      	bx	ip
10006782:	bf00      	nop
10006784:	2000021f 	.word	0x2000021f

10006788 <__mutex_try_enter_block_until_veneer>:
10006788:	b401      	push	{r0}
1000678a:	4802      	ldr	r0, [pc, #8]	; (10006794 <__mutex_try_enter_block_until_veneer+0xc>)
1000678c:	4684      	mov	ip, r0
1000678e:	bc01      	pop	{r0}
10006790:	4760      	bx	ip
10006792:	bf00      	nop
10006794:	200001ed 	.word	0x200001ed

10006798 <__hw_endpoint_start_next_buffer_veneer>:
10006798:	b401      	push	{r0}
1000679a:	4802      	ldr	r0, [pc, #8]	; (100067a4 <__hw_endpoint_start_next_buffer_veneer+0xc>)
1000679c:	4684      	mov	ip, r0
1000679e:	bc01      	pop	{r0}
100067a0:	4760      	bx	ip
100067a2:	bf00      	nop
100067a4:	20000745 	.word	0x20000745

100067a8 <__reset_non_control_endpoints_veneer>:
100067a8:	b401      	push	{r0}
100067aa:	4802      	ldr	r0, [pc, #8]	; (100067b4 <__reset_non_control_endpoints_veneer+0xc>)
100067ac:	4684      	mov	ip, r0
100067ae:	bc01      	pop	{r0}
100067b0:	4760      	bx	ip
100067b2:	bf00      	nop
100067b4:	200002c9 	.word	0x200002c9

100067b8 <__hw_endpoint_reset_transfer_veneer>:
100067b8:	b401      	push	{r0}
100067ba:	4802      	ldr	r0, [pc, #8]	; (100067c4 <__hw_endpoint_reset_transfer_veneer+0xc>)
100067bc:	4684      	mov	ip, r0
100067be:	bc01      	pop	{r0}
100067c0:	4760      	bx	ip
100067c2:	bf00      	nop
100067c4:	200006eb 	.word	0x200006eb

100067c8 <__e15_is_critical_frame_period_veneer>:
100067c8:	b401      	push	{r0}
100067ca:	4802      	ldr	r0, [pc, #8]	; (100067d4 <__e15_is_critical_frame_period_veneer+0xc>)
100067cc:	4684      	mov	ip, r0
100067ce:	bc01      	pop	{r0}
100067d0:	4760      	bx	ip
100067d2:	bf00      	nop
100067d4:	2000061d 	.word	0x2000061d

100067d8 <___hw_endpoint_buffer_control_update32_veneer>:
100067d8:	b401      	push	{r0}
100067da:	4802      	ldr	r0, [pc, #8]	; (100067e4 <___hw_endpoint_buffer_control_update32_veneer+0xc>)
100067dc:	4684      	mov	ip, r0
100067de:	bc01      	pop	{r0}
100067e0:	4760      	bx	ip
100067e2:	bf00      	nop
100067e4:	200006f9 	.word	0x200006f9

100067e8 <__pre_init_runtime_init_bootrom_reset>:
100067e8:	10001af9                                ....

100067ec <__pre_init_runtime_init_early_resets>:
100067ec:	10001a71                                q...

100067f0 <__pre_init_runtime_init_usb_power_down>:
100067f0:	10001a9d                                ....

100067f4 <__pre_init_runtime_init_clocks>:
100067f4:	10001b6d                                m...

100067f8 <__pre_init_runtime_init_post_clock_resets>:
100067f8:	10001ad9                                ....

100067fc <__pre_init_runtime_init_boot_locks_reset>:
100067fc:	10001a15                                ....

10006800 <__pre_init_runtime_init_spin_locks_reset>:
10006800:	10001b1d                                ....

10006804 <__pre_init_runtime_init_bootrom_locking_enable>:
10006804:	100019e1                                ....

10006808 <__pre_init_runtime_init_mutex>:
10006808:	10000de5                                ....

1000680c <__pre_init_runtime_init_install_ram_vector_table>:
1000680c:	10001b25                                %...

10006810 <__pre_init_runtime_init_default_alarm_pool>:
10006810:	100015fd                                ....

10006814 <__pre_init_first_per_core_initializer>:
10006814:	10001a5d                                ]...

10006818 <__pre_init_runtime_init_per_core_bootrom_reset>:
10006818:	10001b0b                                ....

1000681c <__pre_init_runtime_init_per_core_enable_coprocessors>:
1000681c:	10001abd                                ....

10006820 <__pre_init_spinlock_set_extexclall>:
10006820:	10000865                                e...

10006824 <__pre_init_runtime_init_per_core_irq_priorities>:
10006824:	100008bd                                ....

10006828 <__frame_dummy_init_array_entry>:
10006828:	10000215 10003919                       .....9..

Disassembly of section .data:

20000110 <mutex_try_enter>:
20000110:	b500      	push	{lr}
20000112:	4603      	mov	r3, r0
20000114:	6802      	ldr	r2, [r0, #0]
20000116:	f3ef 8c10 	mrs	ip, PRIMASK
2000011a:	b672      	cpsid	i
2000011c:	e8d2 efcf 	ldaexb	lr, [r2]
20000120:	2001      	movs	r0, #1
20000122:	f1be 0f00 	cmp.w	lr, #0
20000126:	d1f9      	bne.n	2000011c <mutex_try_enter+0xc>
20000128:	e8c2 0f4e 	strexb	lr, r0, [r2]
2000012c:	f1be 0f00 	cmp.w	lr, #0
20000130:	d1f4      	bne.n	2000011c <mutex_try_enter+0xc>
20000132:	f3bf 8f5f 	dmb	sy
20000136:	f993 2004 	ldrsb.w	r2, [r3, #4]
2000013a:	2a00      	cmp	r2, #0
2000013c:	db0a      	blt.n	20000154 <mutex_try_enter+0x44>
2000013e:	b181      	cbz	r1, 20000162 <mutex_try_enter+0x52>
20000140:	600a      	str	r2, [r1, #0]
20000142:	2000      	movs	r0, #0
20000144:	681a      	ldr	r2, [r3, #0]
20000146:	2300      	movs	r3, #0
20000148:	e8c2 3f8f 	stlb	r3, [r2]
2000014c:	f38c 8810 	msr	PRIMASK, ip
20000150:	f85d fb04 	ldr.w	pc, [sp], #4
20000154:	f04f 4250 	mov.w	r2, #3489660928	; 0xd0000000
20000158:	f992 2000 	ldrsb.w	r2, [r2]
2000015c:	711a      	strb	r2, [r3, #4]
2000015e:	2001      	movs	r0, #1
20000160:	e7f0      	b.n	20000144 <mutex_try_enter+0x34>
20000162:	2000      	movs	r0, #0
20000164:	e7ee      	b.n	20000144 <mutex_try_enter+0x34>
	...

20000168 <mutex_enter_block_until>:
20000168:	b5f8      	push	{r3, r4, r5, r6, r7, lr}
2000016a:	461e      	mov	r6, r3
2000016c:	6803      	ldr	r3, [r0, #0]
2000016e:	2b00      	cmp	r3, #0
20000170:	d027      	beq.n	200001c2 <mutex_enter_block_until+0x5a>
20000172:	4604      	mov	r4, r0
20000174:	4615      	mov	r5, r2
20000176:	f04f 4350 	mov.w	r3, #3489660928	; 0xd0000000
2000017a:	f993 7000 	ldrsb.w	r7, [r3]
2000017e:	6821      	ldr	r1, [r4, #0]
20000180:	f3ef 8c10 	mrs	ip, PRIMASK
20000184:	b672      	cpsid	i
20000186:	e8d1 2fcf 	ldaexb	r2, [r1]
2000018a:	2301      	movs	r3, #1
2000018c:	2a00      	cmp	r2, #0
2000018e:	d1fa      	bne.n	20000186 <mutex_enter_block_until+0x1e>
20000190:	e8c1 3f42 	strexb	r2, r3, [r1]
20000194:	2a00      	cmp	r2, #0
20000196:	d1f6      	bne.n	20000186 <mutex_enter_block_until+0x1e>
20000198:	f3bf 8f5f 	dmb	sy
2000019c:	f994 e004 	ldrsb.w	lr, [r4, #4]
200001a0:	f1be 0f00 	cmp.w	lr, #0
200001a4:	db13      	blt.n	200001ce <mutex_enter_block_until+0x66>
200001a6:	6822      	ldr	r2, [r4, #0]
200001a8:	2300      	movs	r3, #0
200001aa:	e8c2 3f8f 	stlb	r3, [r2]
200001ae:	f38c 8810 	msr	PRIMASK, ip
200001b2:	4628      	mov	r0, r5
200001b4:	4631      	mov	r1, r6
200001b6:	f000 ffc7 	bl	20001148 <__best_effort_wfe_or_timeout_veneer>
200001ba:	2800      	cmp	r0, #0
200001bc:	d0df      	beq.n	2000017e <mutex_enter_block_until+0x16>
200001be:	2000      	movs	r0, #0
200001c0:	e00d      	b.n	200001de <mutex_enter_block_until+0x76>
200001c2:	4b07      	ldr	r3, [pc, #28]	; (200001e0 <mutex_enter_block_until+0x78>)
200001c4:	4a07      	ldr	r2, [pc, #28]	; (200001e4 <mutex_enter_block_until+0x7c>)
200001c6:	21a6      	movs	r1, #166	; 0xa6
200001c8:	4807      	ldr	r0, [pc, #28]	; (200001e8 <mutex_enter_block_until+0x80>)
200001ca:	f000 ffd5 	bl	20001178 <____assert_func_veneer>
200001ce:	7127      	strb	r7, [r4, #4]
200001d0:	6822      	ldr	r2, [r4, #0]
200001d2:	2300      	movs	r3, #0
200001d4:	e8c2 3f8f 	stlb	r3, [r2]
200001d8:	f38c 8810 	msr	PRIMASK, ip
200001dc:	2001      	movs	r0, #1
200001de:	bdf8      	pop	{r3, r4, r5, r6, r7, pc}
200001e0:	10006b6c 	.word	0x10006b6c
200001e4:	10006bc4 	.word	0x10006bc4
200001e8:	10006b34 	.word	0x10006b34

200001ec <mutex_try_enter_block_until>:
200001ec:	b570      	push	{r4, r5, r6, lr}
200001ee:	b082      	sub	sp, #8
200001f0:	4606      	mov	r6, r0
200001f2:	4615      	mov	r5, r2
200001f4:	461c      	mov	r4, r3
200001f6:	a901      	add	r1, sp, #4
200001f8:	f7ff ff8a 	bl	20000110 <mutex_try_enter>
200001fc:	b938      	cbnz	r0, 2000020e <mutex_try_enter_block_until+0x22>
200001fe:	f99d 2004 	ldrsb.w	r2, [sp, #4]
20000202:	f04f 4350 	mov.w	r3, #3489660928	; 0xd0000000
20000206:	f993 3000 	ldrsb.w	r3, [r3]
2000020a:	429a      	cmp	r2, r3
2000020c:	d101      	bne.n	20000212 <mutex_try_enter_block_until+0x26>
2000020e:	b002      	add	sp, #8
20000210:	bd70      	pop	{r4, r5, r6, pc}
20000212:	462a      	mov	r2, r5
20000214:	4623      	mov	r3, r4
20000216:	4630      	mov	r0, r6
20000218:	f7ff ffa6 	bl	20000168 <mutex_enter_block_until>
2000021c:	e7f7      	b.n	2000020e <mutex_try_enter_block_until+0x22>

2000021e <mutex_enter_timeout_ms>:
2000021e:	b538      	push	{r3, r4, r5, lr}
20000220:	4604      	mov	r4, r0
20000222:	460d      	mov	r5, r1
20000224:	f000 ff70 	bl	20001108 <__time_us_64_veneer>
20000228:	0eeb      	lsrs	r3, r5, #27
2000022a:	ea4f 1c45 	mov.w	ip, r5, lsl #5
2000022e:	ebbc 0c05 	subs.w	ip, ip, r5
20000232:	f163 0300 	sbc.w	r3, r3, #0
20000236:	009b      	lsls	r3, r3, #2
20000238:	ea43 739c 	orr.w	r3, r3, ip, lsr #30
2000023c:	ea4f 0c8c 	mov.w	ip, ip, lsl #2
20000240:	eb1c 0c05 	adds.w	ip, ip, r5
20000244:	f143 0300 	adc.w	r3, r3, #0
20000248:	00db      	lsls	r3, r3, #3
2000024a:	ea43 735c 	orr.w	r3, r3, ip, lsr #29
2000024e:	ea4f 0ccc 	mov.w	ip, ip, lsl #3
20000252:	eb10 020c 	adds.w	r2, r0, ip
20000256:	eb43 0301 	adc.w	r3, r3, r1
2000025a:	2b00      	cmp	r3, #0
2000025c:	db03      	blt.n	20000266 <mutex_enter_timeout_ms+0x48>
2000025e:	4620      	mov	r0, r4
20000260:	f7ff ff82 	bl	20000168 <mutex_enter_block_until>
20000264:	bd38      	pop	{r3, r4, r5, pc}
20000266:	f04f 32ff 	mov.w	r2, #4294967295
2000026a:	f06f 4300 	mvn.w	r3, #2147483648	; 0x80000000
2000026e:	e7f6      	b.n	2000025e <mutex_enter_timeout_ms+0x40>

20000270 <mutex_exit>:
20000270:	b508      	push	{r3, lr}
20000272:	6803      	ldr	r3, [r0, #0]
20000274:	f3ef 8210 	mrs	r2, PRIMASK
20000278:	b672      	cpsid	i
2000027a:	e8d3 cfcf 	ldaexb	ip, [r3]
2000027e:	2101      	movs	r1, #1
20000280:	f1bc 0f00 	cmp.w	ip, #0
20000284:	d1f9      	bne.n	2000027a <mutex_exit+0xa>
20000286:	e8c3 1f4c 	strexb	ip, r1, [r3]
2000028a:	f1bc 0f00 	cmp.w	ip, #0
2000028e:	d1f4      	bne.n	2000027a <mutex_exit+0xa>
20000290:	f3bf 8f5f 	dmb	sy
20000294:	f990 3004 	ldrsb.w	r3, [r0, #4]
20000298:	2b00      	cmp	r3, #0
2000029a:	db09      	blt.n	200002b0 <mutex_exit+0x40>
2000029c:	23ff      	movs	r3, #255	; 0xff
2000029e:	7103      	strb	r3, [r0, #4]
200002a0:	6801      	ldr	r1, [r0, #0]
200002a2:	2300      	movs	r3, #0
200002a4:	e8c1 3f8f 	stlb	r3, [r1]
200002a8:	f382 8810 	msr	PRIMASK, r2
200002ac:	bf40      	sev
200002ae:	bd08      	pop	{r3, pc}
200002b0:	4b02      	ldr	r3, [pc, #8]	; (200002bc <mutex_exit+0x4c>)
200002b2:	4a03      	ldr	r2, [pc, #12]	; (200002c0 <mutex_exit+0x50>)
200002b4:	21d5      	movs	r1, #213	; 0xd5
200002b6:	4803      	ldr	r0, [pc, #12]	; (200002c4 <mutex_exit+0x54>)
200002b8:	f000 ff5e 	bl	20001178 <____assert_func_veneer>
200002bc:	10006b80 	.word	0x10006b80
200002c0:	10006bb8 	.word	0x10006bb8
200002c4:	10006b34 	.word	0x10006b34

200002c8 <reset_non_control_endpoints>:
200002c8:	b508      	push	{r3, lr}
200002ca:	2300      	movs	r3, #0
200002cc:	e008      	b.n	200002e0 <reset_non_control_endpoints+0x18>
200002ce:	4a0a      	ldr	r2, [pc, #40]	; (200002f8 <reset_non_control_endpoints+0x30>)
200002d0:	3301      	adds	r3, #1
200002d2:	2100      	movs	r1, #0
200002d4:	f842 1033 	str.w	r1, [r2, r3, lsl #3]
200002d8:	eb02 02c3 	add.w	r2, r2, r3, lsl #3
200002dc:	6051      	str	r1, [r2, #4]
200002de:	b2db      	uxtb	r3, r3
200002e0:	2b0e      	cmp	r3, #14
200002e2:	d9f4      	bls.n	200002ce <reset_non_control_endpoints+0x6>
200002e4:	f44f 7270 	mov.w	r2, #960	; 0x3c0
200002e8:	2100      	movs	r1, #0
200002ea:	4804      	ldr	r0, [pc, #16]	; (200002fc <reset_non_control_endpoints+0x34>)
200002ec:	f000 ff34 	bl	20001158 <__memset_veneer>
200002f0:	4b03      	ldr	r3, [pc, #12]	; (20000300 <reset_non_control_endpoints+0x38>)
200002f2:	4a04      	ldr	r2, [pc, #16]	; (20000304 <reset_non_control_endpoints+0x3c>)
200002f4:	601a      	str	r2, [r3, #0]
200002f6:	bd08      	pop	{r3, pc}
200002f8:	50100000 	.word	0x50100000
200002fc:	20001bc4 	.word	0x20001bc4
20000300:	20001f88 	.word	0x20001f88
20000304:	50100180 	.word	0x50100180

20000308 <hw_handle_buff_status>:
20000308:	e92d 43f0 	stmdb	sp!, {r4, r5, r6, r7, r8, r9, lr}
2000030c:	b085      	sub	sp, #20
2000030e:	4b1f      	ldr	r3, [pc, #124]	; (2000038c <hw_handle_buff_status+0x84>)
20000310:	6d9e      	ldr	r6, [r3, #88]	; 0x58
20000312:	2400      	movs	r4, #0
20000314:	2501      	movs	r5, #1
20000316:	e004      	b.n	20000322 <hw_handle_buff_status+0x1a>
20000318:	ea26 0605 	bic.w	r6, r6, r5
2000031c:	006d      	lsls	r5, r5, #1
2000031e:	3401      	adds	r4, #1
20000320:	b2e4      	uxtb	r4, r4
20000322:	b386      	cbz	r6, 20000386 <hw_handle_buff_status+0x7e>
20000324:	2c1f      	cmp	r4, #31
20000326:	d82e      	bhi.n	20000386 <hw_handle_buff_status+0x7e>
20000328:	422e      	tst	r6, r5
2000032a:	d0f7      	beq.n	2000031c <hw_handle_buff_status+0x14>
2000032c:	4b18      	ldr	r3, [pc, #96]	; (20000390 <hw_handle_buff_status+0x88>)
2000032e:	659d      	str	r5, [r3, #88]	; 0x58
20000330:	ea4f 0954 	mov.w	r9, r4, lsr #1
20000334:	f084 0701 	eor.w	r7, r4, #1
20000338:	f007 0701 	and.w	r7, r7, #1
2000033c:	f004 08fe 	and.w	r8, r4, #254	; 0xfe
20000340:	eb08 0307 	add.w	r3, r8, r7
20000344:	4a13      	ldr	r2, [pc, #76]	; (20000394 <hw_handle_buff_status+0x8c>)
20000346:	eb02 1843 	add.w	r8, r2, r3, lsl #5
2000034a:	4640      	mov	r0, r8
2000034c:	f000 fa32 	bl	200007b4 <hw_endpoint_xfer_continue>
20000350:	2800      	cmp	r0, #0
20000352:	d0e1      	beq.n	20000318 <hw_handle_buff_status+0x10>
20000354:	eb07 0749 	add.w	r7, r7, r9, lsl #1
20000358:	4b0e      	ldr	r3, [pc, #56]	; (20000394 <hw_handle_buff_status+0x8c>)
2000035a:	eb03 1747 	add.w	r7, r3, r7, lsl #5
2000035e:	78b9      	ldrb	r1, [r7, #2]
20000360:	8afa      	ldrh	r2, [r7, #22]
20000362:	2300      	movs	r3, #0
20000364:	9301      	str	r3, [sp, #4]
20000366:	9302      	str	r3, [sp, #8]
20000368:	9303      	str	r3, [sp, #12]
2000036a:	2307      	movs	r3, #7
2000036c:	f88d 3005 	strb.w	r3, [sp, #5]
20000370:	f88d 1008 	strb.w	r1, [sp, #8]
20000374:	9203      	str	r2, [sp, #12]
20000376:	2101      	movs	r1, #1
20000378:	a801      	add	r0, sp, #4
2000037a:	f000 fa39 	bl	200007f0 <dcd_event_handler>
2000037e:	4640      	mov	r0, r8
20000380:	f000 f9b3 	bl	200006ea <hw_endpoint_reset_transfer>
20000384:	e7c8      	b.n	20000318 <hw_handle_buff_status+0x10>
20000386:	b005      	add	sp, #20
20000388:	e8bd 83f0 	ldmia.w	sp!, {r4, r5, r6, r7, r8, r9, pc}
2000038c:	50110000 	.word	0x50110000
20000390:	50113000 	.word	0x50113000
20000394:	20001b84 	.word	0x20001b84

20000398 <dcd_rp2040_irq>:
20000398:	e92d 43f0 	stmdb	sp!, {r4, r5, r6, r7, r8, r9, lr}
2000039c:	b085      	sub	sp, #20
2000039e:	4b74      	ldr	r3, [pc, #464]	; (20000570 <dcd_rp2040_irq+0x1d8>)
200003a0:	f8d3 5098 	ldr.w	r5, [r3, #152]	; 0x98
200003a4:	f415 3700 	ands.w	r7, r5, #131072	; 0x20000
200003a8:	d048      	beq.n	2000043c <dcd_rp2040_irq+0xa4>
200003aa:	4b72      	ldr	r3, [pc, #456]	; (20000574 <dcd_rp2040_irq+0x1dc>)
200003ac:	6a9a      	ldr	r2, [r3, #40]	; 0x28
200003ae:	4b72      	ldr	r3, [pc, #456]	; (20000578 <dcd_rp2040_irq+0x1e0>)
200003b0:	601a      	str	r2, [r3, #0]
200003b2:	2400      	movs	r4, #0
200003b4:	4627      	mov	r7, r4
200003b6:	e00a      	b.n	200003ce <dcd_rp2040_irq+0x36>
200003b8:	4b70      	ldr	r3, [pc, #448]	; (2000057c <dcd_rp2040_irq+0x1e4>)
200003ba:	eb03 1184 	add.w	r1, r3, r4, lsl #6
200003be:	2300      	movs	r3, #0
200003c0:	f881 303c 	strb.w	r3, [r1, #60]	; 0x3c
200003c4:	f000 f9be 	bl	20000744 <hw_endpoint_start_next_buffer>
200003c8:	4637      	mov	r7, r6
200003ca:	3401      	adds	r4, #1
200003cc:	b2e4      	uxtb	r4, r4
200003ce:	2c0f      	cmp	r4, #15
200003d0:	d819      	bhi.n	20000406 <dcd_rp2040_irq+0x6e>
200003d2:	4b6a      	ldr	r3, [pc, #424]	; (2000057c <dcd_rp2040_irq+0x1e4>)
200003d4:	01a2      	lsls	r2, r4, #6
200003d6:	f102 0020 	add.w	r0, r2, #32
200003da:	4418      	add	r0, r3
200003dc:	4413      	add	r3, r2
200003de:	f893 303b 	ldrb.w	r3, [r3, #59]	; 0x3b
200003e2:	2b02      	cmp	r3, #2
200003e4:	d1f1      	bne.n	200003ca <dcd_rp2040_irq+0x32>
200003e6:	4b65      	ldr	r3, [pc, #404]	; (2000057c <dcd_rp2040_irq+0x1e4>)
200003e8:	eb03 1384 	add.w	r3, r3, r4, lsl #6
200003ec:	f893 603a 	ldrb.w	r6, [r3, #58]	; 0x3a
200003f0:	2e00      	cmp	r6, #0
200003f2:	d0ea      	beq.n	200003ca <dcd_rp2040_irq+0x32>
200003f4:	4b61      	ldr	r3, [pc, #388]	; (2000057c <dcd_rp2040_irq+0x1e4>)
200003f6:	eb03 1384 	add.w	r3, r3, r4, lsl #6
200003fa:	f893 303c 	ldrb.w	r3, [r3, #60]	; 0x3c
200003fe:	2b00      	cmp	r3, #0
20000400:	d1da      	bne.n	200003b8 <dcd_rp2040_irq+0x20>
20000402:	4637      	mov	r7, r6
20000404:	e7e1      	b.n	200003ca <dcd_rp2040_irq+0x32>
20000406:	b93f      	cbnz	r7, 20000418 <dcd_rp2040_irq+0x80>
20000408:	4b5d      	ldr	r3, [pc, #372]	; (20000580 <dcd_rp2040_irq+0x1e8>)
2000040a:	781b      	ldrb	r3, [r3, #0]
2000040c:	b923      	cbnz	r3, 20000418 <dcd_rp2040_irq+0x80>
2000040e:	4b5d      	ldr	r3, [pc, #372]	; (20000584 <dcd_rp2040_irq+0x1ec>)
20000410:	f44f 3200 	mov.w	r2, #131072	; 0x20000
20000414:	f8c3 2090 	str.w	r2, [r3, #144]	; 0x90
20000418:	4b55      	ldr	r3, [pc, #340]	; (20000570 <dcd_rp2040_irq+0x1d8>)
2000041a:	6c9b      	ldr	r3, [r3, #72]	; 0x48
2000041c:	f3c3 030a 	ubfx	r3, r3, #0, #11
20000420:	2200      	movs	r2, #0
20000422:	9201      	str	r2, [sp, #4]
20000424:	9202      	str	r2, [sp, #8]
20000426:	9203      	str	r2, [sp, #12]
20000428:	2203      	movs	r2, #3
2000042a:	f88d 2005 	strb.w	r2, [sp, #5]
2000042e:	9302      	str	r3, [sp, #8]
20000430:	2101      	movs	r1, #1
20000432:	a801      	add	r0, sp, #4
20000434:	f000 f9dc 	bl	200007f0 <dcd_event_handler>
20000438:	f44f 3700 	mov.w	r7, #131072	; 0x20000
2000043c:	f015 0f10 	tst.w	r5, #16
20000440:	d106      	bne.n	20000450 <dcd_rp2040_irq+0xb8>
20000442:	f415 3f80 	tst.w	r5, #65536	; 0x10000
20000446:	d046      	beq.n	200004d6 <dcd_rp2040_irq+0x13e>
20000448:	f447 3780 	orr.w	r7, r7, #65536	; 0x10000
2000044c:	2400      	movs	r4, #0
2000044e:	e01f      	b.n	20000490 <dcd_rp2040_irq+0xf8>
20000450:	f047 0710 	orr.w	r7, r7, #16
20000454:	f7ff ff58 	bl	20000308 <hw_handle_buff_status>
20000458:	e7f3      	b.n	20000442 <dcd_rp2040_irq+0xaa>
2000045a:	2602      	movs	r6, #2
2000045c:	4b4a      	ldr	r3, [pc, #296]	; (20000588 <dcd_rp2040_irq+0x1f0>)
2000045e:	661e      	str	r6, [r3, #96]	; 0x60
20000460:	4b43      	ldr	r3, [pc, #268]	; (20000570 <dcd_rp2040_irq+0x1d8>)
20000462:	6e5b      	ldr	r3, [r3, #100]	; 0x64
20000464:	ea36 0303 	bics.w	r3, r6, r3
20000468:	d1fa      	bne.n	20000460 <dcd_rp2040_irq+0xc8>
2000046a:	f44f 5240 	mov.w	r2, #12288	; 0x3000
2000046e:	2100      	movs	r1, #0
20000470:	4640      	mov	r0, r8
20000472:	f000 f941 	bl	200006f8 <_hw_endpoint_buffer_control_update32>
20000476:	4640      	mov	r0, r8
20000478:	f000 f937 	bl	200006ea <hw_endpoint_reset_transfer>
2000047c:	4b41      	ldr	r3, [pc, #260]	; (20000584 <dcd_rp2040_irq+0x1ec>)
2000047e:	665e      	str	r6, [r3, #100]	; 0x64
20000480:	661e      	str	r6, [r3, #96]	; 0x60
20000482:	4b3e      	ldr	r3, [pc, #248]	; (2000057c <dcd_rp2040_irq+0x1e4>)
20000484:	eb03 1349 	add.w	r3, r3, r9, lsl #5
20000488:	2201      	movs	r2, #1
2000048a:	70da      	strb	r2, [r3, #3]
2000048c:	4414      	add	r4, r2
2000048e:	b2e4      	uxtb	r4, r4
20000490:	2c01      	cmp	r4, #1
20000492:	d80b      	bhi.n	200004ac <dcd_rp2040_irq+0x114>
20000494:	46a1      	mov	r9, r4
20000496:	4b39      	ldr	r3, [pc, #228]	; (2000057c <dcd_rp2040_irq+0x1e4>)
20000498:	eb03 1844 	add.w	r8, r3, r4, lsl #5
2000049c:	f898 301a 	ldrb.w	r3, [r8, #26]
200004a0:	2b00      	cmp	r3, #0
200004a2:	d0ee      	beq.n	20000482 <dcd_rp2040_irq+0xea>
200004a4:	2c00      	cmp	r4, #0
200004a6:	d0d8      	beq.n	2000045a <dcd_rp2040_irq+0xc2>
200004a8:	2601      	movs	r6, #1
200004aa:	e7d7      	b.n	2000045c <dcd_rp2040_irq+0xc4>
200004ac:	2300      	movs	r3, #0
200004ae:	9301      	str	r3, [sp, #4]
200004b0:	9302      	str	r3, [sp, #8]
200004b2:	9303      	str	r3, [sp, #12]
200004b4:	2306      	movs	r3, #6
200004b6:	f88d 3005 	strb.w	r3, [sp, #5]
200004ba:	4b34      	ldr	r3, [pc, #208]	; (2000058c <dcd_rp2040_irq+0x1f4>)
200004bc:	e893 0003 	ldmia.w	r3, {r0, r1}
200004c0:	ab04      	add	r3, sp, #16
200004c2:	e903 0003 	stmdb	r3, {r0, r1}
200004c6:	2101      	movs	r1, #1
200004c8:	a801      	add	r0, sp, #4
200004ca:	f000 f991 	bl	200007f0 <dcd_event_handler>
200004ce:	4b2d      	ldr	r3, [pc, #180]	; (20000584 <dcd_rp2040_irq+0x1ec>)
200004d0:	f44f 3200 	mov.w	r2, #131072	; 0x20000
200004d4:	651a      	str	r2, [r3, #80]	; 0x50
200004d6:	f415 5f80 	tst.w	r5, #4096	; 0x1000
200004da:	d10a      	bne.n	200004f2 <dcd_rp2040_irq+0x15a>
200004dc:	f415 4f80 	tst.w	r5, #16384	; 0x4000
200004e0:	d11c      	bne.n	2000051c <dcd_rp2040_irq+0x184>
200004e2:	f415 4f00 	tst.w	r5, #32768	; 0x8000
200004e6:	d12b      	bne.n	20000540 <dcd_rp2040_irq+0x1a8>
200004e8:	42af      	cmp	r7, r5
200004ea:	d13b      	bne.n	20000564 <dcd_rp2040_irq+0x1cc>
200004ec:	b005      	add	sp, #20
200004ee:	e8bd 83f0 	ldmia.w	sp!, {r4, r5, r6, r7, r8, r9, pc}
200004f2:	f447 5780 	orr.w	r7, r7, #4096	; 0x1000
200004f6:	2400      	movs	r4, #0
200004f8:	4b1d      	ldr	r3, [pc, #116]	; (20000570 <dcd_rp2040_irq+0x1d8>)
200004fa:	601c      	str	r4, [r3, #0]
200004fc:	f7ff fee4 	bl	200002c8 <reset_non_control_endpoints>
20000500:	9401      	str	r4, [sp, #4]
20000502:	9402      	str	r4, [sp, #8]
20000504:	9403      	str	r4, [sp, #12]
20000506:	2101      	movs	r1, #1
20000508:	f88d 1005 	strb.w	r1, [sp, #5]
2000050c:	a801      	add	r0, sp, #4
2000050e:	f000 f96f 	bl	200007f0 <dcd_event_handler>
20000512:	4b1c      	ldr	r3, [pc, #112]	; (20000584 <dcd_rp2040_irq+0x1ec>)
20000514:	f44f 2200 	mov.w	r2, #524288	; 0x80000
20000518:	651a      	str	r2, [r3, #80]	; 0x50
2000051a:	e7df      	b.n	200004dc <dcd_rp2040_irq+0x144>
2000051c:	f447 4780 	orr.w	r7, r7, #16384	; 0x4000
20000520:	2300      	movs	r3, #0
20000522:	9301      	str	r3, [sp, #4]
20000524:	9302      	str	r3, [sp, #8]
20000526:	9303      	str	r3, [sp, #12]
20000528:	2304      	movs	r3, #4
2000052a:	f88d 3005 	strb.w	r3, [sp, #5]
2000052e:	2101      	movs	r1, #1
20000530:	eb0d 0003 	add.w	r0, sp, r3
20000534:	f000 f95c 	bl	200007f0 <dcd_event_handler>
20000538:	4b12      	ldr	r3, [pc, #72]	; (20000584 <dcd_rp2040_irq+0x1ec>)
2000053a:	2210      	movs	r2, #16
2000053c:	651a      	str	r2, [r3, #80]	; 0x50
2000053e:	e7d0      	b.n	200004e2 <dcd_rp2040_irq+0x14a>
20000540:	f447 4700 	orr.w	r7, r7, #32768	; 0x8000
20000544:	2300      	movs	r3, #0
20000546:	9301      	str	r3, [sp, #4]
20000548:	9302      	str	r3, [sp, #8]
2000054a:	9303      	str	r3, [sp, #12]
2000054c:	2305      	movs	r3, #5
2000054e:	f88d 3005 	strb.w	r3, [sp, #5]
20000552:	2101      	movs	r1, #1
20000554:	a801      	add	r0, sp, #4
20000556:	f000 f94b 	bl	200007f0 <dcd_event_handler>
2000055a:	4b0a      	ldr	r3, [pc, #40]	; (20000584 <dcd_rp2040_irq+0x1ec>)
2000055c:	f44f 6200 	mov.w	r2, #2048	; 0x800
20000560:	651a      	str	r2, [r3, #80]	; 0x50
20000562:	e7c1      	b.n	200004e8 <dcd_rp2040_irq+0x150>
20000564:	ea87 0105 	eor.w	r1, r7, r5
20000568:	4809      	ldr	r0, [pc, #36]	; (20000590 <dcd_rp2040_irq+0x1f8>)
2000056a:	f000 fdfd 	bl	20001168 <__panic_veneer>
2000056e:	bf00      	nop
20000570:	50110000 	.word	0x50110000
20000574:	400b0000 	.word	0x400b0000
20000578:	20001b7c 	.word	0x20001b7c
2000057c:	20001b84 	.word	0x20001b84
20000580:	20001fda 	.word	0x20001fda
20000584:	50113000 	.word	0x50113000
20000588:	50112000 	.word	0x50112000
2000058c:	50100000 	.word	0x50100000
20000590:	100072a8 	.word	0x100072a8

20000594 <prepare_ep_buffer>:
20000594:	b5f8      	push	{r3, r4, r5, r6, r7, lr}
20000596:	4604      	mov	r4, r0
20000598:	460f      	mov	r7, r1
2000059a:	8a83      	ldrh	r3, [r0, #20]
2000059c:	8b06      	ldrh	r6, [r0, #24]
2000059e:	429e      	cmp	r6, r3
200005a0:	bf28      	it	cs
200005a2:	461e      	movcs	r6, r3
200005a4:	1b9b      	subs	r3, r3, r6
200005a6:	8283      	strh	r3, [r0, #20]
200005a8:	f446 6280 	orr.w	r2, r6, #1024	; 0x400
200005ac:	78c3      	ldrb	r3, [r0, #3]
200005ae:	b17b      	cbz	r3, 200005d0 <prepare_ep_buffer+0x3c>
200005b0:	f44f 5500 	mov.w	r5, #8192	; 0x2000
200005b4:	4315      	orrs	r5, r2
200005b6:	f083 0301 	eor.w	r3, r3, #1
200005ba:	70e3      	strb	r3, [r4, #3]
200005bc:	7863      	ldrb	r3, [r4, #1]
200005be:	b14b      	cbz	r3, 200005d4 <prepare_ep_buffer+0x40>
200005c0:	8aa3      	ldrh	r3, [r4, #20]
200005c2:	b90b      	cbnz	r3, 200005c8 <prepare_ep_buffer+0x34>
200005c4:	f445 4580 	orr.w	r5, r5, #16384	; 0x4000
200005c8:	b107      	cbz	r7, 200005cc <prepare_ep_buffer+0x38>
200005ca:	042d      	lsls	r5, r5, #16
200005cc:	4628      	mov	r0, r5
200005ce:	bdf8      	pop	{r3, r4, r5, r6, r7, pc}
200005d0:	2500      	movs	r5, #0
200005d2:	e7ef      	b.n	200005b4 <prepare_ep_buffer+0x20>
200005d4:	68e0      	ldr	r0, [r4, #12]
200005d6:	4632      	mov	r2, r6
200005d8:	6921      	ldr	r1, [r4, #16]
200005da:	eb00 1087 	add.w	r0, r0, r7, lsl #6
200005de:	f000 fd8b 	bl	200010f8 <__unaligned_memcpy_veneer>
200005e2:	6923      	ldr	r3, [r4, #16]
200005e4:	4433      	add	r3, r6
200005e6:	6123      	str	r3, [r4, #16]
200005e8:	f445 4500 	orr.w	r5, r5, #32768	; 0x8000
200005ec:	e7e8      	b.n	200005c0 <prepare_ep_buffer+0x2c>
	...

200005f0 <e15_is_bulkin_ep>:
200005f0:	4b09      	ldr	r3, [pc, #36]	; (20000618 <e15_is_bulkin_ep+0x28>)
200005f2:	6c1b      	ldr	r3, [r3, #64]	; 0x40
200005f4:	f013 0f02 	tst.w	r3, #2
200005f8:	d10b      	bne.n	20000612 <e15_is_bulkin_ep+0x22>
200005fa:	7883      	ldrb	r3, [r0, #2]
200005fc:	09db      	lsrs	r3, r3, #7
200005fe:	d101      	bne.n	20000604 <e15_is_bulkin_ep+0x14>
20000600:	2000      	movs	r0, #0
20000602:	4770      	bx	lr
20000604:	7ec3      	ldrb	r3, [r0, #27]
20000606:	2b02      	cmp	r3, #2
20000608:	d001      	beq.n	2000060e <e15_is_bulkin_ep+0x1e>
2000060a:	2000      	movs	r0, #0
2000060c:	4770      	bx	lr
2000060e:	2001      	movs	r0, #1
20000610:	4770      	bx	lr
20000612:	2000      	movs	r0, #0
20000614:	4770      	bx	lr
20000616:	bf00      	nop
20000618:	50110000 	.word	0x50110000

2000061c <e15_is_critical_frame_period>:
2000061c:	b508      	push	{r3, lr}
2000061e:	f7ff ffe7 	bl	200005f0 <e15_is_bulkin_ep>
20000622:	b140      	cbz	r0, 20000636 <e15_is_critical_frame_period+0x1a>
20000624:	4b05      	ldr	r3, [pc, #20]	; (2000063c <e15_is_critical_frame_period+0x20>)
20000626:	6a9b      	ldr	r3, [r3, #40]	; 0x28
20000628:	4a05      	ldr	r2, [pc, #20]	; (20000640 <e15_is_critical_frame_period+0x24>)
2000062a:	6812      	ldr	r2, [r2, #0]
2000062c:	1a9b      	subs	r3, r3, r2
2000062e:	f5a3 7348 	sub.w	r3, r3, #800	; 0x320
20000632:	2bc6      	cmp	r3, #198	; 0xc6
20000634:	d800      	bhi.n	20000638 <e15_is_critical_frame_period+0x1c>
20000636:	bd08      	pop	{r3, pc}
20000638:	2000      	movs	r0, #0
2000063a:	e7fc      	b.n	20000636 <e15_is_critical_frame_period+0x1a>
2000063c:	400b0000 	.word	0x400b0000
20000640:	20001b7c 	.word	0x20001b7c

20000644 <sync_ep_buffer>:
20000644:	b538      	push	{r3, r4, r5, lr}
20000646:	4604      	mov	r4, r0
20000648:	6883      	ldr	r3, [r0, #8]
2000064a:	681b      	ldr	r3, [r3, #0]
2000064c:	4608      	mov	r0, r1
2000064e:	b101      	cbz	r1, 20000652 <sync_ep_buffer+0xe>
20000650:	0c1b      	lsrs	r3, r3, #16
20000652:	f3c3 0509 	ubfx	r5, r3, #0, #10
20000656:	7862      	ldrb	r2, [r4, #1]
20000658:	b992      	cbnz	r2, 20000680 <sync_ep_buffer+0x3c>
2000065a:	f413 4f00 	tst.w	r3, #32768	; 0x8000
2000065e:	d109      	bne.n	20000674 <sync_ep_buffer+0x30>
20000660:	8ae3      	ldrh	r3, [r4, #22]
20000662:	442b      	add	r3, r5
20000664:	82e3      	strh	r3, [r4, #22]
20000666:	8b23      	ldrh	r3, [r4, #24]
20000668:	42ab      	cmp	r3, r5
2000066a:	d901      	bls.n	20000670 <sync_ep_buffer+0x2c>
2000066c:	2300      	movs	r3, #0
2000066e:	82a3      	strh	r3, [r4, #20]
20000670:	4628      	mov	r0, r5
20000672:	bd38      	pop	{r3, r4, r5, pc}
20000674:	4b0e      	ldr	r3, [pc, #56]	; (200006b0 <sync_ep_buffer+0x6c>)
20000676:	4a0f      	ldr	r2, [pc, #60]	; (200006b4 <sync_ep_buffer+0x70>)
20000678:	21e8      	movs	r1, #232	; 0xe8
2000067a:	480f      	ldr	r0, [pc, #60]	; (200006b8 <sync_ep_buffer+0x74>)
2000067c:	f000 fd7c 	bl	20001178 <____assert_func_veneer>
20000680:	f413 4f00 	tst.w	r3, #32768	; 0x8000
20000684:	d00d      	beq.n	200006a2 <sync_ep_buffer+0x5e>
20000686:	68e1      	ldr	r1, [r4, #12]
20000688:	462a      	mov	r2, r5
2000068a:	eb01 1180 	add.w	r1, r1, r0, lsl #6
2000068e:	6920      	ldr	r0, [r4, #16]
20000690:	f000 fd32 	bl	200010f8 <__unaligned_memcpy_veneer>
20000694:	8ae3      	ldrh	r3, [r4, #22]
20000696:	442b      	add	r3, r5
20000698:	82e3      	strh	r3, [r4, #22]
2000069a:	6923      	ldr	r3, [r4, #16]
2000069c:	442b      	add	r3, r5
2000069e:	6123      	str	r3, [r4, #16]
200006a0:	e7e1      	b.n	20000666 <sync_ep_buffer+0x22>
200006a2:	4b06      	ldr	r3, [pc, #24]	; (200006bc <sync_ep_buffer+0x78>)
200006a4:	4a03      	ldr	r2, [pc, #12]	; (200006b4 <sync_ep_buffer+0x70>)
200006a6:	21ee      	movs	r1, #238	; 0xee
200006a8:	4803      	ldr	r0, [pc, #12]	; (200006b8 <sync_ep_buffer+0x74>)
200006aa:	f000 fd65 	bl	20001178 <____assert_func_veneer>
200006ae:	bf00      	nop
200006b0:	10007328 	.word	0x10007328
200006b4:	10007434 	.word	0x10007434
200006b8:	10007348 	.word	0x10007348
200006bc:	10007394 	.word	0x10007394

200006c0 <_hw_endpoint_xfer_sync>:
200006c0:	b510      	push	{r4, lr}
200006c2:	4604      	mov	r4, r0
200006c4:	6883      	ldr	r3, [r0, #8]
200006c6:	681b      	ldr	r3, [r3, #0]
200006c8:	2100      	movs	r1, #0
200006ca:	f7ff ffbb 	bl	20000644 <sync_ep_buffer>
200006ce:	6863      	ldr	r3, [r4, #4]
200006d0:	681b      	ldr	r3, [r3, #0]
200006d2:	f013 4f80 	tst.w	r3, #1073741824	; 0x40000000
200006d6:	d002      	beq.n	200006de <_hw_endpoint_xfer_sync+0x1e>
200006d8:	8b23      	ldrh	r3, [r4, #24]
200006da:	4283      	cmp	r3, r0
200006dc:	d000      	beq.n	200006e0 <_hw_endpoint_xfer_sync+0x20>
200006de:	bd10      	pop	{r4, pc}
200006e0:	2101      	movs	r1, #1
200006e2:	4620      	mov	r0, r4
200006e4:	f7ff ffae 	bl	20000644 <sync_ep_buffer>
200006e8:	e7f9      	b.n	200006de <_hw_endpoint_xfer_sync+0x1e>

200006ea <hw_endpoint_reset_transfer>:
200006ea:	2300      	movs	r3, #0
200006ec:	7683      	strb	r3, [r0, #26]
200006ee:	8283      	strh	r3, [r0, #20]
200006f0:	82c3      	strh	r3, [r0, #22]
200006f2:	6103      	str	r3, [r0, #16]
200006f4:	4770      	bx	lr
	...

200006f8 <_hw_endpoint_buffer_control_update32>:
200006f8:	b508      	push	{r3, lr}
200006fa:	460b      	mov	r3, r1
200006fc:	b111      	cbz	r1, 20000704 <_hw_endpoint_buffer_control_update32+0xc>
200006fe:	6881      	ldr	r1, [r0, #8]
20000700:	6809      	ldr	r1, [r1, #0]
20000702:	400b      	ands	r3, r1
20000704:	b19a      	cbz	r2, 2000072e <_hw_endpoint_buffer_control_update32+0x36>
20000706:	4313      	orrs	r3, r2
20000708:	f412 6f80 	tst.w	r2, #1024	; 0x400
2000070c:	d00f      	beq.n	2000072e <_hw_endpoint_buffer_control_update32+0x36>
2000070e:	6882      	ldr	r2, [r0, #8]
20000710:	6811      	ldr	r1, [r2, #0]
20000712:	f411 6f80 	tst.w	r1, #1024	; 0x400
20000716:	d10d      	bne.n	20000734 <_hw_endpoint_buffer_control_update32+0x3c>
20000718:	f423 6180 	bic.w	r1, r3, #1024	; 0x400
2000071c:	6011      	str	r1, [r2, #0]
2000071e:	4a07      	ldr	r2, [pc, #28]	; (2000073c <_hw_endpoint_buffer_control_update32+0x44>)
20000720:	6c12      	ldr	r2, [r2, #64]	; 0x40
20000722:	f012 0f02 	tst.w	r2, #2
20000726:	d102      	bne.n	2000072e <_hw_endpoint_buffer_control_update32+0x36>
20000728:	220c      	movs	r2, #12
2000072a:	3a03      	subs	r2, #3
2000072c:	d2fd      	bcs.n	2000072a <_hw_endpoint_buffer_control_update32+0x32>
2000072e:	6882      	ldr	r2, [r0, #8]
20000730:	6013      	str	r3, [r2, #0]
20000732:	bd08      	pop	{r3, pc}
20000734:	7881      	ldrb	r1, [r0, #2]
20000736:	4802      	ldr	r0, [pc, #8]	; (20000740 <_hw_endpoint_buffer_control_update32+0x48>)
20000738:	f000 fd16 	bl	20001168 <__panic_veneer>
2000073c:	50110000 	.word	0x50110000
20000740:	100073b4 	.word	0x100073b4

20000744 <hw_endpoint_start_next_buffer>:
20000744:	b570      	push	{r4, r5, r6, lr}
20000746:	4604      	mov	r4, r0
20000748:	6843      	ldr	r3, [r0, #4]
2000074a:	681d      	ldr	r5, [r3, #0]
2000074c:	2100      	movs	r1, #0
2000074e:	f7ff ff21 	bl	20000594 <prepare_ep_buffer>
20000752:	f440 5680 	orr.w	r6, r0, #4096	; 0x1000
20000756:	4b16      	ldr	r3, [pc, #88]	; (200007b0 <hw_endpoint_start_next_buffer+0x6c>)
20000758:	6c1b      	ldr	r3, [r3, #64]	; 0x40
2000075a:	f013 0302 	ands.w	r3, r3, #2
2000075e:	d102      	bne.n	20000766 <hw_endpoint_start_next_buffer+0x22>
20000760:	78a2      	ldrb	r2, [r4, #2]
20000762:	09d2      	lsrs	r2, r2, #7
20000764:	d006      	beq.n	20000774 <hw_endpoint_start_next_buffer+0x30>
20000766:	b13b      	cbz	r3, 20000778 <hw_endpoint_start_next_buffer+0x34>
20000768:	78a3      	ldrb	r3, [r4, #2]
2000076a:	f013 0f7f 	tst.w	r3, #127	; 0x7f
2000076e:	d113      	bne.n	20000798 <hw_endpoint_start_next_buffer+0x54>
20000770:	2300      	movs	r3, #0
20000772:	e002      	b.n	2000077a <hw_endpoint_start_next_buffer+0x36>
20000774:	2301      	movs	r3, #1
20000776:	e000      	b.n	2000077a <hw_endpoint_start_next_buffer+0x36>
20000778:	2300      	movs	r3, #0
2000077a:	8aa2      	ldrh	r2, [r4, #20]
2000077c:	b102      	cbz	r2, 20000780 <hw_endpoint_start_next_buffer+0x3c>
2000077e:	b16b      	cbz	r3, 2000079c <hw_endpoint_start_next_buffer+0x58>
20000780:	f025 45a0 	bic.w	r5, r5, #1342177280	; 0x50000000
20000784:	f045 5500 	orr.w	r5, r5, #536870912	; 0x20000000
20000788:	6863      	ldr	r3, [r4, #4]
2000078a:	601d      	str	r5, [r3, #0]
2000078c:	4632      	mov	r2, r6
2000078e:	2100      	movs	r1, #0
20000790:	4620      	mov	r0, r4
20000792:	f7ff ffb1 	bl	200006f8 <_hw_endpoint_buffer_control_update32>
20000796:	bd70      	pop	{r4, r5, r6, pc}
20000798:	2301      	movs	r3, #1
2000079a:	e7ee      	b.n	2000077a <hw_endpoint_start_next_buffer+0x36>
2000079c:	2101      	movs	r1, #1
2000079e:	4620      	mov	r0, r4
200007a0:	f7ff fef8 	bl	20000594 <prepare_ep_buffer>
200007a4:	4306      	orrs	r6, r0
200007a6:	f025 5500 	bic.w	r5, r5, #536870912	; 0x20000000
200007aa:	f045 45a0 	orr.w	r5, r5, #1342177280	; 0x50000000
200007ae:	e7eb      	b.n	20000788 <hw_endpoint_start_next_buffer+0x44>
200007b0:	50110000 	.word	0x50110000

200007b4 <hw_endpoint_xfer_continue>:
200007b4:	b538      	push	{r3, r4, r5, lr}
200007b6:	4604      	mov	r4, r0
200007b8:	7e85      	ldrb	r5, [r0, #26]
200007ba:	b12d      	cbz	r5, 200007c8 <hw_endpoint_xfer_continue+0x14>
200007bc:	f7ff ff80 	bl	200006c0 <_hw_endpoint_xfer_sync>
200007c0:	8aa3      	ldrh	r3, [r4, #20]
200007c2:	b92b      	cbnz	r3, 200007d0 <hw_endpoint_xfer_continue+0x1c>
200007c4:	4628      	mov	r0, r5
200007c6:	bd38      	pop	{r3, r4, r5, pc}
200007c8:	7881      	ldrb	r1, [r0, #2]
200007ca:	4808      	ldr	r0, [pc, #32]	; (200007ec <hw_endpoint_xfer_continue+0x38>)
200007cc:	f000 fccc 	bl	20001168 <__panic_veneer>
200007d0:	4620      	mov	r0, r4
200007d2:	f7ff ff23 	bl	2000061c <e15_is_critical_frame_period>
200007d6:	4605      	mov	r5, r0
200007d8:	b118      	cbz	r0, 200007e2 <hw_endpoint_xfer_continue+0x2e>
200007da:	2301      	movs	r3, #1
200007dc:	7723      	strb	r3, [r4, #28]
200007de:	2500      	movs	r5, #0
200007e0:	e7f0      	b.n	200007c4 <hw_endpoint_xfer_continue+0x10>
200007e2:	4620      	mov	r0, r4
200007e4:	f7ff ffae 	bl	20000744 <hw_endpoint_start_next_buffer>
200007e8:	e7ec      	b.n	200007c4 <hw_endpoint_xfer_continue+0x10>
200007ea:	bf00      	nop
200007ec:	100073d4 	.word	0x100073d4

200007f0 <dcd_event_handler>:
200007f0:	b5f0      	push	{r4, r5, r6, r7, lr}
200007f2:	b085      	sub	sp, #20
200007f4:	4605      	mov	r5, r0
200007f6:	460e      	mov	r6, r1
200007f8:	7843      	ldrb	r3, [r0, #1]
200007fa:	3b02      	subs	r3, #2
200007fc:	2b04      	cmp	r3, #4
200007fe:	d815      	bhi.n	2000082c <dcd_event_handler+0x3c>
20000800:	e8df f013 	tbh	[pc, r3, lsl #1]
20000804:	00710005 	.word	0x00710005
20000808:	004a003f 	.word	0x004a003f
2000080c:	0108      	.short	0x0108
2000080e:	4b8c      	ldr	r3, [pc, #560]	; (20000a40 <dcd_event_handler+0x250>)
20000810:	781a      	ldrb	r2, [r3, #0]
20000812:	f36f 0200 	bfc	r2, #0, #1
20000816:	701a      	strb	r2, [r3, #0]
20000818:	781a      	ldrb	r2, [r3, #0]
2000081a:	f36f 0241 	bfc	r2, #1, #1
2000081e:	701a      	strb	r2, [r3, #0]
20000820:	2100      	movs	r1, #0
20000822:	7059      	strb	r1, [r3, #1]
20000824:	781a      	ldrb	r2, [r3, #0]
20000826:	f361 0282 	bfi	r2, r1, #2, #1
2000082a:	701a      	strb	r2, [r3, #0]
2000082c:	4b85      	ldr	r3, [pc, #532]	; (20000a44 <dcd_event_handler+0x254>)
2000082e:	681c      	ldr	r4, [r3, #0]
20000830:	f104 0214 	add.w	r2, r4, #20
20000834:	6963      	ldr	r3, [r4, #20]
20000836:	f3ef 8110 	mrs	r1, PRIMASK
2000083a:	b672      	cpsid	i
2000083c:	e8d3 cfcf 	ldaexb	ip, [r3]
20000840:	2001      	movs	r0, #1
20000842:	f1bc 0f00 	cmp.w	ip, #0
20000846:	d1f9      	bne.n	2000083c <dcd_event_handler+0x4c>
20000848:	e8c3 0f4c 	strexb	ip, r0, [r3]
2000084c:	f1bc 0f00 	cmp.w	ip, #0
20000850:	d1f4      	bne.n	2000083c <dcd_event_handler+0x4c>
20000852:	f3bf 8f5f 	dmb	sy
20000856:	6051      	str	r1, [r2, #4]
20000858:	4629      	mov	r1, r5
2000085a:	4620      	mov	r0, r4
2000085c:	f000 fc5c 	bl	20001118 <__tu_fifo_write_veneer>
20000860:	6961      	ldr	r1, [r4, #20]
20000862:	69a3      	ldr	r3, [r4, #24]
20000864:	2200      	movs	r2, #0
20000866:	e8c1 2f8f 	stlb	r2, [r1]
2000086a:	f383 8810 	msr	PRIMASK, r3
2000086e:	2800      	cmp	r0, #0
20000870:	f000 80d6 	beq.w	20000a20 <dcd_event_handler+0x230>
20000874:	4632      	mov	r2, r6
20000876:	7869      	ldrb	r1, [r5, #1]
20000878:	7828      	ldrb	r0, [r5, #0]
2000087a:	f000 fc5d 	bl	20001138 <__tud_event_hook_cb_veneer>
2000087e:	b005      	add	sp, #20
20000880:	bdf0      	pop	{r4, r5, r6, r7, pc}
20000882:	4b6f      	ldr	r3, [pc, #444]	; (20000a40 <dcd_event_handler+0x250>)
20000884:	781b      	ldrb	r3, [r3, #0]
20000886:	f013 0f01 	tst.w	r3, #1
2000088a:	d0f8      	beq.n	2000087e <dcd_event_handler+0x8e>
2000088c:	4a6c      	ldr	r2, [pc, #432]	; (20000a40 <dcd_event_handler+0x250>)
2000088e:	7813      	ldrb	r3, [r2, #0]
20000890:	f043 0304 	orr.w	r3, r3, #4
20000894:	7013      	strb	r3, [r2, #0]
20000896:	e7c9      	b.n	2000082c <dcd_event_handler+0x3c>
20000898:	4b69      	ldr	r3, [pc, #420]	; (20000a40 <dcd_event_handler+0x250>)
2000089a:	781b      	ldrb	r3, [r3, #0]
2000089c:	f013 0f01 	tst.w	r3, #1
200008a0:	d0ed      	beq.n	2000087e <dcd_event_handler+0x8e>
200008a2:	4a67      	ldr	r2, [pc, #412]	; (20000a40 <dcd_event_handler+0x250>)
200008a4:	7813      	ldrb	r3, [r2, #0]
200008a6:	f36f 0382 	bfc	r3, #2, #1
200008aa:	7013      	strb	r3, [r2, #0]
200008ac:	e7be      	b.n	2000082c <dcd_event_handler+0x3c>
200008ae:	1ad2      	subs	r2, r2, r3
200008b0:	4b65      	ldr	r3, [pc, #404]	; (20000a48 <dcd_event_handler+0x258>)
200008b2:	eb03 1342 	add.w	r3, r3, r2, lsl #5
200008b6:	e00d      	b.n	200008d4 <dcd_event_handler+0xe4>
200008b8:	3401      	adds	r4, #1
200008ba:	b2e4      	uxtb	r4, r4
200008bc:	4b63      	ldr	r3, [pc, #396]	; (20000a4c <dcd_event_handler+0x25c>)
200008be:	781b      	ldrb	r3, [r3, #0]
200008c0:	1c59      	adds	r1, r3, #1
200008c2:	4622      	mov	r2, r4
200008c4:	42a1      	cmp	r1, r4
200008c6:	db10      	blt.n	200008ea <dcd_event_handler+0xfa>
200008c8:	42a3      	cmp	r3, r4
200008ca:	d9f0      	bls.n	200008ae <dcd_event_handler+0xbe>
200008cc:	4b60      	ldr	r3, [pc, #384]	; (20000a50 <dcd_event_handler+0x260>)
200008ce:	681b      	ldr	r3, [r3, #0]
200008d0:	eb03 1344 	add.w	r3, r3, r4, lsl #5
200008d4:	2b00      	cmp	r3, #0
200008d6:	d0ef      	beq.n	200008b8 <dcd_event_handler+0xc8>
200008d8:	69db      	ldr	r3, [r3, #28]
200008da:	2b00      	cmp	r3, #0
200008dc:	d0ec      	beq.n	200008b8 <dcd_event_handler+0xc8>
200008de:	6869      	ldr	r1, [r5, #4]
200008e0:	7828      	ldrb	r0, [r5, #0]
200008e2:	4798      	blx	r3
200008e4:	e7e8      	b.n	200008b8 <dcd_event_handler+0xc8>
200008e6:	2400      	movs	r4, #0
200008e8:	e7e8      	b.n	200008bc <dcd_event_handler+0xcc>
200008ea:	4b55      	ldr	r3, [pc, #340]	; (20000a40 <dcd_event_handler+0x250>)
200008ec:	781b      	ldrb	r3, [r3, #0]
200008ee:	f013 0f04 	tst.w	r3, #4
200008f2:	d138      	bne.n	20000966 <dcd_event_handler+0x176>
200008f4:	4b52      	ldr	r3, [pc, #328]	; (20000a40 <dcd_event_handler+0x250>)
200008f6:	78db      	ldrb	r3, [r3, #3]
200008f8:	f013 0f01 	tst.w	r3, #1
200008fc:	d0bf      	beq.n	2000087e <dcd_event_handler+0x8e>
200008fe:	2700      	movs	r7, #0
20000900:	9701      	str	r7, [sp, #4]
20000902:	9702      	str	r7, [sp, #8]
20000904:	9703      	str	r7, [sp, #12]
20000906:	782b      	ldrb	r3, [r5, #0]
20000908:	f88d 3004 	strb.w	r3, [sp, #4]
2000090c:	2303      	movs	r3, #3
2000090e:	f88d 3005 	strb.w	r3, [sp, #5]
20000912:	686b      	ldr	r3, [r5, #4]
20000914:	9302      	str	r3, [sp, #8]
20000916:	4b4b      	ldr	r3, [pc, #300]	; (20000a44 <dcd_event_handler+0x254>)
20000918:	681c      	ldr	r4, [r3, #0]
2000091a:	f104 0214 	add.w	r2, r4, #20
2000091e:	6963      	ldr	r3, [r4, #20]
20000920:	f3ef 8110 	mrs	r1, PRIMASK
20000924:	b672      	cpsid	i
20000926:	e8d3 5fcf 	ldaexb	r5, [r3]
2000092a:	2001      	movs	r0, #1
2000092c:	2d00      	cmp	r5, #0
2000092e:	d1fa      	bne.n	20000926 <dcd_event_handler+0x136>
20000930:	e8c3 0f45 	strexb	r5, r0, [r3]
20000934:	2d00      	cmp	r5, #0
20000936:	d1f6      	bne.n	20000926 <dcd_event_handler+0x136>
20000938:	f3bf 8f5f 	dmb	sy
2000093c:	6051      	str	r1, [r2, #4]
2000093e:	a901      	add	r1, sp, #4
20000940:	4620      	mov	r0, r4
20000942:	f000 fbe9 	bl	20001118 <__tu_fifo_write_veneer>
20000946:	6962      	ldr	r2, [r4, #20]
20000948:	69a3      	ldr	r3, [r4, #24]
2000094a:	e8c2 7f8f 	stlb	r7, [r2]
2000094e:	f383 8810 	msr	PRIMASK, r3
20000952:	2800      	cmp	r0, #0
20000954:	d04e      	beq.n	200009f4 <dcd_event_handler+0x204>
20000956:	4632      	mov	r2, r6
20000958:	f89d 1005 	ldrb.w	r1, [sp, #5]
2000095c:	f89d 0004 	ldrb.w	r0, [sp, #4]
20000960:	f000 fbea 	bl	20001138 <__tud_event_hook_cb_veneer>
20000964:	e78b      	b.n	2000087e <dcd_event_handler+0x8e>
20000966:	4a36      	ldr	r2, [pc, #216]	; (20000a40 <dcd_event_handler+0x250>)
20000968:	7813      	ldrb	r3, [r2, #0]
2000096a:	f36f 0382 	bfc	r3, #2, #1
2000096e:	7013      	strb	r3, [r2, #0]
20000970:	2700      	movs	r7, #0
20000972:	9701      	str	r7, [sp, #4]
20000974:	9702      	str	r7, [sp, #8]
20000976:	9703      	str	r7, [sp, #12]
20000978:	782b      	ldrb	r3, [r5, #0]
2000097a:	f88d 3004 	strb.w	r3, [sp, #4]
2000097e:	2305      	movs	r3, #5
20000980:	f88d 3005 	strb.w	r3, [sp, #5]
20000984:	4b2f      	ldr	r3, [pc, #188]	; (20000a44 <dcd_event_handler+0x254>)
20000986:	681c      	ldr	r4, [r3, #0]
20000988:	f104 0214 	add.w	r2, r4, #20
2000098c:	6963      	ldr	r3, [r4, #20]
2000098e:	f3ef 8110 	mrs	r1, PRIMASK
20000992:	b672      	cpsid	i
20000994:	e8d3 cfcf 	ldaexb	ip, [r3]
20000998:	2001      	movs	r0, #1
2000099a:	f1bc 0f00 	cmp.w	ip, #0
2000099e:	d1f9      	bne.n	20000994 <dcd_event_handler+0x1a4>
200009a0:	e8c3 0f4c 	strexb	ip, r0, [r3]
200009a4:	f1bc 0f00 	cmp.w	ip, #0
200009a8:	d1f4      	bne.n	20000994 <dcd_event_handler+0x1a4>
200009aa:	f3bf 8f5f 	dmb	sy
200009ae:	6051      	str	r1, [r2, #4]
200009b0:	a901      	add	r1, sp, #4
200009b2:	4620      	mov	r0, r4
200009b4:	f000 fbb0 	bl	20001118 <__tu_fifo_write_veneer>
200009b8:	6962      	ldr	r2, [r4, #20]
200009ba:	69a3      	ldr	r3, [r4, #24]
200009bc:	e8c2 7f8f 	stlb	r7, [r2]
200009c0:	f383 8810 	msr	PRIMASK, r3
200009c4:	b138      	cbz	r0, 200009d6 <dcd_event_handler+0x1e6>
200009c6:	4632      	mov	r2, r6
200009c8:	f89d 1005 	ldrb.w	r1, [sp, #5]
200009cc:	f89d 0004 	ldrb.w	r0, [sp, #4]
200009d0:	f000 fbb2 	bl	20001138 <__tud_event_hook_cb_veneer>
200009d4:	e78e      	b.n	200008f4 <dcd_event_handler+0x104>
200009d6:	f44f 72ad 	mov.w	r2, #346	; 0x15a
200009da:	491e      	ldr	r1, [pc, #120]	; (20000a54 <dcd_event_handler+0x264>)
200009dc:	481e      	ldr	r0, [pc, #120]	; (20000a58 <dcd_event_handler+0x268>)
200009de:	f000 fba3 	bl	20001128 <____wrap_printf_veneer>
200009e2:	f04f 23e0 	mov.w	r3, #3758153728	; 0xe000e000
200009e6:	f8d3 3df0 	ldr.w	r3, [r3, #3568]	; 0xdf0
200009ea:	f013 0f01 	tst.w	r3, #1
200009ee:	d081      	beq.n	200008f4 <dcd_event_handler+0x104>
200009f0:	be00      	bkpt	0x0000
200009f2:	e77f      	b.n	200008f4 <dcd_event_handler+0x104>
200009f4:	f44f 72ad 	mov.w	r2, #346	; 0x15a
200009f8:	4916      	ldr	r1, [pc, #88]	; (20000a54 <dcd_event_handler+0x264>)
200009fa:	4817      	ldr	r0, [pc, #92]	; (20000a58 <dcd_event_handler+0x268>)
200009fc:	f000 fb94 	bl	20001128 <____wrap_printf_veneer>
20000a00:	f04f 23e0 	mov.w	r3, #3758153728	; 0xe000e000
20000a04:	f8d3 3df0 	ldr.w	r3, [r3, #3568]	; 0xdf0
20000a08:	f013 0f01 	tst.w	r3, #1
20000a0c:	f43f af37 	beq.w	2000087e <dcd_event_handler+0x8e>
20000a10:	be00      	bkpt	0x0000
20000a12:	e734      	b.n	2000087e <dcd_event_handler+0x8e>
20000a14:	4a11      	ldr	r2, [pc, #68]	; (20000a5c <dcd_event_handler+0x26c>)
20000a16:	7813      	ldrb	r3, [r2, #0]
20000a18:	3301      	adds	r3, #1
20000a1a:	b2db      	uxtb	r3, r3
20000a1c:	7013      	strb	r3, [r2, #0]
20000a1e:	e705      	b.n	2000082c <dcd_event_handler+0x3c>
20000a20:	f44f 72ad 	mov.w	r2, #346	; 0x15a
20000a24:	490b      	ldr	r1, [pc, #44]	; (20000a54 <dcd_event_handler+0x264>)
20000a26:	480c      	ldr	r0, [pc, #48]	; (20000a58 <dcd_event_handler+0x268>)
20000a28:	f000 fb7e 	bl	20001128 <____wrap_printf_veneer>
20000a2c:	f04f 23e0 	mov.w	r3, #3758153728	; 0xe000e000
20000a30:	f8d3 3df0 	ldr.w	r3, [r3, #3568]	; 0xdf0
20000a34:	f013 0f01 	tst.w	r3, #1
20000a38:	f43f af21 	beq.w	2000087e <dcd_event_handler+0x8e>
20000a3c:	be00      	bkpt	0x0000
20000a3e:	e71e      	b.n	2000087e <dcd_event_handler+0x8e>
20000a40:	20001730 	.word	0x20001730
20000a44:	20001788 	.word	0x20001788
20000a48:	10007510 	.word	0x10007510
20000a4c:	20001fd9 	.word	0x20001fd9
20000a50:	200013e4 	.word	0x200013e4
20000a54:	1000749c 	.word	0x1000749c
20000a58:	10007444 	.word	0x10007444
20000a5c:	20001fdb 	.word	0x20001fdb

20000a60 <__aeabi_drsub>:
20000a60:	f081 4100 	eor.w	r1, r1, #2147483648	; 0x80000000
20000a64:	e002      	b.n	20000a6c <__adddf3>
20000a66:	bf00      	nop

20000a68 <__aeabi_dsub>:
20000a68:	f083 4300 	eor.w	r3, r3, #2147483648	; 0x80000000

20000a6c <__adddf3>:
20000a6c:	b530      	push	{r4, r5, lr}
20000a6e:	ea4f 0441 	mov.w	r4, r1, lsl #1
20000a72:	ea4f 0543 	mov.w	r5, r3, lsl #1
20000a76:	ea94 0f05 	teq	r4, r5
20000a7a:	bf08      	it	eq
20000a7c:	ea90 0f02 	teqeq	r0, r2
20000a80:	bf1f      	itttt	ne
20000a82:	ea54 0c00 	orrsne.w	ip, r4, r0
20000a86:	ea55 0c02 	orrsne.w	ip, r5, r2
20000a8a:	ea7f 5c64 	mvnsne.w	ip, r4, asr #21
20000a8e:	ea7f 5c65 	mvnsne.w	ip, r5, asr #21
20000a92:	f000 80e2 	beq.w	20000c5a <__adddf3+0x1ee>
20000a96:	ea4f 5454 	mov.w	r4, r4, lsr #21
20000a9a:	ebd4 5555 	rsbs	r5, r4, r5, lsr #21
20000a9e:	bfb8      	it	lt
20000aa0:	426d      	neglt	r5, r5
20000aa2:	dd0c      	ble.n	20000abe <__adddf3+0x52>
20000aa4:	442c      	add	r4, r5
20000aa6:	ea80 0202 	eor.w	r2, r0, r2
20000aaa:	ea81 0303 	eor.w	r3, r1, r3
20000aae:	ea82 0000 	eor.w	r0, r2, r0
20000ab2:	ea83 0101 	eor.w	r1, r3, r1
20000ab6:	ea80 0202 	eor.w	r2, r0, r2
20000aba:	ea81 0303 	eor.w	r3, r1, r3
20000abe:	2d36      	cmp	r5, #54	; 0x36
20000ac0:	bf88      	it	hi
20000ac2:	bd30      	pophi	{r4, r5, pc}
20000ac4:	f011 4f00 	tst.w	r1, #2147483648	; 0x80000000
20000ac8:	ea4f 3101 	mov.w	r1, r1, lsl #12
20000acc:	f44f 1c80 	mov.w	ip, #1048576	; 0x100000
20000ad0:	ea4c 3111 	orr.w	r1, ip, r1, lsr #12
20000ad4:	d002      	beq.n	20000adc <__adddf3+0x70>
20000ad6:	4240      	negs	r0, r0
20000ad8:	eb61 0141 	sbc.w	r1, r1, r1, lsl #1
20000adc:	f013 4f00 	tst.w	r3, #2147483648	; 0x80000000
20000ae0:	ea4f 3303 	mov.w	r3, r3, lsl #12
20000ae4:	ea4c 3313 	orr.w	r3, ip, r3, lsr #12
20000ae8:	d002      	beq.n	20000af0 <__adddf3+0x84>
20000aea:	4252      	negs	r2, r2
20000aec:	eb63 0343 	sbc.w	r3, r3, r3, lsl #1
20000af0:	ea94 0f05 	teq	r4, r5
20000af4:	f000 80a7 	beq.w	20000c46 <__adddf3+0x1da>
20000af8:	f1a4 0401 	sub.w	r4, r4, #1
20000afc:	f1d5 0e20 	rsbs	lr, r5, #32
20000b00:	db0d      	blt.n	20000b1e <__adddf3+0xb2>
20000b02:	fa02 fc0e 	lsl.w	ip, r2, lr
20000b06:	fa22 f205 	lsr.w	r2, r2, r5
20000b0a:	1880      	adds	r0, r0, r2
20000b0c:	f141 0100 	adc.w	r1, r1, #0
20000b10:	fa03 f20e 	lsl.w	r2, r3, lr
20000b14:	1880      	adds	r0, r0, r2
20000b16:	fa43 f305 	asr.w	r3, r3, r5
20000b1a:	4159      	adcs	r1, r3
20000b1c:	e00e      	b.n	20000b3c <__adddf3+0xd0>
20000b1e:	f1a5 0520 	sub.w	r5, r5, #32
20000b22:	f10e 0e20 	add.w	lr, lr, #32
20000b26:	2a01      	cmp	r2, #1
20000b28:	fa03 fc0e 	lsl.w	ip, r3, lr
20000b2c:	bf28      	it	cs
20000b2e:	f04c 0c02 	orrcs.w	ip, ip, #2
20000b32:	fa43 f305 	asr.w	r3, r3, r5
20000b36:	18c0      	adds	r0, r0, r3
20000b38:	eb51 71e3 	adcs.w	r1, r1, r3, asr #31
20000b3c:	f001 4500 	and.w	r5, r1, #2147483648	; 0x80000000
20000b40:	d507      	bpl.n	20000b52 <__adddf3+0xe6>
20000b42:	f04f 0e00 	mov.w	lr, #0
20000b46:	f1dc 0c00 	rsbs	ip, ip, #0
20000b4a:	eb7e 0000 	sbcs.w	r0, lr, r0
20000b4e:	eb6e 0101 	sbc.w	r1, lr, r1
20000b52:	f5b1 1f80 	cmp.w	r1, #1048576	; 0x100000
20000b56:	d31b      	bcc.n	20000b90 <__adddf3+0x124>
20000b58:	f5b1 1f00 	cmp.w	r1, #2097152	; 0x200000
20000b5c:	d30c      	bcc.n	20000b78 <__adddf3+0x10c>
20000b5e:	0849      	lsrs	r1, r1, #1
20000b60:	ea5f 0030 	movs.w	r0, r0, rrx
20000b64:	ea4f 0c3c 	mov.w	ip, ip, rrx
20000b68:	f104 0401 	add.w	r4, r4, #1
20000b6c:	ea4f 5244 	mov.w	r2, r4, lsl #21
20000b70:	f512 0f80 	cmn.w	r2, #4194304	; 0x400000
20000b74:	f080 809a 	bcs.w	20000cac <__adddf3+0x240>
20000b78:	f1bc 4f00 	cmp.w	ip, #2147483648	; 0x80000000
20000b7c:	bf08      	it	eq
20000b7e:	ea5f 0c50 	movseq.w	ip, r0, lsr #1
20000b82:	f150 0000 	adcs.w	r0, r0, #0
20000b86:	eb41 5104 	adc.w	r1, r1, r4, lsl #20
20000b8a:	ea41 0105 	orr.w	r1, r1, r5
20000b8e:	bd30      	pop	{r4, r5, pc}
20000b90:	ea5f 0c4c 	movs.w	ip, ip, lsl #1
20000b94:	4140      	adcs	r0, r0
20000b96:	eb41 0101 	adc.w	r1, r1, r1
20000b9a:	3c01      	subs	r4, #1
20000b9c:	bf28      	it	cs
20000b9e:	f5b1 1f80 	cmpcs.w	r1, #1048576	; 0x100000
20000ba2:	d2e9      	bcs.n	20000b78 <__adddf3+0x10c>
20000ba4:	f091 0f00 	teq	r1, #0
20000ba8:	bf04      	itt	eq
20000baa:	4601      	moveq	r1, r0
20000bac:	2000      	moveq	r0, #0
20000bae:	fab1 f381 	clz	r3, r1
20000bb2:	bf08      	it	eq
20000bb4:	3320      	addeq	r3, #32
20000bb6:	f1a3 030b 	sub.w	r3, r3, #11
20000bba:	f1b3 0220 	subs.w	r2, r3, #32
20000bbe:	da0c      	bge.n	20000bda <__adddf3+0x16e>
20000bc0:	320c      	adds	r2, #12
20000bc2:	dd08      	ble.n	20000bd6 <__adddf3+0x16a>
20000bc4:	f102 0c14 	add.w	ip, r2, #20
20000bc8:	f1c2 020c 	rsb	r2, r2, #12
20000bcc:	fa01 f00c 	lsl.w	r0, r1, ip
20000bd0:	fa21 f102 	lsr.w	r1, r1, r2
20000bd4:	e00c      	b.n	20000bf0 <__adddf3+0x184>
20000bd6:	f102 0214 	add.w	r2, r2, #20
20000bda:	bfd8      	it	le
20000bdc:	f1c2 0c20 	rsble	ip, r2, #32
20000be0:	fa01 f102 	lsl.w	r1, r1, r2
20000be4:	fa20 fc0c 	lsr.w	ip, r0, ip
20000be8:	bfdc      	itt	le
20000bea:	ea41 010c 	orrle.w	r1, r1, ip
20000bee:	4090      	lslle	r0, r2
20000bf0:	1ae4      	subs	r4, r4, r3
20000bf2:	bfa2      	ittt	ge
20000bf4:	eb01 5104 	addge.w	r1, r1, r4, lsl #20
20000bf8:	4329      	orrge	r1, r5
20000bfa:	bd30      	popge	{r4, r5, pc}
20000bfc:	ea6f 0404 	mvn.w	r4, r4
20000c00:	3c1f      	subs	r4, #31
20000c02:	da1c      	bge.n	20000c3e <__adddf3+0x1d2>
20000c04:	340c      	adds	r4, #12
20000c06:	dc0e      	bgt.n	20000c26 <__adddf3+0x1ba>
20000c08:	f104 0414 	add.w	r4, r4, #20
20000c0c:	f1c4 0220 	rsb	r2, r4, #32
20000c10:	fa20 f004 	lsr.w	r0, r0, r4
20000c14:	fa01 f302 	lsl.w	r3, r1, r2
20000c18:	ea40 0003 	orr.w	r0, r0, r3
20000c1c:	fa21 f304 	lsr.w	r3, r1, r4
20000c20:	ea45 0103 	orr.w	r1, r5, r3
20000c24:	bd30      	pop	{r4, r5, pc}
20000c26:	f1c4 040c 	rsb	r4, r4, #12
20000c2a:	f1c4 0220 	rsb	r2, r4, #32
20000c2e:	fa20 f002 	lsr.w	r0, r0, r2
20000c32:	fa01 f304 	lsl.w	r3, r1, r4
20000c36:	ea40 0003 	orr.w	r0, r0, r3
20000c3a:	4629      	mov	r1, r5
20000c3c:	bd30      	pop	{r4, r5, pc}
20000c3e:	fa21 f004 	lsr.w	r0, r1, r4
20000c42:	4629      	mov	r1, r5
20000c44:	bd30      	pop	{r4, r5, pc}
20000c46:	f094 0f00 	teq	r4, #0
20000c4a:	f483 1380 	eor.w	r3, r3, #1048576	; 0x100000
20000c4e:	bf06      	itte	eq
20000c50:	f481 1180 	eoreq.w	r1, r1, #1048576	; 0x100000
20000c54:	3401      	addeq	r4, #1
20000c56:	3d01      	subne	r5, #1
20000c58:	e74e      	b.n	20000af8 <__adddf3+0x8c>
20000c5a:	ea7f 5c64 	mvns.w	ip, r4, asr #21
20000c5e:	bf18      	it	ne
20000c60:	ea7f 5c65 	mvnsne.w	ip, r5, asr #21
20000c64:	d029      	beq.n	20000cba <__adddf3+0x24e>
20000c66:	ea94 0f05 	teq	r4, r5
20000c6a:	bf08      	it	eq
20000c6c:	ea90 0f02 	teqeq	r0, r2
20000c70:	d005      	beq.n	20000c7e <__adddf3+0x212>
20000c72:	ea54 0c00 	orrs.w	ip, r4, r0
20000c76:	bf04      	itt	eq
20000c78:	4619      	moveq	r1, r3
20000c7a:	4610      	moveq	r0, r2
20000c7c:	bd30      	pop	{r4, r5, pc}
20000c7e:	ea91 0f03 	teq	r1, r3
20000c82:	bf1e      	ittt	ne
20000c84:	2100      	movne	r1, #0
20000c86:	2000      	movne	r0, #0
20000c88:	bd30      	popne	{r4, r5, pc}
20000c8a:	ea5f 5c54 	movs.w	ip, r4, lsr #21
20000c8e:	d105      	bne.n	20000c9c <__adddf3+0x230>
20000c90:	0040      	lsls	r0, r0, #1
20000c92:	4149      	adcs	r1, r1
20000c94:	bf28      	it	cs
20000c96:	f041 4100 	orrcs.w	r1, r1, #2147483648	; 0x80000000
20000c9a:	bd30      	pop	{r4, r5, pc}
20000c9c:	f514 0480 	adds.w	r4, r4, #4194304	; 0x400000
20000ca0:	bf3c      	itt	cc
20000ca2:	f501 1180 	addcc.w	r1, r1, #1048576	; 0x100000
20000ca6:	bd30      	popcc	{r4, r5, pc}
20000ca8:	f001 4500 	and.w	r5, r1, #2147483648	; 0x80000000
20000cac:	f045 41fe 	orr.w	r1, r5, #2130706432	; 0x7f000000
20000cb0:	f441 0170 	orr.w	r1, r1, #15728640	; 0xf00000
20000cb4:	f04f 0000 	mov.w	r0, #0
20000cb8:	bd30      	pop	{r4, r5, pc}
20000cba:	ea7f 5c64 	mvns.w	ip, r4, asr #21
20000cbe:	bf1a      	itte	ne
20000cc0:	4619      	movne	r1, r3
20000cc2:	4610      	movne	r0, r2
20000cc4:	ea7f 5c65 	mvnseq.w	ip, r5, asr #21
20000cc8:	bf1c      	itt	ne
20000cca:	460b      	movne	r3, r1
20000ccc:	4602      	movne	r2, r0
20000cce:	ea50 3401 	orrs.w	r4, r0, r1, lsl #12
20000cd2:	bf06      	itte	eq
20000cd4:	ea52 3503 	orrseq.w	r5, r2, r3, lsl #12
20000cd8:	ea91 0f03 	teqeq	r1, r3
20000cdc:	f441 2100 	orrne.w	r1, r1, #524288	; 0x80000
20000ce0:	bd30      	pop	{r4, r5, pc}
20000ce2:	bf00      	nop

20000ce4 <__aeabi_ui2d>:
20000ce4:	f090 0f00 	teq	r0, #0
20000ce8:	bf04      	itt	eq
20000cea:	2100      	moveq	r1, #0
20000cec:	4770      	bxeq	lr
20000cee:	b530      	push	{r4, r5, lr}
20000cf0:	f44f 6480 	mov.w	r4, #1024	; 0x400
20000cf4:	f104 0432 	add.w	r4, r4, #50	; 0x32
20000cf8:	f04f 0500 	mov.w	r5, #0
20000cfc:	f04f 0100 	mov.w	r1, #0
20000d00:	e750      	b.n	20000ba4 <__adddf3+0x138>
20000d02:	bf00      	nop

20000d04 <__aeabi_i2d>:
20000d04:	f090 0f00 	teq	r0, #0
20000d08:	bf04      	itt	eq
20000d0a:	2100      	moveq	r1, #0
20000d0c:	4770      	bxeq	lr
20000d0e:	b530      	push	{r4, r5, lr}
20000d10:	f44f 6480 	mov.w	r4, #1024	; 0x400
20000d14:	f104 0432 	add.w	r4, r4, #50	; 0x32
20000d18:	f010 4500 	ands.w	r5, r0, #2147483648	; 0x80000000
20000d1c:	bf48      	it	mi
20000d1e:	4240      	negmi	r0, r0
20000d20:	f04f 0100 	mov.w	r1, #0
20000d24:	e73e      	b.n	20000ba4 <__adddf3+0x138>
20000d26:	bf00      	nop

20000d28 <__aeabi_f2d>:
20000d28:	0042      	lsls	r2, r0, #1
20000d2a:	ea4f 01e2 	mov.w	r1, r2, asr #3
20000d2e:	ea4f 0131 	mov.w	r1, r1, rrx
20000d32:	ea4f 7002 	mov.w	r0, r2, lsl #28
20000d36:	bf1f      	itttt	ne
20000d38:	f012 437f 	andsne.w	r3, r2, #4278190080	; 0xff000000
20000d3c:	f093 4f7f 	teqne	r3, #4278190080	; 0xff000000
20000d40:	f081 5160 	eorne.w	r1, r1, #939524096	; 0x38000000
20000d44:	4770      	bxne	lr
20000d46:	f032 427f 	bics.w	r2, r2, #4278190080	; 0xff000000
20000d4a:	bf08      	it	eq
20000d4c:	4770      	bxeq	lr
20000d4e:	f093 4f7f 	teq	r3, #4278190080	; 0xff000000
20000d52:	bf04      	itt	eq
20000d54:	f441 2100 	orreq.w	r1, r1, #524288	; 0x80000
20000d58:	4770      	bxeq	lr
20000d5a:	b530      	push	{r4, r5, lr}
20000d5c:	f44f 7460 	mov.w	r4, #896	; 0x380
20000d60:	f001 4500 	and.w	r5, r1, #2147483648	; 0x80000000
20000d64:	f021 4100 	bic.w	r1, r1, #2147483648	; 0x80000000
20000d68:	e71c      	b.n	20000ba4 <__adddf3+0x138>
20000d6a:	bf00      	nop

20000d6c <__aeabi_ul2d>:
20000d6c:	ea50 0201 	orrs.w	r2, r0, r1
20000d70:	bf08      	it	eq
20000d72:	4770      	bxeq	lr
20000d74:	b530      	push	{r4, r5, lr}
20000d76:	f04f 0500 	mov.w	r5, #0
20000d7a:	e00a      	b.n	20000d92 <__aeabi_l2d+0x16>

20000d7c <__aeabi_l2d>:
20000d7c:	ea50 0201 	orrs.w	r2, r0, r1
20000d80:	bf08      	it	eq
20000d82:	4770      	bxeq	lr
20000d84:	b530      	push	{r4, r5, lr}
20000d86:	f011 4500 	ands.w	r5, r1, #2147483648	; 0x80000000
20000d8a:	d502      	bpl.n	20000d92 <__aeabi_l2d+0x16>
20000d8c:	4240      	negs	r0, r0
20000d8e:	eb61 0141 	sbc.w	r1, r1, r1, lsl #1
20000d92:	f44f 6480 	mov.w	r4, #1024	; 0x400
20000d96:	f104 0432 	add.w	r4, r4, #50	; 0x32
20000d9a:	ea5f 5c91 	movs.w	ip, r1, lsr #22
20000d9e:	f43f aed8 	beq.w	20000b52 <__adddf3+0xe6>
20000da2:	f04f 0203 	mov.w	r2, #3
20000da6:	ea5f 0cdc 	movs.w	ip, ip, lsr #3
20000daa:	bf18      	it	ne
20000dac:	3203      	addne	r2, #3
20000dae:	ea5f 0cdc 	movs.w	ip, ip, lsr #3
20000db2:	bf18      	it	ne
20000db4:	3203      	addne	r2, #3
20000db6:	eb02 02dc 	add.w	r2, r2, ip, lsr #3
20000dba:	f1c2 0320 	rsb	r3, r2, #32
20000dbe:	fa00 fc03 	lsl.w	ip, r0, r3
20000dc2:	fa20 f002 	lsr.w	r0, r0, r2
20000dc6:	fa01 fe03 	lsl.w	lr, r1, r3
20000dca:	ea40 000e 	orr.w	r0, r0, lr
20000dce:	fa21 f102 	lsr.w	r1, r1, r2
20000dd2:	4414      	add	r4, r2
20000dd4:	e6bd      	b.n	20000b52 <__adddf3+0xe6>
20000dd6:	bf00      	nop

20000dd8 <__aeabi_uldivmod>:
20000dd8:	b953      	cbnz	r3, 20000df0 <__aeabi_uldivmod+0x18>
20000dda:	b94a      	cbnz	r2, 20000df0 <__aeabi_uldivmod+0x18>
20000ddc:	2900      	cmp	r1, #0
20000dde:	bf08      	it	eq
20000de0:	2800      	cmpeq	r0, #0
20000de2:	bf1c      	itt	ne
20000de4:	f04f 31ff 	movne.w	r1, #4294967295
20000de8:	f04f 30ff 	movne.w	r0, #4294967295
20000dec:	f000 b982 	b.w	200010f4 <__aeabi_idiv0>
20000df0:	f1ad 0c08 	sub.w	ip, sp, #8
20000df4:	e96d ce04 	strd	ip, lr, [sp, #-16]!
20000df8:	f000 f806 	bl	20000e08 <__udivmoddi4>
20000dfc:	f8dd e004 	ldr.w	lr, [sp, #4]
20000e00:	e9dd 2302 	ldrd	r2, r3, [sp, #8]
20000e04:	b004      	add	sp, #16
20000e06:	4770      	bx	lr

20000e08 <__udivmoddi4>:
20000e08:	e92d 4ff0 	stmdb	sp!, {r4, r5, r6, r7, r8, r9, sl, fp, lr}
20000e0c:	9d09      	ldr	r5, [sp, #36]	; 0x24
20000e0e:	4604      	mov	r4, r0
20000e10:	460f      	mov	r7, r1
20000e12:	2b00      	cmp	r3, #0
20000e14:	d148      	bne.n	20000ea8 <__udivmoddi4+0xa0>
20000e16:	428a      	cmp	r2, r1
20000e18:	4694      	mov	ip, r2
20000e1a:	d961      	bls.n	20000ee0 <__udivmoddi4+0xd8>
20000e1c:	fab2 f382 	clz	r3, r2
20000e20:	b143      	cbz	r3, 20000e34 <__udivmoddi4+0x2c>
20000e22:	f1c3 0120 	rsb	r1, r3, #32
20000e26:	409f      	lsls	r7, r3
20000e28:	fa02 fc03 	lsl.w	ip, r2, r3
20000e2c:	409c      	lsls	r4, r3
20000e2e:	fa20 f101 	lsr.w	r1, r0, r1
20000e32:	430f      	orrs	r7, r1
20000e34:	ea4f 411c 	mov.w	r1, ip, lsr #16
20000e38:	fa1f fe8c 	uxth.w	lr, ip
20000e3c:	0c22      	lsrs	r2, r4, #16
20000e3e:	fbb7 f6f1 	udiv	r6, r7, r1
20000e42:	fb01 7716 	mls	r7, r1, r6, r7
20000e46:	fb06 f00e 	mul.w	r0, r6, lr
20000e4a:	ea42 4207 	orr.w	r2, r2, r7, lsl #16
20000e4e:	4290      	cmp	r0, r2
20000e50:	d908      	bls.n	20000e64 <__udivmoddi4+0x5c>
20000e52:	eb1c 0202 	adds.w	r2, ip, r2
20000e56:	f106 37ff 	add.w	r7, r6, #4294967295
20000e5a:	d202      	bcs.n	20000e62 <__udivmoddi4+0x5a>
20000e5c:	4290      	cmp	r0, r2
20000e5e:	f200 8137 	bhi.w	200010d0 <__udivmoddi4+0x2c8>
20000e62:	463e      	mov	r6, r7
20000e64:	1a12      	subs	r2, r2, r0
20000e66:	b2a4      	uxth	r4, r4
20000e68:	fbb2 f0f1 	udiv	r0, r2, r1
20000e6c:	fb01 2210 	mls	r2, r1, r0, r2
20000e70:	fb00 fe0e 	mul.w	lr, r0, lr
20000e74:	ea44 4402 	orr.w	r4, r4, r2, lsl #16
20000e78:	45a6      	cmp	lr, r4
20000e7a:	d908      	bls.n	20000e8e <__udivmoddi4+0x86>
20000e7c:	eb1c 0404 	adds.w	r4, ip, r4
20000e80:	f100 32ff 	add.w	r2, r0, #4294967295
20000e84:	d202      	bcs.n	20000e8c <__udivmoddi4+0x84>
20000e86:	45a6      	cmp	lr, r4
20000e88:	f200 811c 	bhi.w	200010c4 <__udivmoddi4+0x2bc>
20000e8c:	4610      	mov	r0, r2
20000e8e:	ea40 4006 	orr.w	r0, r0, r6, lsl #16
20000e92:	eba4 040e 	sub.w	r4, r4, lr
20000e96:	2600      	movs	r6, #0
20000e98:	b11d      	cbz	r5, 20000ea2 <__udivmoddi4+0x9a>
20000e9a:	40dc      	lsrs	r4, r3
20000e9c:	2300      	movs	r3, #0
20000e9e:	e9c5 4300 	strd	r4, r3, [r5]
20000ea2:	4631      	mov	r1, r6
20000ea4:	e8bd 8ff0 	ldmia.w	sp!, {r4, r5, r6, r7, r8, r9, sl, fp, pc}
20000ea8:	428b      	cmp	r3, r1
20000eaa:	d909      	bls.n	20000ec0 <__udivmoddi4+0xb8>
20000eac:	2d00      	cmp	r5, #0
20000eae:	f000 80fd 	beq.w	200010ac <__udivmoddi4+0x2a4>
20000eb2:	2600      	movs	r6, #0
20000eb4:	e9c5 0100 	strd	r0, r1, [r5]
20000eb8:	4630      	mov	r0, r6
20000eba:	4631      	mov	r1, r6
20000ebc:	e8bd 8ff0 	ldmia.w	sp!, {r4, r5, r6, r7, r8, r9, sl, fp, pc}
20000ec0:	fab3 f683 	clz	r6, r3
20000ec4:	2e00      	cmp	r6, #0
20000ec6:	d14b      	bne.n	20000f60 <__udivmoddi4+0x158>
20000ec8:	428b      	cmp	r3, r1
20000eca:	f0c0 80f2 	bcc.w	200010b2 <__udivmoddi4+0x2aa>
20000ece:	4282      	cmp	r2, r0
20000ed0:	f240 80ef 	bls.w	200010b2 <__udivmoddi4+0x2aa>
20000ed4:	4630      	mov	r0, r6
20000ed6:	2d00      	cmp	r5, #0
20000ed8:	d0e3      	beq.n	20000ea2 <__udivmoddi4+0x9a>
20000eda:	e9c5 4700 	strd	r4, r7, [r5]
20000ede:	e7e0      	b.n	20000ea2 <__udivmoddi4+0x9a>
20000ee0:	b902      	cbnz	r2, 20000ee4 <__udivmoddi4+0xdc>
20000ee2:	deff      	udf	#255	; 0xff
20000ee4:	fab2 f382 	clz	r3, r2
20000ee8:	2b00      	cmp	r3, #0
20000eea:	f040 809d 	bne.w	20001028 <__udivmoddi4+0x220>
20000eee:	1a89      	subs	r1, r1, r2
20000ef0:	ea4f 4e12 	mov.w	lr, r2, lsr #16
20000ef4:	b297      	uxth	r7, r2
20000ef6:	2601      	movs	r6, #1
20000ef8:	0c20      	lsrs	r0, r4, #16
20000efa:	fbb1 f2fe 	udiv	r2, r1, lr
20000efe:	fb0e 1112 	mls	r1, lr, r2, r1
20000f02:	ea40 4101 	orr.w	r1, r0, r1, lsl #16
20000f06:	fb07 f002 	mul.w	r0, r7, r2
20000f0a:	4288      	cmp	r0, r1
20000f0c:	d90f      	bls.n	20000f2e <__udivmoddi4+0x126>
20000f0e:	eb1c 0101 	adds.w	r1, ip, r1
20000f12:	f102 38ff 	add.w	r8, r2, #4294967295
20000f16:	bf2c      	ite	cs
20000f18:	f04f 0901 	movcs.w	r9, #1
20000f1c:	f04f 0900 	movcc.w	r9, #0
20000f20:	4288      	cmp	r0, r1
20000f22:	d903      	bls.n	20000f2c <__udivmoddi4+0x124>
20000f24:	f1b9 0f00 	cmp.w	r9, #0
20000f28:	f000 80cf 	beq.w	200010ca <__udivmoddi4+0x2c2>
20000f2c:	4642      	mov	r2, r8
20000f2e:	1a09      	subs	r1, r1, r0
20000f30:	b2a4      	uxth	r4, r4
20000f32:	fbb1 f0fe 	udiv	r0, r1, lr
20000f36:	fb0e 1110 	mls	r1, lr, r0, r1
20000f3a:	fb00 f707 	mul.w	r7, r0, r7
20000f3e:	ea44 4401 	orr.w	r4, r4, r1, lsl #16
20000f42:	42a7      	cmp	r7, r4
20000f44:	d908      	bls.n	20000f58 <__udivmoddi4+0x150>
20000f46:	eb1c 0404 	adds.w	r4, ip, r4
20000f4a:	f100 31ff 	add.w	r1, r0, #4294967295
20000f4e:	d202      	bcs.n	20000f56 <__udivmoddi4+0x14e>
20000f50:	42a7      	cmp	r7, r4
20000f52:	f200 80b4 	bhi.w	200010be <__udivmoddi4+0x2b6>
20000f56:	4608      	mov	r0, r1
20000f58:	1be4      	subs	r4, r4, r7
20000f5a:	ea40 4002 	orr.w	r0, r0, r2, lsl #16
20000f5e:	e79b      	b.n	20000e98 <__udivmoddi4+0x90>
20000f60:	f1c6 0720 	rsb	r7, r6, #32
20000f64:	40b3      	lsls	r3, r6
20000f66:	fa01 f406 	lsl.w	r4, r1, r6
20000f6a:	fa22 fc07 	lsr.w	ip, r2, r7
20000f6e:	40f9      	lsrs	r1, r7
20000f70:	40b2      	lsls	r2, r6
20000f72:	ea4c 0c03 	orr.w	ip, ip, r3
20000f76:	fa20 f307 	lsr.w	r3, r0, r7
20000f7a:	ea4f 491c 	mov.w	r9, ip, lsr #16
20000f7e:	431c      	orrs	r4, r3
20000f80:	fa1f fe8c 	uxth.w	lr, ip
20000f84:	fa00 f306 	lsl.w	r3, r0, r6
20000f88:	0c20      	lsrs	r0, r4, #16
20000f8a:	fbb1 f8f9 	udiv	r8, r1, r9
20000f8e:	fb09 1118 	mls	r1, r9, r8, r1
20000f92:	ea40 4101 	orr.w	r1, r0, r1, lsl #16
20000f96:	fb08 f00e 	mul.w	r0, r8, lr
20000f9a:	4288      	cmp	r0, r1
20000f9c:	d90f      	bls.n	20000fbe <__udivmoddi4+0x1b6>
20000f9e:	eb1c 0101 	adds.w	r1, ip, r1
20000fa2:	f108 3aff 	add.w	sl, r8, #4294967295
20000fa6:	bf2c      	ite	cs
20000fa8:	f04f 0b01 	movcs.w	fp, #1
20000fac:	f04f 0b00 	movcc.w	fp, #0
20000fb0:	4288      	cmp	r0, r1
20000fb2:	d903      	bls.n	20000fbc <__udivmoddi4+0x1b4>
20000fb4:	f1bb 0f00 	cmp.w	fp, #0
20000fb8:	f000 808d 	beq.w	200010d6 <__udivmoddi4+0x2ce>
20000fbc:	46d0      	mov	r8, sl
20000fbe:	1a09      	subs	r1, r1, r0
20000fc0:	b2a4      	uxth	r4, r4
20000fc2:	fbb1 f0f9 	udiv	r0, r1, r9
20000fc6:	fb09 1110 	mls	r1, r9, r0, r1
20000fca:	fb00 fe0e 	mul.w	lr, r0, lr
20000fce:	ea44 4101 	orr.w	r1, r4, r1, lsl #16
20000fd2:	458e      	cmp	lr, r1
20000fd4:	d907      	bls.n	20000fe6 <__udivmoddi4+0x1de>
20000fd6:	eb1c 0101 	adds.w	r1, ip, r1
20000fda:	f100 34ff 	add.w	r4, r0, #4294967295
20000fde:	d201      	bcs.n	20000fe4 <__udivmoddi4+0x1dc>
20000fe0:	458e      	cmp	lr, r1
20000fe2:	d87f      	bhi.n	200010e4 <__udivmoddi4+0x2dc>
20000fe4:	4620      	mov	r0, r4
20000fe6:	ea40 4008 	orr.w	r0, r0, r8, lsl #16
20000fea:	eba1 010e 	sub.w	r1, r1, lr
20000fee:	fba0 9802 	umull	r9, r8, r0, r2
20000ff2:	4541      	cmp	r1, r8
20000ff4:	464c      	mov	r4, r9
20000ff6:	46c6      	mov	lr, r8
20000ff8:	d302      	bcc.n	20001000 <__udivmoddi4+0x1f8>
20000ffa:	d106      	bne.n	2000100a <__udivmoddi4+0x202>
20000ffc:	454b      	cmp	r3, r9
20000ffe:	d204      	bcs.n	2000100a <__udivmoddi4+0x202>
20001000:	3801      	subs	r0, #1
20001002:	ebb9 0402 	subs.w	r4, r9, r2
20001006:	eb68 0e0c 	sbc.w	lr, r8, ip
2000100a:	2d00      	cmp	r5, #0
2000100c:	d070      	beq.n	200010f0 <__udivmoddi4+0x2e8>
2000100e:	1b1a      	subs	r2, r3, r4
20001010:	eb61 010e 	sbc.w	r1, r1, lr
20001014:	fa22 f306 	lsr.w	r3, r2, r6
20001018:	fa01 f707 	lsl.w	r7, r1, r7
2000101c:	40f1      	lsrs	r1, r6
2000101e:	2600      	movs	r6, #0
20001020:	431f      	orrs	r7, r3
20001022:	e9c5 7100 	strd	r7, r1, [r5]
20001026:	e73c      	b.n	20000ea2 <__udivmoddi4+0x9a>
20001028:	fa02 fc03 	lsl.w	ip, r2, r3
2000102c:	f1c3 0020 	rsb	r0, r3, #32
20001030:	fa01 f203 	lsl.w	r2, r1, r3
20001034:	fa21 f600 	lsr.w	r6, r1, r0
20001038:	ea4f 4e1c 	mov.w	lr, ip, lsr #16
2000103c:	fa24 f100 	lsr.w	r1, r4, r0
20001040:	fa1f f78c 	uxth.w	r7, ip
20001044:	409c      	lsls	r4, r3
20001046:	4311      	orrs	r1, r2
20001048:	fbb6 f0fe 	udiv	r0, r6, lr
2000104c:	0c0a      	lsrs	r2, r1, #16
2000104e:	fb0e 6610 	mls	r6, lr, r0, r6
20001052:	ea42 4206 	orr.w	r2, r2, r6, lsl #16
20001056:	fb00 f607 	mul.w	r6, r0, r7
2000105a:	4296      	cmp	r6, r2
2000105c:	d90e      	bls.n	2000107c <__udivmoddi4+0x274>
2000105e:	eb1c 0202 	adds.w	r2, ip, r2
20001062:	f100 38ff 	add.w	r8, r0, #4294967295
20001066:	bf2c      	ite	cs
20001068:	f04f 0901 	movcs.w	r9, #1
2000106c:	f04f 0900 	movcc.w	r9, #0
20001070:	4296      	cmp	r6, r2
20001072:	d902      	bls.n	2000107a <__udivmoddi4+0x272>
20001074:	f1b9 0f00 	cmp.w	r9, #0
20001078:	d031      	beq.n	200010de <__udivmoddi4+0x2d6>
2000107a:	4640      	mov	r0, r8
2000107c:	1b92      	subs	r2, r2, r6
2000107e:	b289      	uxth	r1, r1
20001080:	fbb2 f6fe 	udiv	r6, r2, lr
20001084:	fb0e 2216 	mls	r2, lr, r6, r2
20001088:	ea41 4102 	orr.w	r1, r1, r2, lsl #16
2000108c:	fb06 f207 	mul.w	r2, r6, r7
20001090:	428a      	cmp	r2, r1
20001092:	d907      	bls.n	200010a4 <__udivmoddi4+0x29c>
20001094:	eb1c 0101 	adds.w	r1, ip, r1
20001098:	f106 38ff 	add.w	r8, r6, #4294967295
2000109c:	d201      	bcs.n	200010a2 <__udivmoddi4+0x29a>
2000109e:	428a      	cmp	r2, r1
200010a0:	d823      	bhi.n	200010ea <__udivmoddi4+0x2e2>
200010a2:	4646      	mov	r6, r8
200010a4:	1a89      	subs	r1, r1, r2
200010a6:	ea46 4600 	orr.w	r6, r6, r0, lsl #16
200010aa:	e725      	b.n	20000ef8 <__udivmoddi4+0xf0>
200010ac:	462e      	mov	r6, r5
200010ae:	4628      	mov	r0, r5
200010b0:	e6f7      	b.n	20000ea2 <__udivmoddi4+0x9a>
200010b2:	1a84      	subs	r4, r0, r2
200010b4:	eb61 0303 	sbc.w	r3, r1, r3
200010b8:	2001      	movs	r0, #1
200010ba:	461f      	mov	r7, r3
200010bc:	e70b      	b.n	20000ed6 <__udivmoddi4+0xce>
200010be:	4464      	add	r4, ip
200010c0:	3802      	subs	r0, #2
200010c2:	e749      	b.n	20000f58 <__udivmoddi4+0x150>
200010c4:	4464      	add	r4, ip
200010c6:	3802      	subs	r0, #2
200010c8:	e6e1      	b.n	20000e8e <__udivmoddi4+0x86>
200010ca:	3a02      	subs	r2, #2
200010cc:	4461      	add	r1, ip
200010ce:	e72e      	b.n	20000f2e <__udivmoddi4+0x126>
200010d0:	3e02      	subs	r6, #2
200010d2:	4462      	add	r2, ip
200010d4:	e6c6      	b.n	20000e64 <__udivmoddi4+0x5c>
200010d6:	f1a8 0802 	sub.w	r8, r8, #2
200010da:	4461      	add	r1, ip
200010dc:	e76f      	b.n	20000fbe <__udivmoddi4+0x1b6>
200010de:	3802      	subs	r0, #2
200010e0:	4462      	add	r2, ip
200010e2:	e7cb      	b.n	2000107c <__udivmoddi4+0x274>
200010e4:	3802      	subs	r0, #2
200010e6:	4461      	add	r1, ip
200010e8:	e77d      	b.n	20000fe6 <__udivmoddi4+0x1de>
200010ea:	3e02      	subs	r6, #2
200010ec:	4461      	add	r1, ip
200010ee:	e7d9      	b.n	200010a4 <__udivmoddi4+0x29c>
200010f0:	462e      	mov	r6, r5
200010f2:	e6d6      	b.n	20000ea2 <__udivmoddi4+0x9a>

200010f4 <__aeabi_idiv0>:
200010f4:	4770      	bx	lr
200010f6:	bf00      	nop

200010f8 <__unaligned_memcpy_veneer>:
200010f8:	b401      	push	{r0}
200010fa:	4802      	ldr	r0, [pc, #8]	; (20001104 <__unaligned_memcpy_veneer+0xc>)
200010fc:	4684      	mov	ip, r0
200010fe:	bc01      	pop	{r0}
20001100:	4760      	bx	ip
20001102:	bf00      	nop
20001104:	10003d05 	.word	0x10003d05

20001108 <__time_us_64_veneer>:
20001108:	b401      	push	{r0}
2000110a:	4802      	ldr	r0, [pc, #8]	; (20001114 <__time_us_64_veneer+0xc>)
2000110c:	4684      	mov	ip, r0
2000110e:	bc01      	pop	{r0}
20001110:	4760      	bx	ip
20001112:	bf00      	nop
20001114:	10001681 	.word	0x10001681

20001118 <__tu_fifo_write_veneer>:
20001118:	b401      	push	{r0}
2000111a:	4802      	ldr	r0, [pc, #8]	; (20001124 <__tu_fifo_write_veneer+0xc>)
2000111c:	4684      	mov	ip, r0
2000111e:	bc01      	pop	{r0}
20001120:	4760      	bx	ip
20001122:	bf00      	nop
20001124:	10006109 	.word	0x10006109

20001128 <____wrap_printf_veneer>:
20001128:	b401      	push	{r0}
2000112a:	4802      	ldr	r0, [pc, #8]	; (20001134 <____wrap_printf_veneer+0xc>)
2000112c:	4684      	mov	ip, r0
2000112e:	bc01      	pop	{r0}
20001130:	4760      	bx	ip
20001132:	bf00      	nop
20001134:	10003385 	.word	0x10003385

20001138 <__tud_event_hook_cb_veneer>:
20001138:	b401      	push	{r0}
2000113a:	4802      	ldr	r0, [pc, #8]	; (20001144 <__tud_event_hook_cb_veneer+0xc>)
2000113c:	4684      	mov	ip, r0
2000113e:	bc01      	pop	{r0}
20001140:	4760      	bx	ip
20001142:	bf00      	nop
20001144:	1000403d 	.word	0x1000403d

20001148 <__best_effort_wfe_or_timeout_veneer>:
20001148:	b401      	push	{r0}
2000114a:	4802      	ldr	r0, [pc, #8]	; (20001154 <__best_effort_wfe_or_timeout_veneer+0xc>)
2000114c:	4684      	mov	ip, r0
2000114e:	bc01      	pop	{r0}
20001150:	4760      	bx	ip
20001152:	bf00      	nop
20001154:	100014e5 	.word	0x100014e5

20001158 <__memset_veneer>:
20001158:	b401      	push	{r0}
2000115a:	4802      	ldr	r0, [pc, #8]	; (20001164 <__memset_veneer+0xc>)
2000115c:	4684      	mov	ip, r0
2000115e:	bc01      	pop	{r0}
20001160:	4760      	bx	ip
20001162:	bf00      	nop
20001164:	10006625 	.word	0x10006625

20001168 <__panic_veneer>:
20001168:	b401      	push	{r0}
2000116a:	4802      	ldr	r0, [pc, #8]	; (20001174 <__panic_veneer+0xc>)
2000116c:	4684      	mov	ip, r0
2000116e:	bc01      	pop	{r0}
20001170:	4760      	bx	ip
20001172:	bf00      	nop
20001174:	1000073d 	.word	0x1000073d

20001178 <____assert_func_veneer>:
20001178:	b401      	push	{r0}
2000117a:	4802      	ldr	r0, [pc, #8]	; (20001184 <____assert_func_veneer+0xc>)
2000117c:	4684      	mov	ip, r0
2000117e:	bc01      	pop	{r0}
20001180:	4760      	bx	ip
20001182:	bf00      	nop
20001184:	100030c1 	.word	0x100030c1

20001188 <striped_spin_lock_num>:
20001188:	00000010                                ....

2000118c <irq_handler_chain_slots>:
2000118c:	00000000 	.word	0x00000000
20001190:	00010000 	.word	0x00010000
	...
2000119c:	00020000 	.word	0x00020000
	...
200011a8:	00030000 	.word	0x00030000
	...
200011b4:	00ff0000 	.word	0x00ff0000
200011b8:	00000000 	.word	0x00000000

200011bc <irq_handler_chain_first_slot>:
200011bc:	b501      	push	{r0, lr}
200011be:	6848      	ldr	r0, [r1, #4]
200011c0:	3101      	adds	r1, #1
200011c2:	468e      	mov	lr, r1
200011c4:	4700      	bx	r0

200011c6 <irq_handler_chain_remove_tail>:
200011c6:	4670      	mov	r0, lr
200011c8:	3809      	subs	r0, #9
200011ca:	4901      	ldr	r1, [pc, #4]	; (200011d0 <irq_handler_chain_remove_tail+0xa>)
200011cc:	4788      	blx	r1
200011ce:	bd01      	pop	{r0, pc}
200011d0:	10000c75 	.word	0x10000c75

200011d4 <default_alarm_pool>:
	...
200011e8:	20001240                                @.. 

200011ec <stdio_usb>:
200011ec:	100037d1 100034ad 10003745 10003499     .7...4..E7...4..
200011fc:	00000000 00000100                       ........

20001204 <_usbd_qdef>:
20001204:	2000178c 000c0010 00000000 00000000     ... ............
	...

20001220 <_usbd_rhport>:
20001220:	000000ff                                ....

20001224 <i2c0_inst>:
20001224:	40090000 00000000                       ...@....

2000122c <i2c1_inst>:
2000122c:	40098000 00000000                       ...@....

20001234 <print_mutex>:
	...
